 PhysXCommon_64

 Timestamp is 64ccc3d5 (Fri Aug  4 18:24:37 2023)

 Preferred load address is 0000000180000000

 Start         Length     Name                   Class
 0001:00000000 000034d0H .text$di                CODE
 0001:000034d0 001ce3a0H .text$mn                CODE
 0001:001d1870 00000040H .text$mn$00             CODE
 0001:001d18b0 00000680H .text$x                 CODE
 0001:001d1f30 0000000fH .text$yd                CODE
 0002:00000000 00000288H .idata$5                DATA
 0002:00000288 00000038H .00cfg                  DATA
 0002:000002c0 00000008H .CRT$XCA                DATA
 0002:000002c8 000019a0H .CRT$XCU                DATA
 0002:00001c68 00000008H .CRT$XCZ                DATA
 0002:00001c70 00000008H .CRT$XIA                DATA
 0002:00001c78 00000018H .CRT$XIC                DATA
 0002:00001c90 00000008H .CRT$XIZ                DATA
 0002:00001c98 00000008H .CRT$XPA                DATA
 0002:00001ca0 00000010H .CRT$XPX                DATA
 0002:00001cb0 00000008H .CRT$XPXA               DATA
 0002:00001cb8 00000008H .CRT$XPZ                DATA
 0002:00001cc0 00000008H .CRT$XTA                DATA
 0002:00001cc8 00000008H .CRT$XTZ                DATA
 0002:00001cd0 00000000H .gehcont$y              DATA
 0002:00001cd0 00000000H .gfids$y                DATA
 0002:00001cd0 000115b0H .rdata                  DATA
 0002:00013280 00000000H .rdata$CastGuardVftablesA DATA
 0002:00013280 00000000H .rdata$CastGuardVftablesC DATA
 0002:00013280 0000043cH .rdata$r                DATA
 0002:000136bc 00000464H .rdata$voltmd           DATA
 0002:00013b20 00000430H .rdata$zzzdbg           DATA
 0002:00013f50 00000008H .rtc$IAA                DATA
 0002:00013f58 00000008H .rtc$IZZ                DATA
 0002:00013f60 00000008H .rtc$TAA                DATA
 0002:00013f68 00000008H .rtc$TZZ                DATA
 0002:00013f70 000149b0H .xdata                  DATA
 0002:00028920 00000084H .xdata$x                DATA
 0002:000289a4 00000020H .didat$2                DATA
 0002:000289c4 00000024H .didat$3                DATA
 0002:000289e8 000000c0H .didat$4                DATA
 0002:00028aa8 000003f8H .didat$6                DATA
 0002:00028ea0 000000c0H .didat$7                DATA
 0002:00028f60 0000c310H .edata                  DATA
 0002:00035270 00000014H .idata$2                DATA
 0002:00035284 00000014H .idata$3                DATA
 0002:00035298 00000288H .idata$4                DATA
 0002:00035520 000005caH .idata$6                DATA
 0003:00000000 00001c40H .data                   DATA
 0003:00001c40 00001158H .data$r                 DATA
 0003:00002d98 000000f0H .data$rs                DATA
 0003:00002e88 000000c8H .didat$5                DATA
 0003:00002f50 000045dcH .bss                    DATA
 0004:00000000 0000c264H .pdata                  DATA
 0005:00000000 0000236cH _RDATA                  DATA
 0006:00000000 000000a0H .rsrc$01                DATA
 0006:000000a0 000004b0H .rsrc$02                DATA

  Address         Publics by Value              Rva+Base               Lib:Object

 0000:00000000       __AbsoluteZero             0000000000000000     <absolute>
 0000:00000000       ___safe_se_handler_count   0000000000000000     <absolute>
 0000:00000000       ___safe_se_handler_table   0000000000000000     <absolute>
 0000:00000000       __arm64x_extra_rfe_table   0000000000000000     <absolute>
 0000:00000000       __arm64x_extra_rfe_table_size 0000000000000000     <absolute>
 0000:00000000       __arm64x_native_entrypoint 0000000000000000     <absolute>
 0000:00000000       __arm64x_redirection_metadata 0000000000000000     <absolute>
 0000:00000000       __arm64x_redirection_metadata_count 0000000000000000     <absolute>
 0000:00000000       __dynamic_value_reloc_table 0000000000000000     <absolute>
 0000:00000000       __enclave_config           0000000000000000     <absolute>
 0000:00000000       __guard_check_icall_a64n_fptr 0000000000000000     <absolute>
 0000:00000000       __guard_eh_cont_count      0000000000000000     <absolute>
 0000:00000000       __guard_eh_cont_table      0000000000000000     <absolute>
 0000:00000000       __guard_fids_count         0000000000000000     <absolute>
 0000:00000000       __guard_fids_table         0000000000000000     <absolute>
 0000:00000000       __guard_iat_count          0000000000000000     <absolute>
 0000:00000000       __guard_iat_table          0000000000000000     <absolute>
 0000:00000000       __guard_longjmp_count      0000000000000000     <absolute>
 0000:00000000       __guard_longjmp_table      0000000000000000     <absolute>
 0000:00000000       __hybrid_auxiliary_delayload_iat 0000000000000000     <absolute>
 0000:00000000       __hybrid_auxiliary_delayload_iat_copy 0000000000000000     <absolute>
 0000:00000000       __hybrid_auxiliary_iat     0000000000000000     <absolute>
 0000:00000000       __hybrid_auxiliary_iat_copy 0000000000000000     <absolute>
 0000:00000000       __hybrid_code_map          0000000000000000     <absolute>
 0000:00000000       __hybrid_code_map_count    0000000000000000     <absolute>
 0000:00000000       __x64_code_ranges_to_entry_points 0000000000000000     <absolute>
 0000:00000000       __x64_code_ranges_to_entry_points_count 0000000000000000     <absolute>
 0000:00000100       __guard_flags              0000000000000100     <absolute>
 0000:00000000       __ImageBase                0000000180000000     <linker-defined>
 0001:000034d0       ??0PtrTable@Cm@physx@@QEAA@W4PxEMPTY@2@@Z 00000001800044d0 f i CmPtrTable.obj
 0001:000034f0       ??0PtrTable@Cm@physx@@QEAA@XZ 00000001800044f0 f   CmPtrTable.obj
 0001:00003500       ??1AABBTreeBuildNode@Gu@physx@@QEAA@XZ 0000000180004500 f   GuMeshFactory.obj
 0001:00003500       ??1BigConvexDataBuilder@physx@@QEAA@XZ 0000000180004500 f   GuCookingBigConvexDataBuilder.obj
 0001:00003500       ??1Box@Gu@physx@@QEAA@XZ   0000000180004500 f   GuBox.obj
 0001:00003500       ??1HeightFieldData@Gu@physx@@QEAA@XZ 0000000180004500 f   GuCCTSweepTests.obj
 0001:00003500       ??1PtrTable@Cm@physx@@QEAA@XZ 0000000180004500 f   CmPtrTable.obj
 0001:00003500       ?build@CompanionPrunerIncremental@@UEAAXXZ 0000000180004500 f   GuSecondaryPruner.obj
 0001:00003500       ?checkTreeLeaf@IncrementalAABBTree@Gu@physx@@QEAAXPEAVIncrementalAABBTreeNode@23@I@Z 0000000180004500 f   GuIncrementalAABBTree.obj
 0001:00003500       ?execute@?$PxThreadT@V?$PxReflectionAllocator@VPxThreadImpl@physx@@@physx@@@physx@@UEAAXXZ 0000000180004500 f   GuSDF.obj
 0001:00003500       ?execute@PxRunnable@physx@@UEAAXXZ 0000000180004500 f   GuSDF.obj
 0001:00003500       ?merge@BucketPruner@Gu@physx@@UEAAXPEBX@Z 0000000180004500 f   GuBucketPruner.obj
 0001:00003500       ?merge@IncrementalAABBPruner@Gu@physx@@UEAAXPEBX@Z 0000000180004500 f   GuIncrementalAABBPruner.obj
 0001:00003500       ?onMeshIndexFormatChange@TriangleMeshBuilder@physx@@UEAAXXZ 0000000180004500 f   GuCookingTriangleMesh.obj
 0001:00003500       ?profile@Callback@RTree@Gu@physx@@UEAAXXZ 0000000180004500 f   GuMidphaseRTree.obj
 0001:00003500       ?purge@BucketPruner@Gu@physx@@UEAAXXZ 0000000180004500 f   GuBucketPruner.obj
 0001:00003500       ?requiresObjects@ConvexMesh@Gu@physx@@UEAAXAEAVPxProcessPxBaseCallback@3@@Z 0000000180004500 f   GuConvexMesh.obj
 0001:00003500       ?requiresObjects@HeightField@Gu@physx@@UEAAXAEAVPxProcessPxBaseCallback@3@@Z 0000000180004500 f   GuHeightField.obj
 0001:00003500       ?requiresObjects@SoftBodyMesh@Gu@physx@@UEAAXAEAVPxProcessPxBaseCallback@3@@Z 0000000180004500 f   GuTetrahedronMesh.obj
 0001:00003500       ?requiresObjects@TriangleMesh@Gu@physx@@UEAAXAEAVPxProcessPxBaseCallback@3@@Z 0000000180004500 f   GuTriangleMesh.obj
 0001:00003500       ?swapIndex@CompanionPrunerAABBTree@@UEAAXII@Z 0000000180004500 f   GuSecondaryPruner.obj
 0001:00003500       ?swapIndex@CompanionPrunerBucket@@UEAAXII@Z 0000000180004500 f   GuSecondaryPruner.obj
 0001:00003500       ?timeStampChange@CompanionPrunerAABBTree@@UEAAXXZ 0000000180004500 f   GuSecondaryPruner.obj
 0001:00003500       ?timeStampChange@CompanionPrunerBucket@@UEAAXXZ 0000000180004500 f   GuSecondaryPruner.obj
 0001:00003500       ?visualize@BasePruner@Gu@physx@@UEBAXAEAVPxRenderOutput@3@II@Z 0000000180004500 f   GuIncrementalAABBPruner.obj
 0001:00003500       _guard_check_icall_nop     0000000180004500 f   LIBCMT:guard_support.obj
 0001:00003510       ??4AABBTreeBounds@Gu@physx@@QEAAAEAV012@AEBV012@@Z 0000000180004510 f i GuMeshFactory.obj
 0001:00003510       ??4CmModuleUpdateLoader@Cm@physx@@QEAAAEAV012@AEBV012@@Z 0000000180004510 f i CmWindowsModuleUpdateLoader.obj
 0001:00003510       ??4PtrTable@Cm@physx@@QEAAAEAU012@AEBU012@@Z 0000000180004510 f i CmPtrTable.obj
 0001:00003520       ?add@PtrTable@Cm@physx@@QEAAXPEAXAEAVPtrTableStorageManager@23@@Z 0000000180004520 f   CmPtrTable.obj
 0001:00003630       ?clear@PtrTable@Cm@physx@@QEAAXAEAVPtrTableStorageManager@23@@Z 0000000180004630 f   CmPtrTable.obj
 0001:000036a0       ?exportExtraData@PtrTable@Cm@physx@@QEAAXAEAVPxSerializationContext@3@@Z 00000001800046a0 f   CmPtrTable.obj
 0001:000036f0       ?find@PtrTable@Cm@physx@@QEBAIPEBX@Z 00000001800046f0 f   CmPtrTable.obj
 0001:00003720       ?getBinaryMetaData@PtrTable@Cm@physx@@SAXAEAVPxOutputStream@3@@Z 0000000180004720 f   CmPtrTable.obj
 0001:00003910       ?getCount@PtrTable@Cm@physx@@QEBAIXZ 0000000180004910 f i CmPtrTable.obj
 0001:00003920       ?getPtrs@PtrTable@Cm@physx@@QEAAPEAPEAXXZ 0000000180004920 f i CmPtrTable.obj
 0001:00003920       ?getPtrs@PtrTable@Cm@physx@@QEBAPEBQEAXXZ 0000000180004920 f i CmPtrTable.obj
 0001:00003930       ?importExtraData@PtrTable@Cm@physx@@QEAAXAEAVPxDeserializationContext@3@@Z 0000000180004930 f   CmPtrTable.obj
 0001:00003960       ?realloc@PtrTable@Cm@physx@@AEAAXIIAEAVPtrTableStorageManager@23@@Z 0000000180004960 f   CmPtrTable.obj
 0001:000039f0       ?replaceWithLast@PtrTable@Cm@physx@@QEAAXIAEAVPtrTableStorageManager@23@@Z 00000001800049f0 f   CmPtrTable.obj
 0001:00003af0       ??_ECollection@Cm@physx@@UEAAPEAXI@Z 0000000180004af0 f i CmCollection.obj
 0001:00003af0       ??_GCollection@Cm@physx@@UEAAPEAXI@Z 0000000180004af0 f i CmCollection.obj
 0001:00003ba0       ??_EPxCollection@physx@@MEAAPEAXI@Z 0000000180004ba0 f i CmCollection.obj
 0001:00003ba0       ??_GPxCollection@physx@@MEAAPEAXI@Z 0000000180004ba0 f i CmCollection.obj
 0001:00003bd0       ?add@Collection@Cm@physx@@UEAAXAEAVPxBase@3@_K@Z 0000000180004bd0 f   CmCollection.obj
 0001:00003cc0       ?add@Collection@Cm@physx@@UEAAXAEAVPxCollection@3@@Z 0000000180004cc0 f   CmCollection.obj
 0001:00003e60       ?addId@Collection@Cm@physx@@UEAAXAEAVPxBase@3@_K@Z 0000000180004e60 f   CmCollection.obj
 0001:00003f90       ?contains@Collection@Cm@physx@@UEBA_NAEAVPxBase@3@@Z 0000000180004f90 f   CmCollection.obj
 0001:00004040       ?create@?$PxHashBase@V?$PxPair@$$CB_KPEAVPxBase@physx@@@physx@@_KU?$PxHash@_K@2@UGetKey@?$PxHashMapBase@_KPEAVPxBase@physx@@U?$PxHash@_K@2@VPxAllocator@2@@2@VPxAllocator@2@$00@physx@@QEAAPEAV?$PxPair@$$CB_KPEAVPxBase@physx@@@2@AEB_KAEA_N@Z 0000000180005040 f i CmCollection.obj
 0001:00004040       ?create@?$PxHashBase@V?$PxPair@QEAVPxBase@physx@@_K@physx@@PEAVPxBase@2@U?$PxHash@PEAVPxBase@physx@@@2@UGetKey@?$PxHashMapBase@PEAVPxBase@physx@@_KU?$PxHash@PEAVPxBase@physx@@@2@VPxAllocator@2@@2@VPxAllocator@2@$00@physx@@QEAAPEAV?$PxPair@QEAVPxBase@physx@@_K@2@AEBQEAVPxBase@2@AEA_N@Z 0000000180005040 f i CmCollection.obj
 0001:000041d0       ?erase@?$PxHashBase@V?$PxPair@$$CB_KPEAVPxBase@physx@@@physx@@_KU?$PxHash@_K@2@UGetKey@?$PxHashMapBase@_KPEAVPxBase@physx@@U?$PxHash@_K@2@VPxAllocator@2@@2@VPxAllocator@2@$00@physx@@QEAA_NAEB_K@Z 00000001800051d0 f i CmCollection.obj
 0001:000041d0       ?erase@?$PxHashBase@V?$PxPair@QEAVPxBase@physx@@_K@physx@@PEAVPxBase@2@U?$PxHash@PEAVPxBase@physx@@@2@UGetKey@?$PxHashMapBase@PEAVPxBase@physx@@_KU?$PxHash@PEAVPxBase@physx@@@2@VPxAllocator@2@@2@VPxAllocator@2@$00@physx@@QEAA_NAEBQEAVPxBase@2@@Z 00000001800051d0 f i CmCollection.obj
 0001:00004380       ?find@?$PxHashMapBase@_KPEAVPxBase@physx@@U?$PxHash@_K@2@VPxAllocator@2@@physx@@QEBAPEBV?$PxPair@$$CB_KPEAVPxBase@physx@@@2@AEB_K@Z 0000000180005380 f i CmCollection.obj
 0001:00004420       ?find@Collection@Cm@physx@@UEBAPEAVPxBase@3@_K@Z 0000000180005420 f   CmCollection.obj
 0001:00004450       ?getId@Collection@Cm@physx@@UEBA_KAEBVPxBase@3@@Z 0000000180005450 f   CmCollection.obj
 0001:00004500       ?getIds@Collection@Cm@physx@@UEBAIPEA_KII@Z 0000000180005500 f   CmCollection.obj
 0001:000045d0       ?getNbIds@Collection@Cm@physx@@UEBAIXZ 00000001800055d0 f   CmCollection.obj
 0001:000045e0       ?getNbObjects@Collection@Cm@physx@@UEBAIXZ 00000001800055e0 f   CmCollection.obj
 0001:000045f0       ?getObject@Collection@Cm@physx@@UEBAAEAVPxBase@3@I@Z 00000001800055f0 f   CmCollection.obj
 0001:00004600       ?getObjects@Collection@Cm@physx@@UEBAIPEAPEAVPxBase@3@II@Z 0000000180005600 f   CmCollection.obj
 0001:00004640       ?release@Collection@Cm@physx@@UEAAXXZ 0000000180005640 f i CmCollection.obj
 0001:00004660       ?remove@Collection@Cm@physx@@UEAAXAEAVPxBase@3@@Z 0000000180005660 f   CmCollection.obj
 0001:00004750       ?remove@Collection@Cm@physx@@UEAAXAEAVPxCollection@3@@Z 0000000180005750 f   CmCollection.obj
 0001:00004860       ?removeId@Collection@Cm@physx@@UEAAX_K@Z 0000000180005860 f   CmCollection.obj
 0001:000048e0       ?reserveInternal@?$PxHashBase@V?$PxPair@$$CB_KPEAVPxBase@physx@@@physx@@_KU?$PxHash@_K@2@UGetKey@?$PxHashMapBase@_KPEAVPxBase@physx@@U?$PxHash@_K@2@VPxAllocator@2@@2@VPxAllocator@2@$00@physx@@AEAAXI@Z 00000001800058e0 f i CmCollection.obj
 0001:000048e0       ?reserveInternal@?$PxHashBase@V?$PxPair@QEAVPxBase@physx@@_K@physx@@PEAVPxBase@2@U?$PxHash@PEAVPxBase@physx@@@2@UGetKey@?$PxHashMapBase@PEAVPxBase@physx@@_KU?$PxHash@PEAVPxBase@physx@@@2@VPxAllocator@2@@2@VPxAllocator@2@$00@physx@@AEAAXI@Z 00000001800058e0 f i CmCollection.obj
 0001:00004ac0       PxCreateCollection         0000000180005ac0 f   CmCollection.obj
 0001:00004bb0       ??0RadixSort@Cm@physx@@QEAA@XZ 0000000180005bb0 f   CmRadixSort.obj
 0001:00004be0       ??0RadixSortBuffered@Cm@physx@@QEAA@XZ 0000000180005be0 f   CmRadixSort.obj
 0001:00004c10       ??1RadixSort@Cm@physx@@UEAA@XZ 0000000180005c10 f   CmRadixSort.obj
 0001:00004c20       ??1RadixSortBuffered@Cm@physx@@UEAA@XZ 0000000180005c20 f   CmRadixSort.obj
 0001:00004c50       ??_ERadixSort@Cm@physx@@UEAAPEAXI@Z 0000000180005c50 f i CmRadixSort.obj
 0001:00004ce0       ??_ERadixSortBuffered@Cm@physx@@UEAAPEAXI@Z 0000000180005ce0 f i CmRadixSort.obj
 0001:00004dd0       ?CheckResize@RadixSortBuffered@Cm@physx@@AEAAXI@Z 0000000180005dd0 f i CmRadixSort.obj
 0001:00004e10       ?GetNbHits@RadixSort@Cm@physx@@QEBAIXZ 0000000180005e10 f i CmRadixSort.obj
 0001:00004e20       ?GetNbTotalCalls@RadixSort@Cm@physx@@QEBAIXZ 0000000180005e20 f i CmRadixSort.obj
 0001:00004e30       ?GetRanks@RadixSort@Cm@physx@@QEBAPEBIXZ 0000000180005e30 f i CmRadixSort.obj
 0001:00004e30       ?getGridModelInvMass@SoftBodyAuxData@Gu@physx@@UEAAPEAMXZ 0000000180005e30 f i GuTetrahedronMesh.obj
 0001:00004e30       ?getHeightField@HeightFieldUtil@Gu@physx@@QEBAAEBVHeightField@23@XZ 0000000180005e30 f i GuCCTSweepTests.obj
 0001:00004e30       ?getSimulationMesh@SoftBodyMesh@Gu@physx@@UEAAPEAVPxTetrahedronMesh@3@XZ 0000000180005e30 f i GuTetrahedronMesh.obj
 0001:00004e30       ?getSimulationMesh@SoftBodyMesh@Gu@physx@@UEBAPEBVPxTetrahedronMesh@3@XZ 0000000180005e30 f i GuTetrahedronMesh.obj
 0001:00004e40       ?GetRecyclable@RadixSort@Cm@physx@@QEBAPEAIXZ 0000000180005e40 f i CmRadixSort.obj
 0001:00004e40       ?GetValencies@BigConvexData@physx@@QEBAPEBUValency@Gu@2@XZ 0000000180005e40 f i GuMetaData.obj
 0001:00004e40       ?getCollisionMesh@SoftBodyMesh@Gu@physx@@UEAAPEAVPxTetrahedronMesh@3@XZ 0000000180005e40 f i GuTetrahedronMesh.obj
 0001:00004e40       ?getCollisionMesh@SoftBodyMesh@Gu@physx@@UEBAPEBVPxTetrahedronMesh@3@XZ 0000000180005e40 f i GuTetrahedronMesh.obj
 0001:00004e40       ?getHeightFieldGeometry@HeightFieldUtil@Gu@physx@@QEBAAEBVPxHeightFieldGeometry@3@XZ 0000000180005e40 f i GuCCTSweepTests.obj
 0001:00004e40       ?getObjects@PruningPool@Gu@physx@@QEBAPEAUPrunerPayload@23@XZ 0000000180005e40 f i GuIncrementalAABBPrunerCore.obj
 0001:00004e40       ?getPos@AABBTreeBuildNode@Gu@physx@@QEBAPEBV123@XZ 0000000180005e40 f i GuMeshFactory.obj
 0001:00004e40       ?getVertices@TetrahedronMesh@Gu@physx@@UEBAPEBV?$PxVec3T@M@3@XZ 0000000180005e40 f i GuTetrahedronMesh.obj
 0001:00004e40       ?getVertices@TriangleMesh@Gu@physx@@UEBAPEBV?$PxVec3T@M@3@XZ 0000000180005e40 f i GuTriangleMesh.obj
 0001:00004e50       ?Resize@RadixSortBuffered@Cm@physx@@AEAA_NI@Z 0000000180005e50 f   CmRadixSort.obj
 0001:00004f50       ?SetBuffers@RadixSort@Cm@physx@@QEAA_NPEAI00PEAPEAI@Z 0000000180005f50 f   CmRadixSort.obj
 0001:00004f90       ?Sort@RadixSort@Cm@physx@@QEAAAEAV123@PEBIIW4RadixHint@23@@Z 0000000180005f90 f   CmRadixSort.obj
 0001:00005640       ?Sort@RadixSort@Cm@physx@@QEAAAEAV123@PEBMI@Z 0000000180006640 f   CmRadixSort.obj
 0001:00005de0       ?Sort@RadixSortBuffered@Cm@physx@@QEAAAEAV123@PEBIIW4RadixHint@23@@Z 0000000180006de0 f   CmRadixSort.obj
 0001:00005e80       ?Sort@RadixSortBuffered@Cm@physx@@QEAAAEAV123@PEBMI@Z 0000000180006e80 f   CmRadixSort.obj
 0001:00005f10       ?invalidateRanks@RadixSort@Cm@physx@@QEAAXXZ 0000000180006f10 f i CmRadixSort.obj
 0001:00005f20       ?reset@RadixSortBuffered@Cm@physx@@QEAAXXZ 0000000180006f20 f   CmRadixSort.obj
 0001:00005fa0       ?ReadHeader@Cm@physx@@YA_NEEEEAEAIAEA_NAEAVPxInputStream@2@@Z 0000000180006fa0 f   CmSerialize.obj
 0001:00006100       ?ReadIndices@Cm@physx@@YAXGIPEAGAEAVPxInputStream@2@_N@Z 0000000180007100 f   CmSerialize.obj
 0001:00006290       ?StoreIndices@Cm@physx@@YAXGIPEBGAEAVPxOutputStream@2@_N@Z 0000000180007290 f   CmSerialize.obj
 0001:00006380       ?WriteHeader@Cm@physx@@YA_NEEEEI_NAEAVPxOutputStream@2@@Z 0000000180007380 f   CmSerialize.obj
 0001:000064b0       ?computeMaxIndex@physx@@YAGPEBGI@Z 00000001800074b0 f   CmSerialize.obj
 0001:000064e0       ?computeMaxIndex@physx@@YAIPEBII@Z 00000001800074e0 f   CmSerialize.obj
 0001:00006510       ?readByteBuffer@physx@@YAXPEAEIAEAVPxInputStream@1@@Z 0000000180007510 f   CmSerialize.obj
 0001:00006510       ?writeByteBuffer@physx@@YAXPEBEIAEAVPxOutputStream@1@@Z 0000000180007510 f   CmSerialize.obj
 0001:00006530       ?readChunk@physx@@YAXAEAC000AEAVPxInputStream@1@@Z 0000000180007530 f   CmSerialize.obj
 0001:000065b0       ?readDword@physx@@YAI_NAEAVPxInputStream@1@@Z 00000001800075b0 f   CmSerialize.obj
 0001:00006610       ?readFloat@physx@@YAM_NAEAVPxInputStream@1@@Z 0000000180007610 f   CmSerialize.obj
 0001:00006670       ?readFloatBuffer@physx@@YA_NPEAMI_NAEAVPxInputStream@1@@Z 0000000180007670 f   CmSerialize.obj
 0001:000066f0       ?readHeader@physx@@YA_NCCCCAEAIAEA_NAEAVPxInputStream@1@@Z 00000001800076f0 f   CmSerialize.obj
 0001:00006840       ?readIndices@physx@@YAXIIPEAIAEAVPxInputStream@1@_N@Z 0000000180007840 f   CmSerialize.obj
 0001:00006970       ?readWord@physx@@YAG_NAEAVPxInputStream@1@@Z 0000000180007970 f   CmSerialize.obj
 0001:000069b0       ?readWordBuffer@physx@@YAXPEAGI_NAEAVPxInputStream@1@@Z 00000001800079b0 f   CmSerialize.obj
 0001:00006a20       ?storeIndices@physx@@YAXIIPEBIAEAVPxOutputStream@1@_N@Z 0000000180007a20 f   CmSerialize.obj
 0001:00006bb0       ?writeDword@physx@@YAXI_NAEAVPxOutputStream@1@@Z 0000000180007bb0 f   CmSerialize.obj
 0001:00006c00       ?writeFloat@physx@@YAXM_NAEAVPxOutputStream@1@@Z 0000000180007c00 f   CmSerialize.obj
 0001:00006c50       ?writeFloatBuffer@physx@@YAXPEBMI_NAEAVPxOutputStream@1@@Z 0000000180007c50 f   CmSerialize.obj
 0001:00006cf0       ?writeHeader@physx@@YA_NCCCCI_NAEAVPxOutputStream@1@@Z 0000000180007cf0 f   CmSerialize.obj
 0001:00006e20       ?writeWord@physx@@YAXG_NAEAVPxOutputStream@1@@Z 0000000180007e20 f   CmSerialize.obj
 0001:00006e60       ?writeWordBuffer@physx@@YAXPEBGI_NAEAVPxOutputStream@1@@Z 0000000180007e60 f   CmSerialize.obj
 0001:00006ee0       ??6PxRenderOutput@physx@@QEAAAEAV01@AEBV?$PxTransformT@M@1@@Z 0000000180007ee0 f i CmVisualization.obj
 0001:00007060       ??6PxRenderOutput@physx@@QEAAAEAV01@AEBV?$PxVec3T@M@1@@Z 0000000180008060 f i CmVisualization.obj
 0001:00007350       ?renderOutputDebugArrow@Cm@physx@@YAXAEAVPxRenderOutput@2@AEBUPxDebugArrow@2@@Z 0000000180008350 f   CmVisualization.obj
 0001:000076f0       ?renderOutputDebugBasis@Cm@physx@@YAXAEAVPxRenderOutput@2@AEBUPxDebugBasis@2@@Z 00000001800086f0 f   CmVisualization.obj
 0001:00007c80       ?renderOutputDebugBox@Cm@physx@@YAXAEAVPxRenderOutput@2@AEBVPxBounds3@2@@Z 0000000180008c80 f   CmVisualization.obj
 0001:00007ef0       ?renderOutputDebugCircle@Cm@physx@@YAXAEAVPxRenderOutput@2@IM@Z 0000000180008ef0 f   CmVisualization.obj
 0001:00007fd0       ?visualizeAngularLimit@Cm@physx@@YAXAEAVPxRenderOutput@2@MAEBV?$PxTransformT@M@2@MM@Z 0000000180008fd0 f   CmVisualization.obj
 0001:00008160       ?visualizeDoubleCone@Cm@physx@@YAXAEAVPxRenderOutput@2@MAEBV?$PxTransformT@M@2@M@Z 0000000180009160 f   CmVisualization.obj
 0001:00008380       ?visualizeJointFrames@Cm@physx@@YAXAEAVPxRenderOutput@2@MAEBV?$PxTransformT@M@2@1@Z 0000000180009380 f   CmVisualization.obj
 0001:00008e80       ?visualizeLimitCone@Cm@physx@@YAXAEAVPxRenderOutput@2@MAEBV?$PxTransformT@M@2@MM@Z 0000000180009e80 f   CmVisualization.obj
 0001:000090b0       ?visualizeLinearLimit@Cm@physx@@YAXAEAVPxRenderOutput@2@MAEBV?$PxTransformT@M@2@1M@Z 000000018000a0b0 f   CmVisualization.obj
 0001:000096a0       ??0CmModuleUpdateLoader@Cm@physx@@QEAA@PEBD@Z 000000018000a6a0 f   CmWindowsModuleUpdateLoader.obj
 0001:000096e0       ??1CmModuleUpdateLoader@Cm@physx@@QEAA@XZ 000000018000a6e0 f   CmWindowsModuleUpdateLoader.obj
 0001:00009710       ?LoadModule@CmModuleUpdateLoader@Cm@physx@@QEAAPEAUHINSTANCE__@@PEBD0@Z 000000018000a710 f   CmWindowsModuleUpdateLoader.obj
 0001:00009780       __local_stdio_printf_options 000000018000a780 f i CmWindowsModuleUpdateLoader.obj
 0001:00009790       printf                     000000018000a790 f i CmWindowsModuleUpdateLoader.obj
 0001:000097f0       ?commonDelayHook@@YAP6A_JXZIPEAUDelayLoadInfo@@@Z 000000018000a7f0 f   CmWindowsDelayLoadHook.obj
 0001:000098d0       PxSetPhysXCommonDelayLoadHook 000000018000a8d0 f   CmWindowsDelayLoadHook.obj
 0001:000098e0       ??0?$PxQuatT@M@physx@@QEAA@AEBV?$PxMat33T@M@1@@Z 000000018000a8e0 f i GuBox.obj
 0001:00009ae0       ??0Box@Gu@physx@@QEAA@AEBV012@@Z 000000018000aae0 f i GuBox.obj
 0001:00009ae0       ??4Box@Gu@physx@@QEAAAEBV012@AEBV012@@Z 000000018000aae0 f i GuBox.obj
 0001:00009b40       ??0Box@Gu@physx@@QEAA@AEBV?$PxVec3T@M@2@0AEBV?$PxMat33T@M@2@@Z 000000018000ab40 f i GuBox.obj
 0001:00009bb0       ??0AABBTreeBuildNode@Gu@physx@@QEAA@XZ 000000018000abb0 f i GuMeshFactory.obj
 0001:00009bb0       ??0BigConvexData@physx@@QEAA@W4PxEMPTY@1@@Z 000000018000abb0 f i GuMetaData.obj
 0001:00009bb0       ??0Box@Gu@physx@@QEAA@XZ   000000018000abb0 f i GuBox.obj
 0001:00009bb0       ??0HeightFieldData@Gu@physx@@QEAA@W4PxEMPTY@2@@Z 000000018000abb0 f i GuCCTSweepTests.obj
 0001:00009bb0       ?getAABB@AABBTreeBuildNode@Gu@physx@@QEBAAEBVPxBounds3@3@XZ 000000018000abb0 f i GuMeshFactory.obj
 0001:00009bb0       ?getPaddedBounds@HeightFieldData@Gu@physx@@QEBAAEBVCenterExtentsPadded@23@XZ 000000018000abb0 f i GuCCTSweepTests.obj
 0001:00009bc0       ?computeAABBExtent@Box@Gu@physx@@QEBA?AV?$PxVec3T@M@3@XZ 000000018000abc0 f i GuBox.obj
 0001:00009c80       ?computeBoxPoints@Box@Gu@physx@@QEBAXPEIAV?$PxVec3T@M@3@@Z 000000018000ac80 f i GuBox.obj
 0001:00009cc0       ?computeOBBPoints@Gu@physx@@YAXPEIAV?$PxVec3T@M@2@AEBV32@1111@Z 000000018000acc0 f   GuBox.obj
 0001:00009f40       ?create@Box@Gu@physx@@QEAAXAEBVCapsule@23@@Z 000000018000af40 f   GuBox.obj
 0001:0000a170       ?getBoxEdges@Gu@physx@@YAPEBEXZ 000000018000b170 f   GuBox.obj
 0001:0000a180       ?getTransform@Box@Gu@physx@@QEBA?AV?$PxTransformT@M@3@XZ 000000018000b180 f i GuBox.obj
 0001:0000a1e0       ?isValid@Box@Gu@physx@@QEBA_NXZ 000000018000b1e0 f i GuBox.obj
 0001:0000a200       ?rotate@Box@Gu@physx@@QEBA?AV?$PxVec3T@M@3@AEBV43@@Z 000000018000b200 f i GuBox.obj
 0001:0000a290       ?rotateInv@Box@Gu@physx@@QEBA?AV?$PxVec3T@M@3@AEBV43@@Z 000000018000b290 f i GuBox.obj
 0001:0000a320       ?setAxes@Box@Gu@physx@@QEAAXAEBV?$PxVec3T@M@3@00@Z 000000018000b320 f i GuBox.obj
 0001:0000a360       ?setEmpty@Box@Gu@physx@@QEAAXXZ 000000018000b360 f i GuBox.obj
 0001:0000a3a0       ?transform@Box@Gu@physx@@QEBA?AV?$PxVec3T@M@3@AEBV43@@Z 000000018000b3a0 f i GuBox.obj
 0001:0000a440       ?PxComputeBasisVectors@physx@@YAXAEBV?$PxVec3T@M@1@0AEAV21@11@Z 000000018000b440 f i GuCapsule.obj
 0001:0000a5e0       ?computeBoxAroundCapsule@Gu@physx@@YAXAEBVCapsule@12@AEAVBox@12@@Z 000000018000b5e0 f   GuCapsule.obj
 0001:0000a730       ??0HeightFieldData@Gu@physx@@QEAA@$$QEAU012@@Z 000000018000b730 f i GuCCTSweepTests.obj
 0001:0000a730       ??0HeightFieldData@Gu@physx@@QEAA@AEBU012@@Z 000000018000b730 f i GuCCTSweepTests.obj
 0001:0000a730       ??4HeightFieldData@Gu@physx@@QEAAAEAU012@$$QEAU012@@Z 000000018000b730 f i GuCCTSweepTests.obj
 0001:0000a730       ??4HeightFieldData@Gu@physx@@QEAAAEAU012@AEBU012@@Z 000000018000b730 f i GuCCTSweepTests.obj
 0001:0000a790       ??0HeightFieldData@Gu@physx@@QEAA@XZ 000000018000b790 f i GuCCTSweepTests.obj
 0001:0000a7a0       ??0HeightFieldTraceUtil@Gu@physx@@QEAA@AEBVPxHeightFieldGeometry@2@@Z 000000018000b7a0 f i GuCCTSweepTests.obj
 0001:0000a7a0       ??0HeightFieldUtil@Gu@physx@@QEAA@AEBVPxHeightFieldGeometry@2@@Z 000000018000b7a0 f i GuCCTSweepTests.obj
 0001:0000a7e0       ??4AABBTreeBuildParams@Gu@physx@@QEAAAEAV012@AEBV012@@Z 000000018000b7e0 f i GuMeshFactory.obj
 0001:0000a7e0       ??4HeightFieldTraceUtil@Gu@physx@@QEAAAEAV012@$$QEAV012@@Z 000000018000b7e0 f i GuCCTSweepTests.obj
 0001:0000a7e0       ??4HeightFieldTraceUtil@Gu@physx@@QEAAAEAV012@AEBV012@@Z 000000018000b7e0 f i GuCCTSweepTests.obj
 0001:0000a7e0       ??4HeightFieldUtil@Gu@physx@@QEAAAEAV012@AEBV012@@Z 000000018000b7e0 f i GuCCTSweepTests.obj
 0001:0000a800       ??4HeightFieldUtil@Gu@physx@@QEAAAEAV012@$$QEAV012@@Z 000000018000b800 f i GuCCTSweepTests.obj
 0001:0000a860       ??_EEntityReport@Gu@physx@@UEAAPEAXI@Z 000000018000b860 f i GuSweepsHF.obj
 0001:0000a860       ??_EOverlapCallback@PxBVH@physx@@UEAAPEAXI@Z 000000018000b860 f i GuQuerySystem.obj
 0001:0000a860       ??_EOverlapReport@Gu@physx@@UEAAPEAXI@Z 000000018000b860 f i GuCCTSweepTests.obj
 0001:0000a860       ??_ERaycastCallback@PxBVH@physx@@UEAAPEAXI@Z 000000018000b860 f i GuQuerySystem.obj
 0001:0000a860       ??_ERemapCallback@RTreeCooker@physx@@UEAAPEAXI@Z 000000018000b860 f i GuCookingTriangleMesh.obj
 0001:0000a860       ??_GEntityReport@Gu@physx@@UEAAPEAXI@Z 000000018000b860 f i GuSweepsHF.obj
 0001:0000a860       ??_GOverlapCallback@PxBVH@physx@@UEAAPEAXI@Z 000000018000b860 f i GuQuerySystem.obj
 0001:0000a860       ??_GOverlapReport@Gu@physx@@UEAAPEAXI@Z 000000018000b860 f i GuCCTSweepTests.obj
 0001:0000a860       ??_GRaycastCallback@PxBVH@physx@@UEAAPEAXI@Z 000000018000b860 f i GuQuerySystem.obj
 0001:0000a860       ??_GRemapCallback@RTreeCooker@physx@@UEAAPEAXI@Z 000000018000b860 f i GuCookingTriangleMesh.obj
 0001:0000a890       ??_H@YAXPEAX_K1P6APEAX0@Z@Z 000000018000b890 f i GuCCTSweepTests.obj
 0001:0000a8e0       ?ceilUp@HeightFieldTraceUtil@Gu@physx@@SAMM@Z 000000018000b8e0 f i GuCCTSweepTests.obj
 0001:0000a920       ?floorDown@HeightFieldTraceUtil@Gu@physx@@SAMM@Z 000000018000b920 f i GuCCTSweepTests.obj
 0001:0000a960       ?getHeightAtShapePoint@HeightFieldUtil@Gu@physx@@QEBAMMM@Z 000000018000b960 f i GuCCTSweepTests.obj
 0001:0000a9c0       ?getHeightInternal2@HeightField@Gu@physx@@QEBAMIMM@Z 000000018000b9c0 f i GuCCTSweepTests.obj
 0001:0000ab30       ?getNormalAtShapePoint@HeightFieldUtil@Gu@physx@@QEBA?AV?$PxVec3T@M@3@MM@Z 000000018000bb30 f i GuCCTSweepTests.obj
 0001:0000abf0       ?getNormal_2@HeightField@Gu@physx@@QEBA?AV?$PxVec3T@M@3@IMMMMM@Z 000000018000bbf0 f i GuCCTSweepTests.obj
 0001:0000ad10       ?getOneOverColumnScale@HeightFieldUtil@Gu@physx@@QEBAMXZ 000000018000bd10 f i GuCCTSweepTests.obj
 0001:0000ad20       ?getOneOverHeightScale@HeightFieldUtil@Gu@physx@@QEBAMXZ 000000018000bd20 f i GuCCTSweepTests.obj
 0001:0000ad30       ?getOneOverRowScale@HeightFieldUtil@Gu@physx@@QEBAMXZ 000000018000bd30 f i GuCCTSweepTests.obj
 0001:0000ad40       ?hf2shapen@HeightFieldUtil@Gu@physx@@QEBA?AV?$PxVec3T@M@3@AEBV43@@Z 000000018000bd40 f i GuCCTSweepTests.obj
 0001:0000ad40       ?shape2hfp@HeightFieldUtil@Gu@physx@@QEBA?AV?$PxVec3T@M@3@AEBV43@@Z 000000018000bd40 f i GuCCTSweepTests.obj
 0001:0000ad80       ?hf2shapep@HeightFieldUtil@Gu@physx@@QEBA?AV?$PxVec3T@M@3@AEBV43@@Z 000000018000bd80 f i GuCCTSweepTests.obj
 0001:0000adc0       ?hf2worldn@HeightFieldUtil@Gu@physx@@QEBA?AV?$PxVec3T@M@3@AEBV?$PxTransformT@M@3@AEBV43@@Z 000000018000bdc0 f i GuCCTSweepTests.obj
 0001:0000af30       ?hf2worldp@HeightFieldUtil@Gu@physx@@QEBA?AV?$PxVec3T@M@3@AEBV?$PxTransformT@M@3@AEBV43@@Z 000000018000bf30 f i GuCCTSweepTests.obj
 0001:0000b0b0       ?overlapAABBTriangles0to1@HeightFieldUtil@Gu@physx@@QEBAXAEBV?$PxTransformT@M@3@AEBVPxBounds3@3@AEAVOverlapReport@23@I@Z 000000018000c0b0 f i GuCCTSweepTests.obj
 0001:0000b450       ?overlapAABBTriangles@HeightFieldUtil@Gu@physx@@QEBAXAEBV?$PxTransformT@M@3@0AEBVPxBounds3@3@AEAVOverlapReport@23@I@Z 000000018000c450 f i GuCCTSweepTests.obj
 0001:0000ba70       ?overlapAABBTriangles@HeightFieldUtil@Gu@physx@@QEBAXAEBV?$PxTransformT@M@3@AEBVPxBounds3@3@AEAVOverlapReport@23@I@Z 000000018000ca70 f i GuCCTSweepTests.obj
 0001:0000c150       ?sweepBoxTriangles_Precise@Gu@physx@@YA_NIPEBVPxTriangle@2@_NAEBVPxBoxGeometry@2@AEBV?$PxTransformT@M@2@AEBV?$PxVec3T@M@2@MAEAUPxGeomSweepHit@2@PEBIMV?$PxFlags@W4Enum@PxHitFlag@physx@@G@2@@Z 000000018000d150 f   GuCCTSweepTests.obj
 0001:0000ced0       ?sweepBox_BoxGeom_Precise@@YA_NAEBVPxGeometry@physx@@AEBV?$PxTransformT@M@2@AEBVPxBoxGeometry@2@1AEBVBox@Gu@2@AEBV?$PxVec3T@M@2@MAEAUPxGeomSweepHit@2@V?$PxFlags@W4Enum@PxHitFlag@physx@@G@2@MPEAUPxQueryThreadContext@2@@Z 000000018000ded0 f   GuCCTSweepTests.obj
 0001:0000d090       ?sweepBox_CapsuleGeom_Precise@@YA_NAEBVPxGeometry@physx@@AEBV?$PxTransformT@M@2@AEBVPxBoxGeometry@2@1AEBVBox@Gu@2@AEBV?$PxVec3T@M@2@MAEAUPxGeomSweepHit@2@V?$PxFlags@W4Enum@PxHitFlag@physx@@G@2@MPEAUPxQueryThreadContext@2@@Z 000000018000e090 f   GuCCTSweepTests.obj
 0001:0000d460       ?sweepBox_HeightFieldGeom_Precise@@YA_NAEBVPxGeometry@physx@@AEBV?$PxTransformT@M@2@AEBVPxBoxGeometry@2@1AEBVBox@Gu@2@AEBV?$PxVec3T@M@2@MAEAUPxGeomSweepHit@2@V?$PxFlags@W4Enum@PxHitFlag@physx@@G@2@MPEAUPxQueryThreadContext@2@@Z 000000018000e460 f   GuCCTSweepTests.obj
 0001:0000dc80       ?sweepBox_SphereGeom_Precise@@YA_NAEBVPxGeometry@physx@@AEBV?$PxTransformT@M@2@AEBVPxBoxGeometry@2@1AEBVBox@Gu@2@AEBV?$PxVec3T@M@2@MAEAUPxGeomSweepHit@2@V?$PxFlags@W4Enum@PxHitFlag@physx@@G@2@MPEAUPxQueryThreadContext@2@@Z 000000018000ec80 f   GuCCTSweepTests.obj
 0001:0000df60       ?sweepCapsule_BoxGeom_Precise@@YA_NAEBVPxGeometry@physx@@AEBV?$PxTransformT@M@2@AEBVPxCapsuleGeometry@2@1AEBVCapsule@Gu@2@AEBV?$PxVec3T@M@2@MAEAUPxGeomSweepHit@2@V?$PxFlags@W4Enum@PxHitFlag@physx@@G@2@MPEAUPxQueryThreadContext@2@@Z 000000018000ef60 f   GuCCTSweepTests.obj
 0001:0000e5f0       ??0?$CacheMap@UCachedEdge@Gu@physx@@$0IA@@Gu@physx@@QEAA@XZ 000000018000f5f0 f i GuGeometryQuery.obj
 0001:0000e6b0       ??0?$CacheMap@UCachedVertex@Gu@physx@@$0IA@@Gu@physx@@QEAA@XZ 000000018000f6b0 f i GuGeometryQuery.obj
 0001:0000e770       ??0MultiplePersistentContactManifold@Gu@physx@@QEAA@XZ 000000018000f770 f i GuGeometryQuery.obj
 0001:0000e7d0       ??0PCMMeshContactGeneration@Gu@physx@@QEAA@AEBT__m128@@0AEBVPxTransformV@aos@2@1AEAVMultiplePersistentContactManifold@12@AEAVPxContactBuffer@2@PEAV?$PxInlineArray@I$0DMA@V?$PxReflectionAllocator@I@physx@@@2@PEAVPxRenderOutput@2@@Z 000000018000f7d0 f i GuGeometryQuery.obj
 0001:0000f100       ??0PolygonalBox@Gu@physx@@QEAA@AEBV012@@Z 0000000180010100 f i GuGeometryQuery.obj
 0001:0000f380       ??4MultiplePersistentContactManifold@Gu@physx@@QEAAAEAV012@$$QEAV012@@Z 0000000180010380 f i GuGeometryQuery.obj
 0001:0000f690       ??4MultiplePersistentContactManifold@Gu@physx@@QEAAAEAV012@AEBV012@@Z 0000000180010690 f i GuGeometryQuery.obj
 0001:0000f6b0       ??_E?$SupportLocalImpl@VBoxV@Gu@physx@@@Gu@physx@@UEAAPEAXI@Z 00000001800106b0 f i GuGeometryQuery.obj
 0001:0000f6b0       ??_E?$SupportLocalImpl@VConvexHullNoScaleV@Gu@physx@@@Gu@physx@@UEAAPEAXI@Z 00000001800106b0 f i GuMTD.obj
 0001:0000f6b0       ??_E?$SupportLocalImpl@VConvexHullV@Gu@physx@@@Gu@physx@@UEAAPEAXI@Z 00000001800106b0 f i GuGeometryQuery.obj
 0001:0000f6b0       ??_E?$SupportLocalImpl@VTriangleV@Gu@physx@@@Gu@physx@@UEAAPEAXI@Z 00000001800106b0 f i GuPCMContactConvexCommon.obj
 0001:0000f6b0       ??_G?$SupportLocalImpl@VBoxV@Gu@physx@@@Gu@physx@@UEAAPEAXI@Z 00000001800106b0 f i GuGeometryQuery.obj
 0001:0000f6b0       ??_G?$SupportLocalImpl@VConvexHullNoScaleV@Gu@physx@@@Gu@physx@@UEAAPEAXI@Z 00000001800106b0 f i GuMTD.obj
 0001:0000f6b0       ??_G?$SupportLocalImpl@VConvexHullV@Gu@physx@@@Gu@physx@@UEAAPEAXI@Z 00000001800106b0 f i GuGeometryQuery.obj
 0001:0000f6b0       ??_G?$SupportLocalImpl@VTriangleV@Gu@physx@@@Gu@physx@@UEAAPEAXI@Z 00000001800106b0 f i GuPCMContactConvexCommon.obj
 0001:0000f6e0       ??_ESupportLocal@Gu@physx@@UEAAPEAXI@Z 00000001800106e0 f i GuGeometryQuery.obj
 0001:0000f6e0       ??_GSupportLocal@Gu@physx@@UEAAPEAXI@Z 00000001800106e0 f i GuGeometryQuery.obj
 0001:0000f710       ?clearManifold@MultiplePersistentContactManifold@Gu@physx@@QEAAXXZ 0000000180010710 f i GuGeometryQuery.obj
 0001:0000f770       ?computeGeomBounds@PxGeometryQuery@physx@@SAXAEAVPxBounds3@2@AEBVPxGeometry@2@AEBV?$PxTransformT@M@2@MMV?$PxFlags@W4Enum@PxGeometryQueryFlag@physx@@I@2@@Z 0000000180010770 f   GuGeometryQuery.obj
 0001:0000f7f0       ?computePenetration@PxGeometryQuery@physx@@SA_NAEAV?$PxVec3T@M@2@AEAMAEBVPxGeometry@2@AEBV?$PxTransformT@M@2@23V?$PxFlags@W4Enum@PxGeometryQueryFlag@physx@@I@2@@Z 00000001800107f0 f   GuGeometryQuery.obj
 0001:0000f970       ?doSupport@?$SupportLocalImpl@VBoxV@Gu@physx@@@Gu@physx@@UEBA?AT__m128@@AEBT4@@Z 0000000180010970 f i GuGeometryQuery.obj
 0001:0000f9a0       ?doSupport@?$SupportLocalImpl@VBoxV@Gu@physx@@@Gu@physx@@UEBAXAEBT__m128@@AEAT4@1@Z 00000001800109a0 f i GuGeometryQuery.obj
 0001:0000f9f0       ?doSupport@?$SupportLocalImpl@VConvexHullV@Gu@physx@@@Gu@physx@@UEBA?AT__m128@@AEBT4@@Z 00000001800109f0 f i GuGeometryQuery.obj
 0001:0000fad0       ?doSupport@?$SupportLocalImpl@VConvexHullV@Gu@physx@@@Gu@physx@@UEBAXAEBT__m128@@AEAT4@1@Z 0000000180010ad0 f i GuGeometryQuery.obj
 0001:0000fe30       ?generateTriangleContacts@PxGeometryQuery@physx@@SA_NAEBVPxGeometry@2@AEBV?$PxTransformT@M@2@QEBV?$PxVec3T@M@2@IMMMAEAVPxContactBuffer@2@@Z 0000000180010e30 f   GuGeometryQuery.obj
 0001:000117d0       ?getEmptyManifold@MultiplePersistentContactManifold@Gu@physx@@QEAAPEAVSinglePersistentContactManifold@23@XZ 00000001800127d0 f i GuGeometryQuery.obj
 0001:000117f0       ?getManifold@MultiplePersistentContactManifold@Gu@physx@@QEAAPEAVSinglePersistentContactManifold@23@I@Z 00000001800127f0 f i GuGeometryQuery.obj
 0001:00011810       ?getUniqueID@PxCustomGeometry@physx@@SAIXZ 0000000180012810 f   GuGeometryQuery.obj
 0001:00011830       ?hillClimbing@ConvexHullV@Gu@physx@@QEBAIAEBT__m128@@@Z 0000000180012830 f i GuGeometryQuery.obj
 0001:00011a60       ?initialize@MultiplePersistentContactManifold@Gu@physx@@QEAAXXZ 0000000180012a60 f i GuGeometryQuery.obj
 0001:00011ac0       ?invalidate@MultiplePersistentContactManifold@Gu@physx@@QEAAIAEBVPxTransformV@aos@3@AEBT__m128@@1@Z 0000000180012ac0 f i GuGeometryQuery.obj
 0001:00011b30       ?invalidate@MultiplePersistentContactManifold@Gu@physx@@QEAAIAEBVPxTransformV@aos@3@AEBT__m128@@@Z 0000000180012b30 f i GuGeometryQuery.obj
 0001:00011ba0       ?isUnit@?$PxQuatT@M@physx@@QEBA_NXZ 0000000180012ba0 f i GuGeometryQuery.obj
 0001:00011c60       ?isValid@PxGeometryQuery@physx@@SA_NAEBVPxGeometry@2@@Z 0000000180012c60 f   GuGeometryQuery.obj
 0001:00011f50       ?maxTransformPositionDelta@MultiplePersistentContactManifold@Gu@physx@@QEAA?AT__m128@@AEBT4@@Z 0000000180012f50 f i GuGeometryQuery.obj
 0001:00011f90       ?maxTransformQuatDelta@MultiplePersistentContactManifold@Gu@physx@@QEAA?AT__m128@@AEBT4@@Z 0000000180012f90 f i GuGeometryQuery.obj
 0001:00011fd0       ?overlap@PxGeometryQuery@physx@@SA_NAEBVPxGeometry@2@AEBV?$PxTransformT@M@2@01V?$PxFlags@W4Enum@PxGeometryQueryFlag@physx@@I@2@PEAUPxQueryThreadContext@2@@Z 0000000180012fd0 f   GuGeometryQuery.obj
 0001:000120a0       ?pointDistance@PxGeometryQuery@physx@@SAMAEBV?$PxVec3T@M@2@AEBVPxGeometry@2@AEBV?$PxTransformT@M@2@PEAV32@PEAIV?$PxFlags@W4Enum@PxGeometryQueryFlag@physx@@I@2@@Z 00000001800130a0 f   GuGeometryQuery.obj
 0001:00012830       ?populateVerts@?$SupportLocalImpl@VBoxV@Gu@physx@@@Gu@physx@@UEBAXPEBEIPEBV?$PxVec3T@M@3@PEAT__m128@@@Z 0000000180013830 f i GuGeometryQuery.obj
 0001:00012870       ?populateVerts@?$SupportLocalImpl@VConvexHullV@Gu@physx@@@Gu@physx@@UEBAXPEBEIPEBV?$PxVec3T@M@3@PEAT__m128@@@Z 0000000180013870 f i GuGeometryQuery.obj
 0001:000128d0       ?raycast@PxGeometryQuery@physx@@SAIAEBV?$PxVec3T@M@2@0AEBVPxGeometry@2@AEBV?$PxTransformT@M@2@MV?$PxFlags@W4Enum@PxHitFlag@physx@@G@2@IPEIAUPxGeomRaycastHit@2@IV?$PxFlags@W4Enum@PxGeometryQueryFlag@physx@@I@2@PEAUPxQueryThreadContext@2@@Z 00000001800138d0 f   GuGeometryQuery.obj
 0001:000129d0       ?reduceManifoldContactsInDifferentPatches@MultiplePersistentContactManifold@Gu@physx@@QEAAIPEAPEAUPCMContactPatch@23@IPEAVMeshPersistentContact@23@IAEBT__m128@@@Z 00000001800139d0 f i GuGeometryQuery.obj
 0001:00012b40       ?refineContactPatchConnective@MultiplePersistentContactManifold@Gu@physx@@QEAAXPEAPEAUPCMContactPatch@23@IPEAVMeshPersistentContact@23@AEBT__m128@@@Z 0000000180013b40 f i GuGeometryQuery.obj
 0001:00012c30       ?refreshManifold@MultiplePersistentContactManifold@Gu@physx@@QEAAXAEBVPxMatTransformV@aos@3@AEBT__m128@@1@Z 0000000180013c30 f i GuGeometryQuery.obj
 0001:00012d30       ?setRelativeTransform@MultiplePersistentContactManifold@Gu@physx@@QEAAXAEBVPxTransformV@aos@3@@Z 0000000180013d30 f i GuGeometryQuery.obj
 0001:00012d40       ?supportVertexIndex@ConvexHullV@Gu@physx@@QEBAIAEBT__m128@@@Z 0000000180013d40 f i GuGeometryQuery.obj
 0001:00012fc0       ?sweep@PxGeometryQuery@physx@@SA_NAEBV?$PxVec3T@M@2@MAEBVPxGeometry@2@AEBV?$PxTransformT@M@2@12AEAUPxGeomSweepHit@2@V?$PxFlags@W4Enum@PxHitFlag@physx@@G@2@MV?$PxFlags@W4Enum@PxGeometryQueryFlag@physx@@I@2@PEAUPxQueryThreadContext@2@@Z 0000000180013fc0 f   GuGeometryQuery.obj
 0001:00013450       ?toBuffer@MultiplePersistentContactManifold@Gu@physx@@QEAAXPEIAE@Z 0000000180014450 f i GuGeometryQuery.obj
 0001:00013530       ?computeBoxPoints@Gu@physx@@YAXAEBVPxBounds3@2@PEIAV?$PxVec3T@M@2@@Z 0000000180014530 f   GuInternal.obj
 0001:000135d0       ?computeSweptBox@Gu@physx@@YAXAEAVBox@12@AEBV?$PxVec3T@M@2@1AEBV?$PxMat33T@M@2@1M@Z 00000001800145d0 f   GuInternal.obj
 0001:00013b10       ?getPlane@Gu@physx@@YA?AVPxPlane@2@AEBV?$PxTransformT@M@2@@Z 0000000180014b10 f   GuInternal.obj
 0001:00013f60       ??_ECallbackRaycast@RTree@Gu@physx@@UEAAPEAXI@Z 0000000180014f60 f i GuMidphaseRTree.obj
 0001:00013f60       ??_ECallbackRefit@RTree@Gu@physx@@UEAAPEAXI@Z 0000000180014f60 f i GuTriangleMeshRTree.obj
 0001:00013f60       ??_EPxInsertionCallback@physx@@MEAAPEAXI@Z 0000000180014f60 f i GuMeshFactory.obj
 0001:00013f60       ??_GCallbackRaycast@RTree@Gu@physx@@UEAAPEAXI@Z 0000000180014f60 f i GuMidphaseRTree.obj
 0001:00013f60       ??_GCallbackRefit@RTree@Gu@physx@@UEAAPEAXI@Z 0000000180014f60 f i GuTriangleMeshRTree.obj
 0001:00013f60       ??_GPxInsertionCallback@physx@@MEAAPEAXI@Z 0000000180014f60 f i GuMeshFactory.obj
 0001:00013f90       ??$copy@V?$PxReflectionAllocator@USlab@NodeAllocator@Gu@physx@@@physx@@@?$PxArray@USlab@NodeAllocator@Gu@physx@@V?$PxReflectionAllocator@USlab@NodeAllocator@Gu@physx@@@4@@physx@@IEAAXAEBV01@@Z 0000000180014f90 f i GuMeshFactory.obj
 0001:00014050       ??0AABBTreeBounds@Gu@physx@@QEAA@XZ 0000000180015050 f i GuMeshFactory.obj
 0001:00014060       ??0AABBTreeBuildNode@Gu@physx@@QEAA@AEBV012@@Z 0000000180015060 f i GuMeshFactory.obj
 0001:00014060       ??4AABBTreeBuildNode@Gu@physx@@QEAAAEAV012@AEBV012@@Z 0000000180015060 f i GuMeshFactory.obj
 0001:000140a0       ??0AABBTreeBuildParams@Gu@physx@@QEAA@IIPEBVAABBTreeBounds@12@W4BVHBuildStrategy@12@@Z 00000001800150a0 f i GuMeshFactory.obj
 0001:000140c0       ??0MeshFactory@Gu@physx@@QEAA@XZ 00000001800150c0 f   GuMeshFactory.obj
 0001:000142c0       ??0NodeAllocator@Gu@physx@@QEAA@AEBV012@@Z 00000001800152c0 f i GuMeshFactory.obj
 0001:00014300       ??0TriangleMeshData@Gu@physx@@QEAA@XZ 0000000180015300 f i GuMeshFactory.obj
 0001:00014410       ??1AABBTreeBounds@Gu@physx@@QEAA@XZ 0000000180015410 f i GuMeshFactory.obj
 0001:00014420       ??1AABBTreeBuildParams@Gu@physx@@QEAA@XZ 0000000180015420 f i GuMeshFactory.obj
 0001:00014420       ?reset@AABBTreeBuildParams@Gu@physx@@QEAAXXZ 0000000180015420 f i GuMeshFactory.obj
 0001:00014470       ??1CollisionMeshMappingData@Gu@physx@@UEAA@XZ 0000000180015470 f i GuMeshFactory.obj
 0001:000145c0       ??1MeshDataBase@Gu@physx@@UEAA@XZ 00000001800155c0 f i GuMeshFactory.obj
 0001:00014700       ??1MeshFactory@Gu@physx@@MEAA@XZ 0000000180015700 f   GuMeshFactory.obj
 0001:00014840       ??1RTreeTriangleData@Gu@physx@@UEAA@XZ 0000000180015840 f i GuMeshFactory.obj
 0001:000148b0       ??1SoftBodyCollisionData@Gu@physx@@UEAA@XZ 00000001800158b0 f i GuMeshFactory.obj
 0001:000149f0       ??1SoftBodySimulationData@Gu@physx@@UEAA@XZ 00000001800159f0 f i GuMeshFactory.obj
 0001:00014b10       ??1TetrahedronMeshData@Gu@physx@@QEAA@XZ 0000000180015b10 f i GuMeshFactory.obj
 0001:00014ba0       ??1TriangleMeshData@Gu@physx@@UEAA@XZ 0000000180015ba0 f i GuMeshFactory.obj
 0001:00014cd0       ??4NodeAllocator@Gu@physx@@QEAAAEAV012@AEBV012@@Z 0000000180015cd0 f i GuMeshFactory.obj
 0001:00014d80       ??_EMeshFactory@Gu@physx@@MEAAPEAXI@Z 0000000180015d80 f i GuMeshFactory.obj
 0001:00014ea0       ??_FAABBTreeBuildParams@Gu@physx@@QEAAXXZ 0000000180015ea0 f i GuMeshFactory.obj
 0001:00014ec0       ??_EBV4TriangleData@Gu@physx@@UEAAPEAXI@Z 0000000180015ec0 f i GuMeshFactory.obj
 0001:00014ec0       ??_GBV4TriangleData@Gu@physx@@UEAAPEAXI@Z 0000000180015ec0 f i GuMeshFactory.obj
 0001:00014f50       ??_ECollisionMeshMappingData@Gu@physx@@UEAAPEAXI@Z 0000000180015f50 f i GuMeshFactory.obj
 0001:00014f50       ??_GCollisionMeshMappingData@Gu@physx@@UEAAPEAXI@Z 0000000180015f50 f i GuMeshFactory.obj
 0001:00014fc0       ??_EMeshDataBase@Gu@physx@@UEAAPEAXI@Z 0000000180015fc0 f i GuMeshFactory.obj
 0001:00014fc0       ??_GMeshDataBase@Gu@physx@@UEAAPEAXI@Z 0000000180015fc0 f i GuMeshFactory.obj
 0001:00015030       ??_EPxCollisionMeshMappingData@physx@@UEAAPEAXI@Z 0000000180016030 f i GuMeshFactory.obj
 0001:00015030       ??_GPxCollisionMeshMappingData@physx@@UEAAPEAXI@Z 0000000180016030 f i GuMeshFactory.obj
 0001:00015080       ??_ERTreeTriangleData@Gu@physx@@UEAAPEAXI@Z 0000000180016080 f i GuMeshFactory.obj
 0001:00015080       ??_GRTreeTriangleData@Gu@physx@@UEAAPEAXI@Z 0000000180016080 f i GuMeshFactory.obj
 0001:00015130       ??_ESoftBodyCollisionData@Gu@physx@@UEAAPEAXI@Z 0000000180016130 f i GuMeshFactory.obj
 0001:00015130       ??_GSoftBodyCollisionData@Gu@physx@@UEAAPEAXI@Z 0000000180016130 f i GuMeshFactory.obj
 0001:000151a0       ??_ESoftBodySimulationData@Gu@physx@@UEAAPEAXI@Z 00000001800161a0 f i GuMeshFactory.obj
 0001:000151a0       ??_GSoftBodySimulationData@Gu@physx@@UEAAPEAXI@Z 00000001800161a0 f i GuMeshFactory.obj
 0001:00015210       ??_ETriangleMeshData@Gu@physx@@UEAAPEAXI@Z 0000000180016210 f i GuMeshFactory.obj
 0001:00015210       ??_GTriangleMeshData@Gu@physx@@UEAAPEAXI@Z 0000000180016210 f i GuMeshFactory.obj
 0001:00015280       ??_V@YAXPEAX_K@Z           0000000180016280 f i LIBCMT:delete_array_size.obj
 0001:00015280       ?__global_delete@@YAXPEAX_K@Z 0000000180016280 f i GuMeshFactory.obj
 0001:00015290       ?addBVH@MeshFactory@Gu@physx@@QEAAXPEAVBVH@23@_N@Z 0000000180016290 f   GuMeshFactory.obj
 0001:00015310       ?addConvexMesh@MeshFactory@Gu@physx@@QEAAXPEAVConvexMesh@23@_N@Z 0000000180016310 f   GuMeshFactory.obj
 0001:00015390       ?addFactoryListener@MeshFactory@Gu@physx@@QEAAXAEAVMeshFactoryListener@23@@Z 0000000180016390 f   GuMeshFactory.obj
 0001:00015400       ?addHeightField@MeshFactory@Gu@physx@@QEAAXPEAVHeightField@23@_N@Z 0000000180016400 f   GuMeshFactory.obj
 0001:00015480       ?addSoftBodyMesh@MeshFactory@Gu@physx@@QEAAXPEAVSoftBodyMesh@23@_N@Z 0000000180016480 f   GuMeshFactory.obj
 0001:00015500       ?addTetrahedronMesh@MeshFactory@Gu@physx@@QEAAXPEAVTetrahedronMesh@23@_N@Z 0000000180016500 f   GuMeshFactory.obj
 0001:00015580       ?addTriangleMesh@MeshFactory@Gu@physx@@QEAAXPEAVTriangleMesh@23@_N@Z 0000000180016580 f   GuMeshFactory.obj
 0001:00015600       ?allocate@?$PxArray@USlab@NodeAllocator@Gu@physx@@V?$PxReflectionAllocator@USlab@NodeAllocator@Gu@physx@@@4@@physx@@IEAAPEAUSlab@NodeAllocator@Gu@2@I@Z 0000000180016600 f i GuMeshFactory.obj
 0001:00015690       ?allocateAdjacencies@TriangleMeshData@Gu@physx@@QEAAPEAIXZ 0000000180016690 f i GuMeshFactory.obj
 0001:00015700       ?allocateExtraTrigData@TriangleMeshData@Gu@physx@@QEAAPEAEXZ 0000000180016700 f i GuMeshFactory.obj
 0001:00015770       ?allocateFaceRemap@TriangleMeshData@Gu@physx@@QEAAPEAIXZ 0000000180016770 f i GuMeshFactory.obj
 0001:000157e0       ?allocateGridModelData@SoftBodySimulationData@Gu@physx@@QEAAXIIIIIII@Z 00000001800167e0 f i GuMeshFactory.obj
 0001:00015a50       ?allocateMaterials@TetrahedronMeshData@Gu@physx@@QEAAPEAGXZ 0000000180016a50 f i GuMeshFactory.obj
 0001:00015ac0       ?allocateMaterials@TriangleMeshData@Gu@physx@@QEAAPEAGXZ 0000000180016ac0 f i GuMeshFactory.obj
 0001:00015b30       ?allocateTetrahedrons@TetrahedronMeshData@Gu@physx@@QEAAXII@Z 0000000180016b30 f i GuMeshFactory.obj
 0001:00015bc0       ?allocateTriangles@TriangleMeshData@Gu@physx@@QEAAPEAXI_NI@Z 0000000180016bc0 f i GuMeshFactory.obj
 0001:00015cb0       ?allocateVertices@MeshDataBase@Gu@physx@@QEAAPEAV?$PxVec3T@M@3@I@Z 0000000180016cb0 f i GuMeshFactory.obj
 0001:00015d20       ?allocateVertices@TetrahedronMeshData@Gu@physx@@QEAAPEAV?$PxVec3T@M@3@II@Z 0000000180016d20 f i GuMeshFactory.obj
 0001:00015dc0       ?allocatemappingData@CollisionMeshMappingData@Gu@physx@@QEAAXIIII@Z 0000000180016dc0 f i GuMeshFactory.obj
 0001:00015fa0       ?create@?$PxHashBase@PEAVBVH@Gu@physx@@PEAV123@U?$PxHash@PEAVBVH@Gu@physx@@@3@UGetKey@?$PxHashSetBase@PEAVBVH@Gu@physx@@U?$PxHash@PEAVBVH@Gu@physx@@@3@VPxAllocator@3@$00@3@VPxAllocator@3@$00@physx@@QEAAPEAPEAVBVH@Gu@2@AEBQEAV342@AEA_N@Z 0000000180016fa0 f i GuMeshFactory.obj
 0001:00015fa0       ?create@?$PxHashBase@PEAVConvexMesh@Gu@physx@@PEAV123@U?$PxHash@PEAVConvexMesh@Gu@physx@@@3@UGetKey@?$PxHashSetBase@PEAVConvexMesh@Gu@physx@@U?$PxHash@PEAVConvexMesh@Gu@physx@@@3@VPxAllocator@3@$00@3@VPxAllocator@3@$00@physx@@QEAAPEAPEAVConvexMesh@Gu@2@AEBQEAV342@AEA_N@Z 0000000180016fa0 f i GuMeshFactory.obj
 0001:00015fa0       ?create@?$PxHashBase@PEAVHeightField@Gu@physx@@PEAV123@U?$PxHash@PEAVHeightField@Gu@physx@@@3@UGetKey@?$PxHashSetBase@PEAVHeightField@Gu@physx@@U?$PxHash@PEAVHeightField@Gu@physx@@@3@VPxAllocator@3@$00@3@VPxAllocator@3@$00@physx@@QEAAPEAPEAVHeightField@Gu@2@AEBQEAV342@AEA_N@Z 0000000180016fa0 f i GuMeshFactory.obj
 0001:00015fa0       ?create@?$PxHashBase@PEAVSoftBodyMesh@Gu@physx@@PEAV123@U?$PxHash@PEAVSoftBodyMesh@Gu@physx@@@3@UGetKey@?$PxHashSetBase@PEAVSoftBodyMesh@Gu@physx@@U?$PxHash@PEAVSoftBodyMesh@Gu@physx@@@3@VPxAllocator@3@$00@3@VPxAllocator@3@$00@physx@@QEAAPEAPEAVSoftBodyMesh@Gu@2@AEBQEAV342@AEA_N@Z 0000000180016fa0 f i GuMeshFactory.obj
 0001:00015fa0       ?create@?$PxHashBase@PEAVTetrahedronMesh@Gu@physx@@PEAV123@U?$PxHash@PEAVTetrahedronMesh@Gu@physx@@@3@UGetKey@?$PxHashSetBase@PEAVTetrahedronMesh@Gu@physx@@U?$PxHash@PEAVTetrahedronMesh@Gu@physx@@@3@VPxAllocator@3@$00@3@VPxAllocator@3@$00@physx@@QEAAPEAPEAVTetrahedronMesh@Gu@2@AEBQEAV342@AEA_N@Z 0000000180016fa0 f i GuMeshFactory.obj
 0001:00015fa0       ?create@?$PxHashBase@PEAVTriangleMesh@Gu@physx@@PEAV123@U?$PxHash@PEAVTriangleMesh@Gu@physx@@@3@UGetKey@?$PxHashSetBase@PEAVTriangleMesh@Gu@physx@@U?$PxHash@PEAVTriangleMesh@Gu@physx@@@3@VPxAllocator@3@$00@3@VPxAllocator@3@$00@physx@@QEAAPEAPEAVTriangleMesh@Gu@2@AEBQEAV342@AEA_N@Z 0000000180016fa0 f i GuMeshFactory.obj
 0001:00016130       ?createBVH@MeshFactory@Gu@physx@@IEAAPEAVPxBVH@3@AEAVBVHData@23@@Z 0000000180017130 f   GuMeshFactory.obj
 0001:00016220       ?createBVH@MeshFactory@Gu@physx@@QEAAPEAVPxBVH@3@AEAVPxInputStream@3@@Z 0000000180017220 f   GuMeshFactory.obj
 0001:00016340       ?createBVH@MeshFactory@Gu@physx@@QEAAPEAVPxBVH@3@PEAX@Z 0000000180017340 f   GuMeshFactory.obj
 0001:00016350       ?createConvexMesh@MeshFactory@Gu@physx@@IEAAPEAVPxConvexMesh@3@AEAUConvexHullInitData@23@@Z 0000000180017350 f   GuMeshFactory.obj
 0001:00016440       ?createConvexMesh@MeshFactory@Gu@physx@@QEAAPEAVPxConvexMesh@3@AEAVPxInputStream@3@@Z 0000000180017440 f   GuMeshFactory.obj
 0001:00016550       ?createConvexMesh@MeshFactory@Gu@physx@@QEAAPEAVPxConvexMesh@3@PEAX@Z 0000000180017550 f   GuMeshFactory.obj
 0001:00016560       ?createHeightField@MeshFactory@Gu@physx@@QEAAPEAVPxHeightField@3@AEAVPxInputStream@3@@Z 0000000180017560 f   GuMeshFactory.obj
 0001:00016670       ?createHeightField@MeshFactory@Gu@physx@@QEAAPEAVPxHeightField@3@PEAX@Z 0000000180017670 f   GuMeshFactory.obj
 0001:00016760       ?createSoftBodyMesh@MeshFactory@Gu@physx@@IEAAPEAVPxSoftBodyMesh@3@AEAVSoftBodyMeshData@23@@Z 0000000180017760 f   GuMeshFactory.obj
 0001:00016850       ?createSoftBodyMesh@MeshFactory@Gu@physx@@QEAAPEAVPxSoftBodyMesh@3@AEAVPxInputStream@3@@Z 0000000180017850 f   GuMeshFactory.obj
 0001:00016e50       ?createSoftBodyMesh@MeshFactory@Gu@physx@@QEAAPEAVPxSoftBodyMesh@3@PEAX@Z 0000000180017e50 f   GuMeshFactory.obj
 0001:00016e60       ?createTetrahedronMesh@MeshFactory@Gu@physx@@IEAAPEAVPxTetrahedronMesh@3@AEAVTetrahedronMeshData@23@@Z 0000000180017e60 f   GuMeshFactory.obj
 0001:00016f50       ?createTetrahedronMesh@MeshFactory@Gu@physx@@QEAAPEAVPxTetrahedronMesh@3@AEAVPxInputStream@3@@Z 0000000180017f50 f   GuMeshFactory.obj
 0001:00016fc0       ?createTetrahedronMesh@MeshFactory@Gu@physx@@QEAAPEAVPxTetrahedronMesh@3@PEAX@Z 0000000180017fc0 f   GuMeshFactory.obj
 0001:00016fd0       ?createTriangleMesh@MeshFactory@Gu@physx@@IEAAPEAVPxTriangleMesh@3@AEAVTriangleMeshData@23@@Z 0000000180017fd0 f   GuMeshFactory.obj
 0001:00017150       ?createTriangleMesh@MeshFactory@Gu@physx@@QEAAPEAVPxTriangleMesh@3@AEAVPxInputStream@3@@Z 0000000180018150 f   GuMeshFactory.obj
 0001:000171b0       ?createTriangleMesh@MeshFactory@Gu@physx@@QEAAPEAVPxTriangleMesh@3@PEAX@Z 00000001800181b0 f   GuMeshFactory.obj
 0001:000171c0       ?erase@?$PxHashBase@PEAVBVH@Gu@physx@@PEAV123@U?$PxHash@PEAVBVH@Gu@physx@@@3@UGetKey@?$PxHashSetBase@PEAVBVH@Gu@physx@@U?$PxHash@PEAVBVH@Gu@physx@@@3@VPxAllocator@3@$00@3@VPxAllocator@3@$00@physx@@QEAA_NAEBQEAVBVH@Gu@2@@Z 00000001800181c0 f i GuMeshFactory.obj
 0001:000171c0       ?erase@?$PxHashBase@PEAVConvexMesh@Gu@physx@@PEAV123@U?$PxHash@PEAVConvexMesh@Gu@physx@@@3@UGetKey@?$PxHashSetBase@PEAVConvexMesh@Gu@physx@@U?$PxHash@PEAVConvexMesh@Gu@physx@@@3@VPxAllocator@3@$00@3@VPxAllocator@3@$00@physx@@QEAA_NAEBQEAVConvexMesh@Gu@2@@Z 00000001800181c0 f i GuMeshFactory.obj
 0001:000171c0       ?erase@?$PxHashBase@PEAVHeightField@Gu@physx@@PEAV123@U?$PxHash@PEAVHeightField@Gu@physx@@@3@UGetKey@?$PxHashSetBase@PEAVHeightField@Gu@physx@@U?$PxHash@PEAVHeightField@Gu@physx@@@3@VPxAllocator@3@$00@3@VPxAllocator@3@$00@physx@@QEAA_NAEBQEAVHeightField@Gu@2@@Z 00000001800181c0 f i GuMeshFactory.obj
 0001:000171c0       ?erase@?$PxHashBase@PEAVSoftBodyMesh@Gu@physx@@PEAV123@U?$PxHash@PEAVSoftBodyMesh@Gu@physx@@@3@UGetKey@?$PxHashSetBase@PEAVSoftBodyMesh@Gu@physx@@U?$PxHash@PEAVSoftBodyMesh@Gu@physx@@@3@VPxAllocator@3@$00@3@VPxAllocator@3@$00@physx@@QEAA_NAEBQEAVSoftBodyMesh@Gu@2@@Z 00000001800181c0 f i GuMeshFactory.obj
 0001:000171c0       ?erase@?$PxHashBase@PEAVTetrahedronMesh@Gu@physx@@PEAV123@U?$PxHash@PEAVTetrahedronMesh@Gu@physx@@@3@UGetKey@?$PxHashSetBase@PEAVTetrahedronMesh@Gu@physx@@U?$PxHash@PEAVTetrahedronMesh@Gu@physx@@@3@VPxAllocator@3@$00@3@VPxAllocator@3@$00@physx@@QEAA_NAEBQEAVTetrahedronMesh@Gu@2@@Z 00000001800181c0 f i GuMeshFactory.obj
 0001:000171c0       ?erase@?$PxHashBase@PEAVTriangleMesh@Gu@physx@@PEAV123@U?$PxHash@PEAVTriangleMesh@Gu@physx@@@3@UGetKey@?$PxHashSetBase@PEAVTriangleMesh@Gu@physx@@U?$PxHash@PEAVTriangleMesh@Gu@physx@@@3@VPxAllocator@3@$00@3@VPxAllocator@3@$00@physx@@QEAA_NAEBQEAVTriangleMesh@Gu@2@@Z 00000001800181c0 f i GuMeshFactory.obj
 0001:00017340       ?getBVHs@MeshFactory@Gu@physx@@QEBAIPEAPEAVPxBVH@3@II@Z 0000000180018340 f   GuMeshFactory.obj
 0001:000173e0       ?getBounds@AABBTreeBounds@Gu@physx@@QEAAPEAVPxBounds3@3@XZ 00000001800183e0 f i GuMeshFactory.obj
 0001:000173e0       ?getBounds@AABBTreeBounds@Gu@physx@@QEBAPEBVPxBounds3@3@XZ 00000001800183e0 f i GuMeshFactory.obj
 0001:000173f0       ?getConvexMeshes@MeshFactory@Gu@physx@@QEBAIPEAPEAVPxConvexMesh@3@II@Z 00000001800183f0 f   GuMeshFactory.obj
 0001:00017490       ?getHeightFields@MeshFactory@Gu@physx@@QEBAIPEAPEAVPxHeightField@3@II@Z 0000000180018490 f   GuMeshFactory.obj
 0001:00017530       ?getNbBVHs@MeshFactory@Gu@physx@@QEBAIXZ 0000000180018530 f   GuMeshFactory.obj
 0001:00017570       ?getNbConvexMeshes@MeshFactory@Gu@physx@@QEBAIXZ 0000000180018570 f   GuMeshFactory.obj
 0001:000175b0       ?getNbHeightFields@MeshFactory@Gu@physx@@QEBAIXZ 00000001800185b0 f   GuMeshFactory.obj
 0001:000175f0       ?getNbPrimitives@AABBTreeBuildNode@Gu@physx@@QEBAIXZ 00000001800185f0 f i GuMeshFactory.obj
 0001:000175f0       ?getNbRuntimePrimitives@AABBTreeBuildNode@Gu@physx@@QEBAIXZ 00000001800185f0 f i GuMeshFactory.obj
 0001:00017600       ?getNbSoftBodyMeshes@MeshFactory@Gu@physx@@QEBAIXZ 0000000180018600 f   GuMeshFactory.obj
 0001:00017640       ?getNbTetrahedronMeshes@MeshFactory@Gu@physx@@QEBAIXZ 0000000180018640 f   GuMeshFactory.obj
 0001:00017680       ?getNbTriangleMeshes@MeshFactory@Gu@physx@@QEBAIXZ 0000000180018680 f   GuMeshFactory.obj
 0001:000176c0       ?getNeg@AABBTreeBuildNode@Gu@physx@@QEBAPEBV123@XZ 00000001800186c0 f i GuMeshFactory.obj
 0001:000176e0       ?getPrimitives@AABBTreeBuildNode@Gu@physx@@QEAAPEAIPEAI@Z 00000001800186e0 f i GuMeshFactory.obj
 0001:000176e0       ?getPrimitives@AABBTreeBuildNode@Gu@physx@@QEBAPEBIPEBI@Z 00000001800186e0 f i GuMeshFactory.obj
 0001:000176f0       ?getSoftBodyMeshes@MeshFactory@Gu@physx@@QEBAIPEAPEAVPxSoftBodyMesh@3@II@Z 00000001800186f0 f   GuMeshFactory.obj
 0001:00017790       ?getTetrahedronMeshes@MeshFactory@Gu@physx@@QEBAIPEAPEAVPxTetrahedronMesh@3@II@Z 0000000180018790 f   GuMeshFactory.obj
 0001:00017820       ?getTriangleMeshes@MeshFactory@Gu@physx@@QEBAIPEAPEAVPxTriangleMesh@3@II@Z 0000000180018820 f   GuMeshFactory.obj
 0001:000178b0       ?growAndPushBack@?$PxArray@PEAVMeshFactoryListener@Gu@physx@@V?$PxReflectionAllocator@PEAVMeshFactoryListener@Gu@physx@@@3@@physx@@IEAAAEAPEAVMeshFactoryListener@Gu@2@AEBQEAV342@@Z 00000001800188b0 f i GuMeshFactory.obj
 0001:000179d0       ?isLeaf@AABBTreeBuildNode@Gu@physx@@QEBA_NXZ 00000001800189d0 f i GuMeshFactory.obj
 0001:000193e0       ?moveFrom@AABBTreeBounds@Gu@physx@@QEAAXAEAV123@@Z 000000018001a3e0 f i GuMeshFactory.obj
 0001:000193f0       ?notifyFactoryListener@MeshFactory@Gu@physx@@QEAAXPEBVPxBase@3@G@Z 000000018001a3f0 f   GuMeshFactory.obj
 0001:00019460       ?ownsMemory@AABBTreeBounds@Gu@physx@@QEBA_NXZ 000000018001a460 f i GuMeshFactory.obj
 0001:00019740       ?recreate@?$PxArray@USlab@NodeAllocator@Gu@physx@@V?$PxReflectionAllocator@USlab@NodeAllocator@Gu@physx@@@4@@physx@@IEAAXI@Z 000000018001a740 f i GuMeshFactory.obj
 0001:000197f0       ?release@CollisionMeshMappingData@Gu@physx@@UEAAXXZ 000000018001a7f0 f i GuMeshFactory.obj
 0001:00019810       ?release@MeshFactory@Gu@physx@@QEAAXXZ 000000018001a810 f   GuMeshFactory.obj
 0001:00019910       ?remove@MeshFactory@Gu@physx@@QEAA_NAEAVPxBase@3@@Z 000000018001a910 f   GuMeshFactory.obj
 0001:00019a10       ?removeBVH@MeshFactory@Gu@physx@@QEAA_NAEAVPxBVH@3@@Z 000000018001aa10 f   GuMeshFactory.obj
 0001:00019a60       ?removeConvexMesh@MeshFactory@Gu@physx@@QEAA_NAEAVPxConvexMesh@3@@Z 000000018001aa60 f   GuMeshFactory.obj
 0001:00019ab0       ?removeFactoryListener@MeshFactory@Gu@physx@@QEAAXAEAVMeshFactoryListener@23@@Z 000000018001aab0 f   GuMeshFactory.obj
 0001:00019b40       ?removeHeightField@MeshFactory@Gu@physx@@QEAA_NAEAVPxHeightField@3@@Z 000000018001ab40 f   GuMeshFactory.obj
 0001:00019b90       ?removeSoftBodyMesh@MeshFactory@Gu@physx@@QEAA_NAEAVPxSoftBodyMesh@3@@Z 000000018001ab90 f   GuMeshFactory.obj
 0001:00019be0       ?removeTetrahedronMesh@MeshFactory@Gu@physx@@QEAA_NAEAVPxTetrahedronMesh@3@@Z 000000018001abe0 f   GuMeshFactory.obj
 0001:00019c30       ?removeTriangleMesh@MeshFactory@Gu@physx@@QEAA_NAEAVPxTriangleMesh@3@@Z 000000018001ac30 f   GuMeshFactory.obj
 0001:00019c80       ?reserveInternal@?$PxHashBase@PEAVBVH@Gu@physx@@PEAV123@U?$PxHash@PEAVBVH@Gu@physx@@@3@UGetKey@?$PxHashSetBase@PEAVBVH@Gu@physx@@U?$PxHash@PEAVBVH@Gu@physx@@@3@VPxAllocator@3@$00@3@VPxAllocator@3@$00@physx@@AEAAXI@Z 000000018001ac80 f i GuMeshFactory.obj
 0001:00019c80       ?reserveInternal@?$PxHashBase@PEAVConvexMesh@Gu@physx@@PEAV123@U?$PxHash@PEAVConvexMesh@Gu@physx@@@3@UGetKey@?$PxHashSetBase@PEAVConvexMesh@Gu@physx@@U?$PxHash@PEAVConvexMesh@Gu@physx@@@3@VPxAllocator@3@$00@3@VPxAllocator@3@$00@physx@@AEAAXI@Z 000000018001ac80 f i GuMeshFactory.obj
 0001:00019c80       ?reserveInternal@?$PxHashBase@PEAVHeightField@Gu@physx@@PEAV123@U?$PxHash@PEAVHeightField@Gu@physx@@@3@UGetKey@?$PxHashSetBase@PEAVHeightField@Gu@physx@@U?$PxHash@PEAVHeightField@Gu@physx@@@3@VPxAllocator@3@$00@3@VPxAllocator@3@$00@physx@@AEAAXI@Z 000000018001ac80 f i GuMeshFactory.obj
 0001:00019c80       ?reserveInternal@?$PxHashBase@PEAVSoftBodyMesh@Gu@physx@@PEAV123@U?$PxHash@PEAVSoftBodyMesh@Gu@physx@@@3@UGetKey@?$PxHashSetBase@PEAVSoftBodyMesh@Gu@physx@@U?$PxHash@PEAVSoftBodyMesh@Gu@physx@@@3@VPxAllocator@3@$00@3@VPxAllocator@3@$00@physx@@AEAAXI@Z 000000018001ac80 f i GuMeshFactory.obj
 0001:00019c80       ?reserveInternal@?$PxHashBase@PEAVTetrahedronMesh@Gu@physx@@PEAV123@U?$PxHash@PEAVTetrahedronMesh@Gu@physx@@@3@UGetKey@?$PxHashSetBase@PEAVTetrahedronMesh@Gu@physx@@U?$PxHash@PEAVTetrahedronMesh@Gu@physx@@@3@VPxAllocator@3@$00@3@VPxAllocator@3@$00@physx@@AEAAXI@Z 000000018001ac80 f i GuMeshFactory.obj
 0001:00019c80       ?reserveInternal@?$PxHashBase@PEAVTriangleMesh@Gu@physx@@PEAV123@U?$PxHash@PEAVTriangleMesh@Gu@physx@@@3@UGetKey@?$PxHashSetBase@PEAVTriangleMesh@Gu@physx@@U?$PxHash@PEAVTriangleMesh@Gu@physx@@@3@VPxAllocator@3@$00@3@VPxAllocator@3@$00@physx@@AEAAXI@Z 000000018001ac80 f i GuMeshFactory.obj
 0001:00019e50       ?setBounds@AABBTreeBounds@Gu@physx@@QEAAXPEAVPxBounds3@3@@Z 000000018001ae50 f i GuMeshFactory.obj
 0001:00019e60       ?setNbRunTimePrimitives@AABBTreeBuildNode@Gu@physx@@QEAAXI@Z 000000018001ae60 f i GuMeshFactory.obj
 0001:00019e70       ?takeOwnership@AABBTreeBounds@Gu@physx@@QEAAXXZ 000000018001ae70 f i GuMeshFactory.obj
 0001:00019e80       getInsertionCallback       000000018001ae80 f   GuMeshFactory.obj
 0001:00019e90       ??4BigConvexData@physx@@QEAAAEAV01@AEBV01@@Z 000000018001ae90 f i GuMetaData.obj
 0001:00019eb0       ?GetAdjacentVerts@BigConvexData@physx@@QEBAPEBEXZ 000000018001aeb0 f i GuMetaData.obj
 0001:00019eb0       ?getSoftBodyAuxData@SoftBodyMesh@Gu@physx@@UEAAPEAVPxSoftBodyAuxData@3@XZ 000000018001aeb0 f i GuTetrahedronMesh.obj
 0001:00019eb0       ?getSoftBodyAuxData@SoftBodyMesh@Gu@physx@@UEBAPEBVPxSoftBodyAuxData@3@XZ 000000018001aeb0 f i GuTetrahedronMesh.obj
 0001:00019eb0       ?getTransforms@PruningPool@Gu@physx@@QEAAPEAV?$PxTransformT@M@3@XZ 000000018001aeb0 f i GuIncrementalAABBPrunerCore.obj
 0001:00019eb0       ?getTransforms@PruningPool@Gu@physx@@QEBAPEBV?$PxTransformT@M@3@XZ 000000018001aeb0 f i GuIncrementalAABBPrunerCore.obj
 0001:00019eb0       ?getTriangles@TriangleMesh@Gu@physx@@UEBAPEBXXZ 000000018001aeb0 f i GuTriangleMesh.obj
 0001:00019ec0       ?GetNbNeighbors@BigConvexData@physx@@QEBAGI@Z 000000018001aec0 f i GuMetaData.obj
 0001:00019ec0       ?GetValency@BigConvexData@physx@@QEBAGI@Z 000000018001aec0 f i GuMetaData.obj
 0001:00019ed0       ?GetNbSamples@BigConvexData@physx@@QEBAIXZ 000000018001aed0 f i GuMetaData.obj
 0001:00019ee0       ?GetNbVerts@BigConvexData@physx@@QEBAIXZ 000000018001aee0 f i GuMetaData.obj
 0001:00019ee0       ?getNbVertices@TetrahedronMesh@Gu@physx@@UEBAIXZ 000000018001aee0 f i GuTetrahedronMesh.obj
 0001:00019ee0       ?getNbVertices@TriangleMesh@Gu@physx@@UEBAIXZ 000000018001aee0 f i GuTriangleMesh.obj
 0001:00019ee0       ?length@pcharNode@@UEBAHXZ 000000018001aee0 f i libvcruntime:undname.obj
 0001:00019ee0       ?raw_length@pcharNode@@UEBAHXZ 000000018001aee0 f i libvcruntime:undname.obj
 0001:00019ef0       ?GetNeighbors@BigConvexData@physx@@QEBAPEBEI@Z 000000018001aef0 f i GuMetaData.obj
 0001:00019f00       ?GetOffset@BigConvexData@physx@@QEBAGI@Z 000000018001af00 f i GuMetaData.obj
 0001:00019f10       ?GetSubdiv@BigConvexData@physx@@QEBAIXZ 000000018001af10 f i GuMetaData.obj
 0001:00019f20       ?getBinaryMetaData@BV4Tree@Gu@physx@@SAXAEAVPxOutputStream@3@@Z 000000018001af20 f   GuMetaData.obj
 0001:0001a4c0       ?getBinaryMetaData@BV4TriangleMesh@Gu@physx@@SAXAEAVPxOutputStream@3@@Z 000000018001b4c0 f   GuMetaData.obj
 0001:0001a840       ?getBinaryMetaData@BigConvexData@physx@@SAXAEAVPxOutputStream@2@@Z 000000018001b840 f   GuMetaData.obj
 0001:0001ab00       ?getBinaryMetaData@ConvexMesh@Gu@physx@@SAXAEAVPxOutputStream@3@@Z 000000018001bb00 f   GuMetaData.obj
 0001:0001b190       ?getBinaryMetaData@HeightField@Gu@physx@@SAXAEAVPxOutputStream@3@@Z 000000018001c190 f   GuMetaData.obj
 0001:0001b580       ?getBinaryMetaData@RTree@Gu@physx@@SAXAEAVPxOutputStream@3@@Z 000000018001c580 f   GuMetaData.obj
 0001:0001b8b0       ?getBinaryMetaData@RTreeTriangleMesh@Gu@physx@@SAXAEAVPxOutputStream@3@@Z 000000018001c8b0 f   GuMetaData.obj
 0001:0001b990       ?getBinaryMetaData@TriangleMesh@Gu@physx@@SAXAEAVPxOutputStream@3@@Z 000000018001c990 f   GuMetaData.obj
 0001:0001d4d0       ?doSupport@?$SupportLocalImpl@VConvexHullNoScaleV@Gu@physx@@@Gu@physx@@UEBA?AT__m128@@AEBT4@@Z 000000018001e4d0 f i GuMTD.obj
 0001:0001d520       ?doSupport@?$SupportLocalImpl@VConvexHullNoScaleV@Gu@physx@@@Gu@physx@@UEBAXAEBT__m128@@AEAT4@1@Z 000000018001e520 f i GuMTD.obj
 0001:0001d6a0       ?populateVerts@?$SupportLocalImpl@VConvexHullNoScaleV@Gu@physx@@@Gu@physx@@UEBAXPEBEIPEBV?$PxVec3T@M@3@PEAT__m128@@@Z 000000018001e6a0 f i GuMTD.obj
 0001:0001d6e0       ?getInternalData@TriangleMesh@Gu@physx@@UEBA_NAEAUPxTriangleMeshInternalData@3@_N@Z 000000018001e6e0 f   GuTriangleMesh.obj
 0001:0001d6e0       ?isDynamic@Pruner@Gu@physx@@UEBA_NXZ 000000018001e6e0 f   GuIncrementalAABBPruner.obj
 0001:0001f520       ??$gjk@U?$LocalConvex@VCapsuleV@Gu@physx@@@Gu@physx@@U?$LocalConvex@VConvexHullV@Gu@physx@@@23@@Gu@physx@@YA?AW4GjkStatus@01@AEBU?$LocalConvex@VCapsuleV@Gu@physx@@@01@AEBU?$LocalConvex@VConvexHullV@Gu@physx@@@01@AEBT__m128@@2AEAT5@333@Z 0000000180020520 f i GuMTD.obj
 0001:00020280       ??0SeparatingAxes@Gu@physx@@QEAA@$$QEAV012@@Z 0000000180021280 f i GuMTD.obj
 0001:00020280       ??0SeparatingAxes@Gu@physx@@QEAA@AEBV012@@Z 0000000180021280 f i GuMTD.obj
 0001:00020390       ??0SeparatingAxes@Gu@physx@@QEAA@XZ 0000000180021390 f i GuMTD.obj
 0001:000203a0       ??4SeparatingAxes@Gu@physx@@QEAAAEAV012@$$QEAV012@@Z 00000001800213a0 f i GuMTD.obj
 0001:000203a0       ??4SeparatingAxes@Gu@physx@@QEAAAEAV012@AEBV012@@Z 00000001800213a0 f i GuMTD.obj
 0001:000204b0       ??_E?$LocalConvex@UCustomConvexV@@@Gu@physx@@UEAAPEAXI@Z 00000001800214b0 f i GuGjkQuery.obj
 0001:000204b0       ??_E?$LocalConvex@UPointConvexV@@@Gu@physx@@UEAAPEAXI@Z 00000001800214b0 f i GuGjkQuery.obj
 0001:000204b0       ??_E?$LocalConvex@VBoxV@Gu@physx@@@Gu@physx@@UEAAPEAXI@Z 00000001800214b0 f i GuSweepTests.obj
 0001:000204b0       ??_E?$LocalConvex@VCapsuleV@Gu@physx@@@Gu@physx@@UEAAPEAXI@Z 00000001800214b0 f i GuMTD.obj
 0001:000204b0       ??_E?$LocalConvex@VConvexHullNoScaleV@Gu@physx@@@Gu@physx@@UEAAPEAXI@Z 00000001800214b0 f i GuPCMContactBoxConvex.obj
 0001:000204b0       ??_E?$LocalConvex@VConvexHullV@Gu@physx@@@Gu@physx@@UEAAPEAXI@Z 00000001800214b0 f i GuMTD.obj
 0001:000204b0       ??_E?$LocalConvex@VTetrahedronV@Gu@physx@@@Gu@physx@@UEAAPEAXI@Z 00000001800214b0 f i GuCookingTetrahedronMesh.obj
 0001:000204b0       ??_E?$LocalConvex@VTriangleV@Gu@physx@@@Gu@physx@@UEAAPEAXI@Z 00000001800214b0 f i GuSweepTests.obj
 0001:000204b0       ??_EGjkConvex@Gu@physx@@UEAAPEAXI@Z 00000001800214b0 f i GuMTD.obj
 0001:000204b0       ??_G?$LocalConvex@UCustomConvexV@@@Gu@physx@@UEAAPEAXI@Z 00000001800214b0 f i GuGjkQuery.obj
 0001:000204b0       ??_G?$LocalConvex@UPointConvexV@@@Gu@physx@@UEAAPEAXI@Z 00000001800214b0 f i GuGjkQuery.obj
 0001:000204b0       ??_G?$LocalConvex@VBoxV@Gu@physx@@@Gu@physx@@UEAAPEAXI@Z 00000001800214b0 f i GuSweepTests.obj
 0001:000204b0       ??_G?$LocalConvex@VCapsuleV@Gu@physx@@@Gu@physx@@UEAAPEAXI@Z 00000001800214b0 f i GuMTD.obj
 0001:000204b0       ??_G?$LocalConvex@VConvexHullNoScaleV@Gu@physx@@@Gu@physx@@UEAAPEAXI@Z 00000001800214b0 f i GuPCMContactBoxConvex.obj
 0001:000204b0       ??_G?$LocalConvex@VConvexHullV@Gu@physx@@@Gu@physx@@UEAAPEAXI@Z 00000001800214b0 f i GuMTD.obj
 0001:000204b0       ??_G?$LocalConvex@VTetrahedronV@Gu@physx@@@Gu@physx@@UEAAPEAXI@Z 00000001800214b0 f i GuCookingTetrahedronMesh.obj
 0001:000204b0       ??_G?$LocalConvex@VTriangleV@Gu@physx@@@Gu@physx@@UEAAPEAXI@Z 00000001800214b0 f i GuSweepTests.obj
 0001:000204b0       ??_GGjkConvex@Gu@physx@@UEAAPEAXI@Z 00000001800214b0 f i GuMTD.obj
 0001:00024620       ?getAxes@SeparatingAxes@Gu@physx@@QEBAPEBV?$PxVec3T@M@3@XZ 0000000180025620 f i GuMTD.obj
 0001:00024630       ?getCenter@?$LocalConvex@UCustomConvexV@@@Gu@physx@@UEBA?AT__m128@@XZ 0000000180025630 f i GuGjkQuery.obj
 0001:00024630       ?getCenter@?$LocalConvex@UPointConvexV@@@Gu@physx@@UEBA?AT__m128@@XZ 0000000180025630 f i GuGjkQuery.obj
 0001:00024630       ?getCenter@?$LocalConvex@VBoxV@Gu@physx@@@Gu@physx@@UEBA?AT__m128@@XZ 0000000180025630 f i GuSweepTests.obj
 0001:00024630       ?getCenter@?$LocalConvex@VCapsuleV@Gu@physx@@@Gu@physx@@UEBA?AT__m128@@XZ 0000000180025630 f i GuMTD.obj
 0001:00024630       ?getCenter@?$LocalConvex@VConvexHullNoScaleV@Gu@physx@@@Gu@physx@@UEBA?AT__m128@@XZ 0000000180025630 f i GuPCMContactBoxConvex.obj
 0001:00024630       ?getCenter@?$LocalConvex@VConvexHullV@Gu@physx@@@Gu@physx@@UEBA?AT__m128@@XZ 0000000180025630 f i GuMTD.obj
 0001:00024630       ?getCenter@?$LocalConvex@VTetrahedronV@Gu@physx@@@Gu@physx@@UEBA?AT__m128@@XZ 0000000180025630 f i GuCookingTetrahedronMesh.obj
 0001:00024630       ?getCenter@?$LocalConvex@VTriangleV@Gu@physx@@@Gu@physx@@UEBA?AT__m128@@XZ 0000000180025630 f i GuSweepTests.obj
 0001:00024640       ?getCount@BuildStats@Gu@physx@@QEBAIXZ 0000000180025640 f i GuBV4Build.obj
 0001:00024640       ?getNbActiveObjects@PruningPool@Gu@physx@@QEBAIXZ 0000000180025640 f i GuIncrementalAABBPrunerCore.obj
 0001:00024640       ?getNumAxes@SeparatingAxes@Gu@physx@@QEBAIXZ 0000000180025640 f i GuMTD.obj
 0001:00024650       ?getSweepMargin@?$LocalConvex@VCapsuleV@Gu@physx@@@Gu@physx@@UEBA?AT__m128@@XZ 0000000180025650 f i GuMTD.obj
 0001:00024650       ?getSweepMargin@?$RelativeConvex@VCapsuleV@Gu@physx@@@Gu@physx@@UEBA?AT__m128@@XZ 0000000180025650 f i GuCCDSweepPrimitives.obj
 0001:00024660       ?getSweepMargin@?$LocalConvex@UCustomConvexV@@@Gu@physx@@UEBA?AT__m128@@XZ 0000000180025660 f i GuGjkQuery.obj
 0001:00024660       ?getSweepMargin@?$LocalConvex@UPointConvexV@@@Gu@physx@@UEBA?AT__m128@@XZ 0000000180025660 f i GuGjkQuery.obj
 0001:00024660       ?getSweepMargin@?$LocalConvex@VBoxV@Gu@physx@@@Gu@physx@@UEBA?AT__m128@@XZ 0000000180025660 f i GuSweepTests.obj
 0001:00024660       ?getSweepMargin@?$LocalConvex@VConvexHullNoScaleV@Gu@physx@@@Gu@physx@@UEBA?AT__m128@@XZ 0000000180025660 f i GuPCMContactBoxConvex.obj
 0001:00024660       ?getSweepMargin@?$LocalConvex@VConvexHullV@Gu@physx@@@Gu@physx@@UEBA?AT__m128@@XZ 0000000180025660 f i GuMTD.obj
 0001:00024660       ?getSweepMargin@?$RelativeConvex@UCustomConvexV@@@Gu@physx@@UEBA?AT__m128@@XZ 0000000180025660 f i GuGjkQuery.obj
 0001:00024660       ?getSweepMargin@?$RelativeConvex@VBoxV@Gu@physx@@@Gu@physx@@UEBA?AT__m128@@XZ 0000000180025660 f i GuOverlapTests.obj
 0001:00024660       ?getSweepMargin@?$RelativeConvex@VConvexHullNoScaleV@Gu@physx@@@Gu@physx@@UEBA?AT__m128@@XZ 0000000180025660 f i GuPCMContactConvexConvex.obj
 0001:00024660       ?getSweepMargin@?$RelativeConvex@VConvexHullV@Gu@physx@@@Gu@physx@@UEBA?AT__m128@@XZ 0000000180025660 f i GuOverlapTests.obj
 0001:00024680       ?getSweepMargin@GjkConvex@Gu@physx@@UEBA?AT__m128@@XZ 0000000180025680 f i GuMTD.obj
 0001:000246a0       ?pointConvexDistance@@YA_NAEAV?$PxVec3T@M@physx@@0AEAMAEBV12@PEBVConvexMesh@Gu@2@AEBVPxMeshScale@2@AEBUPxTransformPadded@2@@Z 00000001800256a0 f   GuMTD.obj
 0001:00025400       ?reset@SeparatingAxes@Gu@physx@@QEAAXXZ 0000000180026400 f i GuMTD.obj
 0001:00025410       ?support@?$LocalConvex@VCapsuleV@Gu@physx@@@Gu@physx@@UEBA?AT__m128@@AEBT4@@Z 0000000180026410 f i GuMTD.obj
 0001:00025470       ?support@?$LocalConvex@VCapsuleV@Gu@physx@@@Gu@physx@@UEBA?AT__m128@@AEBT4@AEAH@Z 0000000180026470 f i GuMTD.obj
 0001:000254e0       ?support@?$LocalConvex@VConvexHullV@Gu@physx@@@Gu@physx@@UEBA?AT__m128@@AEBT4@@Z 00000001800264e0 f i GuMTD.obj
 0001:000255c0       ?support@?$LocalConvex@VConvexHullV@Gu@physx@@@Gu@physx@@UEBA?AT__m128@@AEBT4@AEAH@Z 00000001800265c0 f i GuMTD.obj
 0001:00025690       ?support@GjkConvex@Gu@physx@@UEBA?AT__m128@@AEBT4@@Z 0000000180026690 f i GuMTD.obj
 0001:000256b0       ?support@GjkConvex@Gu@physx@@UEBA?AT__m128@@AEBT4@AEAH@Z 00000001800266b0 f i GuMTD.obj
 0001:000256d0       ?supportPoint@?$LocalConvex@VCapsuleV@Gu@physx@@@Gu@physx@@UEBA?AT__m128@@H@Z 00000001800266d0 f i GuMTD.obj
 0001:00025700       ?supportPoint@?$LocalConvex@VConvexHullV@Gu@physx@@@Gu@physx@@UEBA?AT__m128@@H@Z 0000000180026700 f i GuMTD.obj
 0001:00025750       ?supportPoint@GjkConvex@Gu@physx@@UEBA?AT__m128@@H@Z 0000000180026750 f i GuMTD.obj
 0001:00025770       ?supportPoint@?$RelativeConvex@VBoxV@Gu@physx@@@Gu@physx@@UEBA?AT__m128@@H@Z 0000000180026770 f i GuOverlapTests.obj
 0001:000257e0       ?support@?$RelativeConvex@VBoxV@Gu@physx@@@Gu@physx@@UEBA?AT__m128@@AEBT4@@Z 00000001800267e0 f i GuOverlapTests.obj
 0001:00025860       ?support@?$RelativeConvex@VBoxV@Gu@physx@@@Gu@physx@@UEBA?AT__m128@@AEBT4@AEAH@Z 0000000180026860 f i GuOverlapTests.obj
 0001:000258f0       ?getCenter@?$RelativeConvex@UCustomConvexV@@@Gu@physx@@UEBA?AT__m128@@XZ 00000001800268f0 f i GuGjkQuery.obj
 0001:000258f0       ?getCenter@?$RelativeConvex@VBoxV@Gu@physx@@@Gu@physx@@UEBA?AT__m128@@XZ 00000001800268f0 f i GuOverlapTests.obj
 0001:000258f0       ?getCenter@?$RelativeConvex@VCapsuleV@Gu@physx@@@Gu@physx@@UEBA?AT__m128@@XZ 00000001800268f0 f i GuCCDSweepPrimitives.obj
 0001:000258f0       ?getCenter@?$RelativeConvex@VConvexHullNoScaleV@Gu@physx@@@Gu@physx@@UEBA?AT__m128@@XZ 00000001800268f0 f i GuPCMContactConvexConvex.obj
 0001:000258f0       ?getCenter@?$RelativeConvex@VConvexHullV@Gu@physx@@@Gu@physx@@UEBA?AT__m128@@XZ 00000001800268f0 f i GuOverlapTests.obj
 0001:000258f0       ?getCenter@?$RelativeConvex@VTriangleV@Gu@physx@@@Gu@physx@@UEBA?AT__m128@@XZ 00000001800268f0 f i GuCCDSweepPrimitives.obj
 0001:00025930       ??_E?$RelativeConvex@UCustomConvexV@@@Gu@physx@@UEAAPEAXI@Z 0000000180026930 f i GuGjkQuery.obj
 0001:00025930       ??_E?$RelativeConvex@VBoxV@Gu@physx@@@Gu@physx@@UEAAPEAXI@Z 0000000180026930 f i GuOverlapTests.obj
 0001:00025930       ??_E?$RelativeConvex@VCapsuleV@Gu@physx@@@Gu@physx@@UEAAPEAXI@Z 0000000180026930 f i GuCCDSweepPrimitives.obj
 0001:00025930       ??_E?$RelativeConvex@VConvexHullNoScaleV@Gu@physx@@@Gu@physx@@UEAAPEAXI@Z 0000000180026930 f i GuPCMContactConvexConvex.obj
 0001:00025930       ??_E?$RelativeConvex@VConvexHullV@Gu@physx@@@Gu@physx@@UEAAPEAXI@Z 0000000180026930 f i GuOverlapTests.obj
 0001:00025930       ??_E?$RelativeConvex@VTriangleV@Gu@physx@@@Gu@physx@@UEAAPEAXI@Z 0000000180026930 f i GuCCDSweepPrimitives.obj
 0001:00025930       ??_G?$RelativeConvex@UCustomConvexV@@@Gu@physx@@UEAAPEAXI@Z 0000000180026930 f i GuGjkQuery.obj
 0001:00025930       ??_G?$RelativeConvex@VBoxV@Gu@physx@@@Gu@physx@@UEAAPEAXI@Z 0000000180026930 f i GuOverlapTests.obj
 0001:00025930       ??_G?$RelativeConvex@VCapsuleV@Gu@physx@@@Gu@physx@@UEAAPEAXI@Z 0000000180026930 f i GuCCDSweepPrimitives.obj
 0001:00025930       ??_G?$RelativeConvex@VConvexHullNoScaleV@Gu@physx@@@Gu@physx@@UEAAPEAXI@Z 0000000180026930 f i GuPCMContactConvexConvex.obj
 0001:00025930       ??_G?$RelativeConvex@VConvexHullV@Gu@physx@@@Gu@physx@@UEAAPEAXI@Z 0000000180026930 f i GuOverlapTests.obj
 0001:00025930       ??_G?$RelativeConvex@VTriangleV@Gu@physx@@@Gu@physx@@UEAAPEAXI@Z 0000000180026930 f i GuCCDSweepPrimitives.obj
 0001:00027ab0       ?supportPoint@?$RelativeConvex@VConvexHullV@Gu@physx@@@Gu@physx@@UEBA?AT__m128@@H@Z 0000000180028ab0 f i GuOverlapTests.obj
 0001:00027b30       ?support@?$RelativeConvex@VConvexHullV@Gu@physx@@@Gu@physx@@UEBA?AT__m128@@AEBT4@@Z 0000000180028b30 f i GuOverlapTests.obj
 0001:00027c60       ?support@?$RelativeConvex@VConvexHullV@Gu@physx@@@Gu@physx@@UEBA?AT__m128@@AEBT4@AEAH@Z 0000000180028c60 f i GuOverlapTests.obj
 0001:00027df0       ??$gjk@U?$RelativeConvex@VBoxV@Gu@physx@@@Gu@physx@@U?$LocalConvex@VConvexHullV@Gu@physx@@@23@@Gu@physx@@YA?AW4GjkStatus@01@AEBU?$RelativeConvex@VBoxV@Gu@physx@@@01@AEBU?$LocalConvex@VConvexHullV@Gu@physx@@@01@AEBT__m128@@2AEAT5@333@Z 0000000180028df0 f i GuOverlapTests.obj
 0001:00028ba0       ??$gjk@U?$RelativeConvex@VConvexHullV@Gu@physx@@@Gu@physx@@U?$LocalConvex@VConvexHullV@Gu@physx@@@23@@Gu@physx@@YA?AW4GjkStatus@01@AEBU?$RelativeConvex@VConvexHullV@Gu@physx@@@01@AEBU?$LocalConvex@VConvexHullV@Gu@physx@@@01@AEBT__m128@@2AEAT5@333@Z 0000000180029ba0 f i GuOverlapTests.obj
 0001:00029a20       ?ComputeCubemapNearestOffset@physx@@YAIAEBV?$PxVec3T@M@1@I@Z 000000018002aa20 f i GuOverlapTests.obj
 0001:00029b20       ?getOverlapFuncTable@Gu@physx@@YAPEAY0L@Q6A_NAEBVPxGeometry@2@AEBV?$PxTransformT@M@2@01PEAUTriggerCache@12@PEAUPxQueryThreadContext@2@@ZXZ 000000018002ab20 f   GuOverlapTests.obj
 0001:0002b6e0       ?raycast_box@@YAIAEBVPxGeometry@physx@@AEBV?$PxTransformT@M@2@AEBV?$PxVec3T@M@2@2MV?$PxFlags@W4Enum@PxHitFlag@physx@@G@2@IPEIAUPxGeomRaycastHit@2@IPEAUPxQueryThreadContext@2@@Z 000000018002c6e0 f   GuRaycastTests.obj
 0001:0002bd10       ?raycast_sphere@@YAIAEBVPxGeometry@physx@@AEBV?$PxTransformT@M@2@AEBV?$PxVec3T@M@2@2MV?$PxFlags@W4Enum@PxHitFlag@physx@@G@2@IPEIAUPxGeomRaycastHit@2@IPEAUPxQueryThreadContext@2@@Z 000000018002cd10 f   GuRaycastTests.obj
 0001:0002bea0       ?raycast_capsule@@YAIAEBVPxGeometry@physx@@AEBV?$PxTransformT@M@2@AEBV?$PxVec3T@M@2@2MV?$PxFlags@W4Enum@PxHitFlag@physx@@G@2@IPEIAUPxGeomRaycastHit@2@IPEAUPxQueryThreadContext@2@@Z 000000018002cea0 f   GuRaycastTests.obj
 0001:0002c400       ?raycast_plane@@YAIAEBVPxGeometry@physx@@AEBV?$PxTransformT@M@2@AEBV?$PxVec3T@M@2@2MV?$PxFlags@W4Enum@PxHitFlag@physx@@G@2@IPEIAUPxGeomRaycastHit@2@IPEAUPxQueryThreadContext@2@@Z 000000018002d400 f   GuRaycastTests.obj
 0001:0002c570       ?raycast_convexMesh@@YAIAEBVPxGeometry@physx@@AEBV?$PxTransformT@M@2@AEBV?$PxVec3T@M@2@2MV?$PxFlags@W4Enum@PxHitFlag@physx@@G@2@IPEIAUPxGeomRaycastHit@2@IPEAUPxQueryThreadContext@2@@Z 000000018002d570 f   GuRaycastTests.obj
 0001:0002d070       ?getMidphaseID@RTreeTriangleMesh@Gu@physx@@UEBA?AW4Enum@PxMeshMidPhase@3@XZ 000000018002e070 f   GuTriangleMeshRTree.obj
 0001:0002d070       ?getMidphaseID@RTreeTriangleMeshBuilder@physx@@UEBA?AW4Enum@PxMeshMidPhase@2@XZ 000000018002e070 f   GuCookingTriangleMesh.obj
 0001:0002d070       ?getTetrahedraRemap@TetrahedronMesh@Gu@physx@@UEBAPEBIXZ 000000018002e070 f   GuTetrahedronMesh.obj
 0001:0002d070       ?raycast_hairsystem@@YAIAEBVPxGeometry@physx@@AEBV?$PxTransformT@M@2@AEBV?$PxVec3T@M@2@2MV?$PxFlags@W4Enum@PxHitFlag@physx@@G@2@IPEIAUPxGeomRaycastHit@2@IPEAUPxQueryThreadContext@2@@Z 000000018002e070 f   GuRaycastTests.obj
 0001:0002d070       ?raycast_particlesystem@@YAIAEBVPxGeometry@physx@@AEBV?$PxTransformT@M@2@AEBV?$PxVec3T@M@2@2MV?$PxFlags@W4Enum@PxHitFlag@physx@@G@2@IPEIAUPxGeomRaycastHit@2@IPEAUPxQueryThreadContext@2@@Z 000000018002e070 f   GuRaycastTests.obj
 0001:0002d070       ?raycast_softbody@@YAIAEBVPxGeometry@physx@@AEBV?$PxTransformT@M@2@AEBV?$PxVec3T@M@2@2MV?$PxFlags@W4Enum@PxHitFlag@physx@@G@2@IPEIAUPxGeomRaycastHit@2@IPEAUPxQueryThreadContext@2@@Z 000000018002e070 f   GuRaycastTests.obj
 0001:0002d080       ?raycast_triangleMesh@@YAIAEBVPxGeometry@physx@@AEBV?$PxTransformT@M@2@AEBV?$PxVec3T@M@2@2MV?$PxFlags@W4Enum@PxHitFlag@physx@@G@2@IPEIAUPxGeomRaycastHit@2@IPEAUPxQueryThreadContext@2@@Z 000000018002e080 f   GuRaycastTests.obj
 0001:0002d110       ?raycast_heightField@@YAIAEBVPxGeometry@physx@@AEBV?$PxTransformT@M@2@AEBV?$PxVec3T@M@2@2MV?$PxFlags@W4Enum@PxHitFlag@physx@@G@2@IPEIAUPxGeomRaycastHit@2@IPEAUPxQueryThreadContext@2@@Z 000000018002e110 f   GuRaycastTests.obj
 0001:0002eb60       ??Dphysx@@YA?AV?$PxMat34T@M@0@AEBVPxMeshScale@0@AEBV?$PxTransformT@M@0@@Z 000000018002fb60 f i GuRaycastTests.obj
 0001:0002f650       ?getRaycastFuncTable@Gu@physx@@YAAEAY0L@Q6AIAEBVPxGeometry@2@AEBV?$PxTransformT@M@2@AEBV?$PxVec3T@M@2@2MV?$PxFlags@W4Enum@PxHitFlag@physx@@G@2@IPEIAUPxGeomRaycastHit@2@IPEAUPxQueryThreadContext@2@@ZXZ 0000000180030650 f   GuRaycastTests.obj
 0001:0002f660       ??Dphysx@@YA?AV?$PxMat34T@M@0@AEBV?$PxTransformT@M@0@AEBVPxMeshScale@0@@Z 0000000180030660 f i GuSweepMTD.obj
 0001:0002fbb0       ??_E?$MeshHitCallback@UPxGeomRaycastHit@physx@@@Gu@physx@@UEAAPEAXI@Z 0000000180030bb0 f i GuSweepMTD.obj
 0001:0002fbb0       ??_G?$MeshHitCallback@UPxGeomRaycastHit@physx@@@Gu@physx@@UEAAPEAXI@Z 0000000180030bb0 f i GuSweepMTD.obj
 0001:0002fbe0       ??_EMeshMTDGenerationCallback@@UEAAPEAXI@Z 0000000180030be0 f i GuSweepMTD.obj
 0001:0002fbe0       ??_GMeshMTDGenerationCallback@@UEAAPEAXI@Z 0000000180030be0 f i GuSweepMTD.obj
 0001:0002fc10       ??_EMidPhaseQueryLocalReport@@UEAAPEAXI@Z 0000000180030c10 f i GuSweepMTD.obj
 0001:0002fc10       ??_ERTreeCookerRemap@@UEAAPEAXI@Z 0000000180030c10 f i GuCookingTriangleMesh.obj
 0001:0002fc10       ??_GMidPhaseQueryLocalReport@@UEAAPEAXI@Z 0000000180030c10 f i GuSweepMTD.obj
 0001:0002fc10       ??_GRTreeCookerRemap@@UEAAPEAXI@Z 0000000180030c10 f i GuCookingTriangleMesh.obj
 0001:0002fc40       ?allocate@?$PxArray@IV?$PxReflectionAllocator@I@physx@@@physx@@IEAAPEAII@Z 0000000180030c40 f i GuSweepMTD.obj
 0001:0002fcd0       ?computeBox_HeightFieldMTD@Gu@physx@@YA_NAEBVPxHeightFieldGeometry@2@AEBV?$PxTransformT@M@2@AEBVBox@12@1M_NAEAUPxGeomSweepHit@2@@Z 0000000180030cd0 f   GuSweepMTD.obj
 0001:00030a90       ?computeBox_TriangleMeshMTD@Gu@physx@@YA_NAEBVPxTriangleMeshGeometry@2@AEBV?$PxTransformT@M@2@AEBVBox@12@1M_NAEAUPxGeomSweepHit@2@@Z 0000000180031a90 f   GuSweepMTD.obj
 0001:00031ad0       ?computeCapsule_CapsuleMTD@Gu@physx@@YA_NAEBVCapsule@12@0AEAUPxGeomSweepHit@2@@Z 0000000180032ad0 f   GuSweepMTD.obj
 0001:00031d10       ?computeCapsule_HeightFieldMTD@Gu@physx@@YA_NAEBVPxHeightFieldGeometry@2@AEBV?$PxTransformT@M@2@AEAVCapsuleV@12@M_NAEAUPxGeomSweepHit@2@@Z 0000000180032d10 f   GuSweepMTD.obj
 0001:000324e0       ?computeCapsule_TriangleMeshMTD@Gu@physx@@YA_NAEBVPxTriangleMeshGeometry@2@AEBV?$PxTransformT@M@2@AEAVCapsuleV@12@M_NAEAUPxGeomSweepHit@2@@Z 00000001800334e0 f   GuSweepMTD.obj
 0001:00032d90       ?computeConvex_HeightFieldMTD@Gu@physx@@YA_NAEBVPxHeightFieldGeometry@2@AEBV?$PxTransformT@M@2@AEBVPxConvexMeshGeometry@2@1M_NAEAUPxGeomSweepHit@2@@Z 0000000180033d90 f   GuSweepMTD.obj
 0001:00034060       ?computeConvex_TriangleMeshMTD@Gu@physx@@YA_NAEBVPxTriangleMeshGeometry@2@AEBV?$PxTransformT@M@2@AEBVPxConvexMeshGeometry@2@1M_NAEAUPxGeomSweepHit@2@@Z 0000000180035060 f   GuSweepMTD.obj
 0001:00035660       ?computePlane_BoxMTD@Gu@physx@@YA_NAEBVPxPlane@2@AEBVBox@12@AEAUPxGeomSweepHit@2@@Z 0000000180036660 f   GuSweepMTD.obj
 0001:00035900       ?computePlane_CapsuleMTD@Gu@physx@@YA_NAEBVPxPlane@2@AEBVCapsule@12@AEAUPxGeomSweepHit@2@@Z 0000000180036900 f   GuSweepMTD.obj
 0001:00035a10       ?computePlane_ConvexMTD@Gu@physx@@YA_NAEBVPxPlane@2@AEBVPxConvexMeshGeometry@2@AEBV?$PxTransformT@M@2@AEAUPxGeomSweepHit@2@@Z 0000000180036a10 f   GuSweepMTD.obj
 0001:000365d0       ?computeSphere_CapsuleMTD@Gu@physx@@YA_NAEBVSphere@12@AEBVCapsule@12@AEAUPxGeomSweepHit@2@@Z 00000001800375d0 f   GuSweepMTD.obj
 0001:00036780       ?computeSphere_SphereMTD@Gu@physx@@YA_NAEBVSphere@12@0AEAUPxGeomSweepHit@2@@Z 0000000180037780 f   GuSweepMTD.obj
 0001:00036870       ?getInverse@?$PxMat33T@M@physx@@QEBA?BV12@XZ 0000000180037870 f i GuSweepMTD.obj
 0001:00036ac0       ?growAndPushBack@?$PxArray@IV?$PxReflectionAllocator@I@physx@@@physx@@IEAAAEAIAEBI@Z 0000000180037ac0 f i GuSweepMTD.obj
 0001:00036b80       ?init@FastVertex2ShapeScaling@Cm@physx@@QEAAXAEBV?$PxVec3T@M@3@AEBV?$PxQuatT@M@3@@Z 0000000180037b80 f i GuSweepMTD.obj
 0001:00037490       ?processHit@MeshMTDGenerationCallback@@UEAA_NAEBUPxGeomRaycastHit@physx@@AEBV?$PxVec3T@M@3@11AEAMPEBI@Z 0000000180038490 f i GuSweepMTD.obj
 0001:000374e0       ?recreate@?$PxArray@IV?$PxReflectionAllocator@I@physx@@@physx@@IEAAXI@Z 00000001800384e0 f i GuSweepMTD.obj
 0001:00037580       ?reportTouchedTris@MidPhaseQueryLocalReport@@UEAA_NIPEBI@Z 0000000180038580 f i GuSweepMTD.obj
 0001:000375f0       ??$gjkPenetration@U?$LocalConvex@VCapsuleV@Gu@physx@@@Gu@physx@@U?$LocalConvex@VConvexHullV@Gu@physx@@@23@@Gu@physx@@YA?AW4GjkStatus@01@AEBU?$LocalConvex@VCapsuleV@Gu@physx@@@01@AEBU?$LocalConvex@VConvexHullV@Gu@physx@@@01@AEBT__m128@@2_NPEIAE4AEAEAEAUGjkOutput@01@@Z 00000001800385f0 f i GuSweepSharedTests.obj
 0001:00037660       ??$gjkPenetration@U?$LocalConvex@VCapsuleV@Gu@physx@@@Gu@physx@@U?$LocalConvex@VConvexHullV@Gu@physx@@@23@@Gu@physx@@YA?AW4GjkStatus@01@AEBU?$LocalConvex@VCapsuleV@Gu@physx@@@01@AEBU?$LocalConvex@VConvexHullV@Gu@physx@@@01@AEBT__m128@@2_NPEIAE4PEIAT5@5AEAEAEAUGjkOutput@01@@Z 0000000180038660 f i GuSweepSharedTests.obj
 0001:00038b90       ??$gjkPenetration@U?$RelativeConvex@VBoxV@Gu@physx@@@Gu@physx@@U?$LocalConvex@VConvexHullV@Gu@physx@@@23@@Gu@physx@@YA?AW4GjkStatus@01@AEBU?$RelativeConvex@VBoxV@Gu@physx@@@01@AEBU?$LocalConvex@VConvexHullV@Gu@physx@@@01@AEBT__m128@@2_NPEIAE4AEAEAEAUGjkOutput@01@@Z 0000000180039b90 f i GuSweepSharedTests.obj
 0001:00038c00       ??$gjkPenetration@U?$RelativeConvex@VBoxV@Gu@physx@@@Gu@physx@@U?$LocalConvex@VConvexHullV@Gu@physx@@@23@@Gu@physx@@YA?AW4GjkStatus@01@AEBU?$RelativeConvex@VBoxV@Gu@physx@@@01@AEBU?$LocalConvex@VConvexHullV@Gu@physx@@@01@AEBT__m128@@2_NPEIAE4PEIAT5@5AEAEAEAUGjkOutput@01@@Z 0000000180039c00 f i GuSweepSharedTests.obj
 0001:0003a170       ??$gjkPenetration@U?$RelativeConvex@VConvexHullV@Gu@physx@@@Gu@physx@@U?$LocalConvex@VConvexHullV@Gu@physx@@@23@@Gu@physx@@YA?AW4GjkStatus@01@AEBU?$RelativeConvex@VConvexHullV@Gu@physx@@@01@AEBU?$LocalConvex@VConvexHullV@Gu@physx@@@01@AEBT__m128@@2_NPEIAE4AEAEAEAUGjkOutput@01@@Z 000000018003b170 f i GuSweepSharedTests.obj
 0001:0003a1e0       ??$gjkPenetration@U?$RelativeConvex@VConvexHullV@Gu@physx@@@Gu@physx@@U?$LocalConvex@VConvexHullV@Gu@physx@@@23@@Gu@physx@@YA?AW4GjkStatus@01@AEBU?$RelativeConvex@VConvexHullV@Gu@physx@@@01@AEBU?$LocalConvex@VConvexHullV@Gu@physx@@@01@AEBT__m128@@2_NPEIAE4PEIAT5@5AEAEAEAUGjkOutput@01@@Z 000000018003b1e0 f i GuSweepSharedTests.obj
 0001:0003b800       ??$gjkRaycast@U?$LocalConvex@VCapsuleV@Gu@physx@@@Gu@physx@@U?$LocalConvex@VConvexHullV@Gu@physx@@@23@@Gu@physx@@YA_NAEBU?$LocalConvex@VCapsuleV@Gu@physx@@@01@AEBU?$LocalConvex@VConvexHullV@Gu@physx@@@01@AEBT__m128@@222AEAT4@33M@Z 000000018003c800 f i GuSweepSharedTests.obj
 0001:0003c550       ??$gjkRaycast@U?$RelativeConvex@VBoxV@Gu@physx@@@Gu@physx@@U?$LocalConvex@VConvexHullV@Gu@physx@@@23@@Gu@physx@@YA_NAEBU?$RelativeConvex@VBoxV@Gu@physx@@@01@AEBU?$LocalConvex@VConvexHullV@Gu@physx@@@01@AEBT__m128@@222AEAT4@33M@Z 000000018003d550 f i GuSweepSharedTests.obj
 0001:0003d340       ??$gjkRaycast@U?$RelativeConvex@VConvexHullV@Gu@physx@@@Gu@physx@@U?$LocalConvex@VConvexHullV@Gu@physx@@@23@@Gu@physx@@YA_NAEBU?$RelativeConvex@VConvexHullV@Gu@physx@@@01@AEBU?$LocalConvex@VConvexHullV@Gu@physx@@@01@AEBT__m128@@222AEAT4@33M@Z 000000018003e340 f i GuSweepSharedTests.obj
 0001:0003e120       ??$gjkRaycastPenetration@U?$RelativeConvex@VConvexHullV@Gu@physx@@@Gu@physx@@U?$LocalConvex@VConvexHullV@Gu@physx@@@23@@Gu@physx@@YA_NAEBU?$RelativeConvex@VConvexHullV@Gu@physx@@@01@AEBU?$LocalConvex@VConvexHullV@Gu@physx@@@01@AEBT__m128@@222AEAT4@33M_N@Z 000000018003f120 f i GuSweepSharedTests.obj
 0001:0003ecf0       ?sweepBox_ConvexGeom@@YA_NAEBVPxGeometry@physx@@AEBV?$PxTransformT@M@2@AEBVPxBoxGeometry@2@1AEBVBox@Gu@2@AEBV?$PxVec3T@M@2@MAEAUPxGeomSweepHit@2@V?$PxFlags@W4Enum@PxHitFlag@physx@@G@2@MPEAUPxQueryThreadContext@2@@Z 000000018003fcf0 f   GuSweepSharedTests.obj
 0001:0003fb10       ?sweepBox_PlaneGeom@@YA_NAEBVPxGeometry@physx@@AEBV?$PxTransformT@M@2@AEBVPxBoxGeometry@2@1AEBVBox@Gu@2@AEBV?$PxVec3T@M@2@MAEAUPxGeomSweepHit@2@V?$PxFlags@W4Enum@PxHitFlag@physx@@G@2@MPEAUPxQueryThreadContext@2@@Z 0000000180040b10 f   GuSweepSharedTests.obj
 0001:0003fee0       ?sweepCapsuleTriangles@Gu@physx@@YA_NIPEBVPxTriangle@2@_NAEBVPxCapsuleGeometry@2@AEBV?$PxTransformT@M@2@AEBV?$PxVec3T@M@2@MAEAUPxGeomSweepHit@2@PEBIMV?$PxFlags@W4Enum@PxHitFlag@physx@@G@2@@Z 0000000180040ee0 f   GuSweepSharedTests.obj
 0001:000400d0       ?sweepCapsule_CapsuleGeom@@YA_NAEBVPxGeometry@physx@@AEBV?$PxTransformT@M@2@AEBVPxCapsuleGeometry@2@1AEBVCapsule@Gu@2@AEBV?$PxVec3T@M@2@MAEAUPxGeomSweepHit@2@V?$PxFlags@W4Enum@PxHitFlag@physx@@G@2@MPEAUPxQueryThreadContext@2@@Z 00000001800410d0 f   GuSweepSharedTests.obj
 0001:000402b0       ?sweepCapsule_ConvexGeom@@YA_NAEBVPxGeometry@physx@@AEBV?$PxTransformT@M@2@AEBVPxCapsuleGeometry@2@1AEBVCapsule@Gu@2@AEBV?$PxVec3T@M@2@MAEAUPxGeomSweepHit@2@V?$PxFlags@W4Enum@PxHitFlag@physx@@G@2@MPEAUPxQueryThreadContext@2@@Z 00000001800412b0 f   GuSweepSharedTests.obj
 0001:00040fe0       ?sweepCapsule_PlaneGeom@@YA_NAEBVPxGeometry@physx@@AEBV?$PxTransformT@M@2@AEBVPxCapsuleGeometry@2@1AEBVCapsule@Gu@2@AEBV?$PxVec3T@M@2@MAEAUPxGeomSweepHit@2@V?$PxFlags@W4Enum@PxHitFlag@physx@@G@2@MPEAUPxQueryThreadContext@2@@Z 0000000180041fe0 f   GuSweepSharedTests.obj
 0001:000412c0       ?sweepCapsule_SphereGeom@@YA_NAEBVPxGeometry@physx@@AEBV?$PxTransformT@M@2@AEBVPxCapsuleGeometry@2@1AEBVCapsule@Gu@2@AEBV?$PxVec3T@M@2@MAEAUPxGeomSweepHit@2@V?$PxFlags@W4Enum@PxHitFlag@physx@@G@2@MPEAUPxQueryThreadContext@2@@Z 00000001800422c0 f   GuSweepSharedTests.obj
 0001:00041460       ?sweepConvex_BoxGeom@@YA_NAEBVPxGeometry@physx@@AEBV?$PxTransformT@M@2@AEBVPxConvexMeshGeometry@2@1AEBV?$PxVec3T@M@2@MAEAUPxGeomSweepHit@2@V?$PxFlags@W4Enum@PxHitFlag@physx@@G@2@MPEAUPxQueryThreadContext@2@@Z 0000000180042460 f   GuSweepSharedTests.obj
 0001:00041680       ?sweepConvex_CapsuleGeom@@YA_NAEBVPxGeometry@physx@@AEBV?$PxTransformT@M@2@AEBVPxConvexMeshGeometry@2@1AEBV?$PxVec3T@M@2@MAEAUPxGeomSweepHit@2@V?$PxFlags@W4Enum@PxHitFlag@physx@@G@2@MPEAUPxQueryThreadContext@2@@Z 0000000180042680 f   GuSweepSharedTests.obj
 0001:000418b0       ?sweepConvex_ConvexGeom@@YA_NAEBVPxGeometry@physx@@AEBV?$PxTransformT@M@2@AEBVPxConvexMeshGeometry@2@1AEBV?$PxVec3T@M@2@MAEAUPxGeomSweepHit@2@V?$PxFlags@W4Enum@PxHitFlag@physx@@G@2@MPEAUPxQueryThreadContext@2@@Z 00000001800428b0 f   GuSweepSharedTests.obj
 0001:00042890       ?sweepConvex_PlaneGeom@@YA_NAEBVPxGeometry@physx@@AEBV?$PxTransformT@M@2@AEBVPxConvexMeshGeometry@2@1AEBV?$PxVec3T@M@2@MAEAUPxGeomSweepHit@2@V?$PxFlags@W4Enum@PxHitFlag@physx@@G@2@MPEAUPxQueryThreadContext@2@@Z 0000000180043890 f   GuSweepSharedTests.obj
 0001:00042cd0       ?sweepConvex_SphereGeom@@YA_NAEBVPxGeometry@physx@@AEBV?$PxTransformT@M@2@AEBVPxConvexMeshGeometry@2@1AEBV?$PxVec3T@M@2@MAEAUPxGeomSweepHit@2@V?$PxFlags@W4Enum@PxHitFlag@physx@@G@2@MPEAUPxQueryThreadContext@2@@Z 0000000180043cd0 f   GuSweepSharedTests.obj
 0001:000438d0       ?sweepCapsule_BoxGeom@@YA_NAEBVPxGeometry@physx@@AEBV?$PxTransformT@M@2@AEBVPxCapsuleGeometry@2@1AEBVCapsule@Gu@2@AEBV?$PxVec3T@M@2@MAEAUPxGeomSweepHit@2@V?$PxFlags@W4Enum@PxHitFlag@physx@@G@2@MPEAUPxQueryThreadContext@2@@Z 00000001800448d0 f   GuSweepTests.obj
 0001:00044190       ?sweepBox_SphereGeom@@YA_NAEBVPxGeometry@physx@@AEBV?$PxTransformT@M@2@AEBVPxBoxGeometry@2@1AEBVBox@Gu@2@AEBV?$PxVec3T@M@2@MAEAUPxGeomSweepHit@2@V?$PxFlags@W4Enum@PxHitFlag@physx@@G@2@MPEAUPxQueryThreadContext@2@@Z 0000000180045190 f   GuSweepTests.obj
 0001:00044870       ?sweepBox_CapsuleGeom@@YA_NAEBVPxGeometry@physx@@AEBV?$PxTransformT@M@2@AEBVPxBoxGeometry@2@1AEBVBox@Gu@2@AEBV?$PxVec3T@M@2@MAEAUPxGeomSweepHit@2@V?$PxFlags@W4Enum@PxHitFlag@physx@@G@2@MPEAUPxQueryThreadContext@2@@Z 0000000180045870 f   GuSweepTests.obj
 0001:00045140       ?sweepBox_BoxGeom@@YA_NAEBVPxGeometry@physx@@AEBV?$PxTransformT@M@2@AEBVPxBoxGeometry@2@1AEBVBox@Gu@2@AEBV?$PxVec3T@M@2@MAEAUPxGeomSweepHit@2@V?$PxFlags@W4Enum@PxHitFlag@physx@@G@2@MPEAUPxQueryThreadContext@2@@Z 0000000180046140 f   GuSweepTests.obj
 0001:00045b40       ??$gjkPenetration@U?$LocalConvex@VCapsuleV@Gu@physx@@@Gu@physx@@U?$LocalConvex@VBoxV@Gu@physx@@@23@@Gu@physx@@YA?AW4GjkStatus@01@AEBU?$LocalConvex@VCapsuleV@Gu@physx@@@01@AEBU?$LocalConvex@VBoxV@Gu@physx@@@01@AEBT__m128@@2_NPEIAE4AEAEAEAUGjkOutput@01@@Z 0000000180046b40 f i GuSweepTests.obj
 0001:00045bb0       ??$gjkPenetration@U?$LocalConvex@VCapsuleV@Gu@physx@@@Gu@physx@@U?$LocalConvex@VBoxV@Gu@physx@@@23@@Gu@physx@@YA?AW4GjkStatus@01@AEBU?$LocalConvex@VCapsuleV@Gu@physx@@@01@AEBU?$LocalConvex@VBoxV@Gu@physx@@@01@AEBT__m128@@2_NPEIAE4PEIAT5@5AEAEAEAUGjkOutput@01@@Z 0000000180046bb0 f i GuSweepTests.obj
 0001:00047030       ??$gjkPenetration@U?$RelativeConvex@VBoxV@Gu@physx@@@Gu@physx@@U?$LocalConvex@VBoxV@Gu@physx@@@23@@Gu@physx@@YA?AW4GjkStatus@01@AEBU?$RelativeConvex@VBoxV@Gu@physx@@@01@AEBU?$LocalConvex@VBoxV@Gu@physx@@@01@AEBT__m128@@2_NPEIAE4AEAEAEAUGjkOutput@01@@Z 0000000180048030 f i GuSweepTests.obj
 0001:000470a0       ??$gjkPenetration@U?$RelativeConvex@VBoxV@Gu@physx@@@Gu@physx@@U?$LocalConvex@VBoxV@Gu@physx@@@23@@Gu@physx@@YA?AW4GjkStatus@01@AEBU?$RelativeConvex@VBoxV@Gu@physx@@@01@AEBU?$LocalConvex@VBoxV@Gu@physx@@@01@AEBT__m128@@2_NPEIAE4PEIAT5@5AEAEAEAUGjkOutput@01@@Z 00000001800480a0 f i GuSweepTests.obj
 0001:00048550       ??$gjkRaycast@U?$LocalConvex@VCapsuleV@Gu@physx@@@Gu@physx@@U?$LocalConvex@VBoxV@Gu@physx@@@23@@Gu@physx@@YA_NAEBU?$LocalConvex@VCapsuleV@Gu@physx@@@01@AEBU?$LocalConvex@VBoxV@Gu@physx@@@01@AEBT__m128@@222AEAT4@33M@Z 0000000180049550 f i GuSweepTests.obj
 0001:00049120       ??$gjkRaycast@U?$LocalConvex@VTriangleV@Gu@physx@@@Gu@physx@@U?$LocalConvex@VBoxV@Gu@physx@@@23@@Gu@physx@@YA_NAEBU?$LocalConvex@VTriangleV@Gu@physx@@@01@AEBU?$LocalConvex@VBoxV@Gu@physx@@@01@AEBT__m128@@222AEAT4@33M@Z 000000018004a120 f i GuSweepTests.obj
 0001:00049d70       ??$gjkRaycast@U?$RelativeConvex@VBoxV@Gu@physx@@@Gu@physx@@U?$LocalConvex@VBoxV@Gu@physx@@@23@@Gu@physx@@YA_NAEBU?$RelativeConvex@VBoxV@Gu@physx@@@01@AEBU?$LocalConvex@VBoxV@Gu@physx@@@01@AEBT__m128@@222AEAT4@33M@Z 000000018004ad70 f i GuSweepTests.obj
 0001:0004a9a0       ?getSweepFuncTable@Gu@physx@@YAAEBUGeomSweepFuncs@12@XZ 000000018004b9a0 f   GuSweepTests.obj
 0001:0004a9b0       ?getSweepMargin@?$LocalConvex@VTetrahedronV@Gu@physx@@@Gu@physx@@UEBA?AT__m128@@XZ 000000018004b9b0 f i GuCookingTetrahedronMesh.obj
 0001:0004a9b0       ?getSweepMargin@?$LocalConvex@VTriangleV@Gu@physx@@@Gu@physx@@UEBA?AT__m128@@XZ 000000018004b9b0 f i GuSweepTests.obj
 0001:0004a9b0       ?getSweepMargin@?$RelativeConvex@VTriangleV@Gu@physx@@@Gu@physx@@UEBA?AT__m128@@XZ 000000018004b9b0 f i GuCCDSweepPrimitives.obj
 0001:0004a9c0       ?support@?$LocalConvex@VBoxV@Gu@physx@@@Gu@physx@@UEBA?AT__m128@@AEBT4@@Z 000000018004b9c0 f i GuSweepTests.obj
 0001:0004a9f0       ?support@?$LocalConvex@VBoxV@Gu@physx@@@Gu@physx@@UEBA?AT__m128@@AEBT4@AEAH@Z 000000018004b9f0 f i GuSweepTests.obj
 0001:0004aa30       ?support@?$LocalConvex@VTriangleV@Gu@physx@@@Gu@physx@@UEBA?AT__m128@@AEBT4@@Z 000000018004ba30 f i GuSweepTests.obj
 0001:0004aac0       ?support@?$LocalConvex@VTriangleV@Gu@physx@@@Gu@physx@@UEBA?AT__m128@@AEBT4@AEAH@Z 000000018004bac0 f i GuSweepTests.obj
 0001:0004aba0       ?supportPoint@?$LocalConvex@VBoxV@Gu@physx@@@Gu@physx@@UEBA?AT__m128@@H@Z 000000018004bba0 f i GuSweepTests.obj
 0001:0004abe0       ?supportPoint@?$LocalConvex@VTetrahedronV@Gu@physx@@@Gu@physx@@UEBA?AT__m128@@H@Z 000000018004bbe0 f i GuCookingTetrahedronMesh.obj
 0001:0004abe0       ?supportPoint@?$LocalConvex@VTriangleV@Gu@physx@@@Gu@physx@@UEBA?AT__m128@@H@Z 000000018004bbe0 f i GuSweepTests.obj
 0001:0004ac00       ?sweepBoxTriangles@Gu@physx@@YA_NIPEBVPxTriangle@2@_NAEBVPxBoxGeometry@2@AEBV?$PxTransformT@M@2@AEBV?$PxVec3T@M@2@MAEAUPxGeomSweepHit@2@PEBIMV?$PxFlags@W4Enum@PxHitFlag@physx@@G@2@@Z 000000018004bc00 f   GuSweepTests.obj
 0001:0004b680       ??$PxSmallSort@H$$CBU?$Comparer@V?$PxVec3T@M@physx@@@MeshAnalyzer@Gu@physx@@@physx@@YAXPEAHHHAEBU?$Comparer@V?$PxVec3T@M@physx@@@MeshAnalyzer@Gu@0@@Z 000000018004c680 f i GuSDF.obj
 0001:0004b8a0       ??$PxSort@HU?$Comparer@V?$PxVec3T@M@physx@@@MeshAnalyzer@Gu@physx@@V?$PxReflectionAllocator@H@4@@physx@@YAXPEAHIAEBU?$Comparer@V?$PxVec3T@M@physx@@@MeshAnalyzer@Gu@0@AEBV?$PxReflectionAllocator@H@0@I@Z 000000018004c8a0 f i GuSDF.obj
 0001:0004bd20       ??$PxSort@HU?$PxLess@H@physx@@V?$PxReflectionAllocator@H@2@@physx@@YAXPEAHIAEBU?$PxLess@H@0@AEBV?$PxReflectionAllocator@H@0@I@Z 000000018004cd20 f i GuSDF.obj
 0001:0004c170       ??$mapDuplicatePoints@V?$PxVec3T@M@physx@@M@MeshAnalyzer@Gu@physx@@SAXPEBV?$PxVec3T@M@2@IAEAV?$PxArray@HV?$PxReflectionAllocator@H@physx@@@2@M@Z 000000018004d170 f i GuSDF.obj
 0001:0004c4f0       ??$splitRanges@V?$PxVec3T@M@physx@@M@MeshAnalyzer@Gu@physx@@CAXAEAV?$PxArray@URange@MeshAnalyzer@Gu@physx@@V?$PxReflectionAllocator@URange@MeshAnalyzer@Gu@physx@@@4@@2@AEBV?$PxArray@HV?$PxReflectionAllocator@H@physx@@@2@PEBV?$PxVec3T@M@2@HM@Z 000000018004d4f0 f i GuSDF.obj
 0001:0004c760       ??$traverseBVH@VClosestDistanceToTrimeshTraversalController@Gu@physx@@@Gu@physx@@YAXPEBUBVHNode@01@AEAVClosestDistanceToTrimeshTraversalController@01@H@Z 000000018004d760 f i GuSDF.obj
 0001:0004cb60       ??$traverseBVH@VLineSegmentTrimeshIntersectionTraversalController@Gu@physx@@@Gu@physx@@YAXPEBUBVHNode@01@AEAVLineSegmentTrimeshIntersectionTraversalController@01@H@Z 000000018004db60 f i GuSDF.obj
 0001:0004d060       ??1SDF@Gu@physx@@QEAA@XZ   000000018004e060 f   GuSDF.obj
 0001:0004d0f0       ??_E?$PxThreadT@V?$PxReflectionAllocator@VPxThreadImpl@physx@@@physx@@@physx@@UEAAPEAXI@Z 000000018004e0f0 f i GuSDF.obj
 0001:0004d0f0       ??_G?$PxThreadT@V?$PxReflectionAllocator@VPxThreadImpl@physx@@@physx@@@physx@@UEAAPEAXI@Z 000000018004e0f0 f i GuSDF.obj
 0001:0004d1a0       ??_EPxRunnable@physx@@UEAAPEAXI@Z 000000018004e1a0 f i GuSDF.obj
 0001:0004d1a0       ??_GPxRunnable@physx@@UEAAPEAXI@Z 000000018004e1a0 f i GuSDF.obj
 0001:0004d1d0       ?PxCreatePointOntoTriangleMeshProjector@Gu@physx@@YAPEAVPxPointOntoTriangleMeshProjector@12@PEBV?$PxVec3T@M@2@PEBII@Z 000000018004e1d0 f   GuSDF.obj
 0001:0004d2d0       ?SDFUsingWindingNumbers@Gu@physx@@YAXAEAV?$PxArray@UBVHNode@Gu@physx@@V?$PxReflectionAllocator@UBVHNode@Gu@physx@@@3@@2@AEAV?$PxHashMap@IU?$ClusterApproximationT@MV?$PxVec3T@M@physx@@@Gu@physx@@U?$PxHash@I@3@VPxAllocator@3@@2@PEBV?$PxVec3T@M@2@PEBIIIIIPEAMAEAVGridQueryPointSampler@12@PEAV52@I_N7@Z 000000018004e2d0 f   GuSDF.obj
 0001:0004d7f0       ?SDFUsingWindingNumbers@Gu@physx@@YAXPEBV?$PxVec3T@M@2@PEBIIIIIPEAMV32@3PEAV32@_NI@Z 000000018004e7f0 f   GuSDF.obj
 0001:0004db50       ?SDFUsingWindingNumbersSparse@Gu@physx@@YAXPEBV?$PxVec3T@M@2@PEBIIIIIAEBV32@2MIAEAV?$PxArray@MV?$PxReflectionAllocator@M@physx@@@2@AEAV?$PxArray@IV?$PxReflectionAllocator@I@physx@@@2@33AEAM5I@Z 000000018004eb50 f   GuSDF.obj
 0001:0004e960       ?allocate@?$PxArray@HV?$PxInlineAllocator@$0EAA@V?$PxReflectionAllocator@H@physx@@@physx@@@physx@@IEAAPEAHI@Z 000000018004f960 f i GuSDF.obj
 0001:0004ea20       ?allocate@?$PxArray@MV?$PxReflectionAllocator@M@physx@@@physx@@IEAAPEAMI@Z 000000018004fa20 f i GuSDF.obj
 0001:0004eab0       ?allocateSdfs@SDF@Gu@physx@@QEAAPEAMAEBV?$PxVec3T@M@3@AEBMIIIIIIIMMI@Z 000000018004fab0 f   GuSDF.obj
 0001:0004ecc0       ?analyzeAndFixMesh@Gu@physx@@YAXPEBV?$PxVec3T@M@2@PEBIIAEAV?$PxArray@IV?$PxReflectionAllocator@I@physx@@@2@@Z 000000018004fcc0 f   GuSDF.obj
 0001:0004f520       ?buildTree@Gu@physx@@YAXPEBIIPEBV?$PxVec3T@M@2@AEAV?$PxArray@UBVHNode@Gu@physx@@V?$PxReflectionAllocator@UBVHNode@Gu@physx@@@3@@2@M@Z 0000000180050520 f   GuSDF.obj
 0001:0004f750       ?computeSDFThreadJob@Gu@physx@@YAPEAXPEAX@Z 0000000180050750 f   GuSDF.obj
 0001:000501d0       ?convertSparseSDFTo3DTextureLayout@Gu@physx@@YAXIIIIPEAIPEBMIAEAV?$PxArray@MV?$PxReflectionAllocator@M@physx@@@2@AEAI33@Z 00000001800511d0 f   GuSDF.obj
 0001:00050580       ?create@?$PxHashBase@V?$PxPair@$$CBUSortedTriangle@Gu@physx@@H@physx@@USortedTriangle@Gu@2@UTriangleHash@42@UGetKey@?$PxHashMapBase@USortedTriangle@Gu@physx@@HUTriangleHash@23@VPxAllocator@3@@2@VPxAllocator@2@$00@physx@@QEAAPEAV?$PxPair@$$CBUSortedTriangle@Gu@physx@@H@2@AEBUSortedTriangle@Gu@2@AEA_N@Z 0000000180051580 f i GuSDF.obj
 0001:000506b0       ?create@?$PxHashBase@V?$PxPair@$$CB_KH@physx@@_KU?$PxHash@_K@2@UGetKey@?$PxHashMapBase@_KHU?$PxHash@_K@physx@@VPxAllocator@2@@2@VPxAllocator@2@$00@physx@@QEAAPEAV?$PxPair@$$CB_KH@2@AEB_KAEA_N@Z 00000001800516b0 f i GuMeshAnalysis.obj
 0001:000506b0       ?create@?$PxHashBase@V?$PxPair@$$CB_KI@physx@@_KU?$PxHash@_K@2@UGetKey@?$PxHashMapBase@_KIU?$PxHash@_K@physx@@VPxAllocator@2@@2@VPxAllocator@2@$00@physx@@QEAAPEAV?$PxPair@$$CB_KI@2@AEB_KAEA_N@Z 00000001800516b0 f i GuSDF.obj
 0001:00050840       ?createTriangles@Gu@physx@@YAXHHHMQEAMAEBV?$PxHashMap@_KIU?$PxHash@_K@physx@@VPxAllocator@2@@2@AEBV?$PxArray@V?$PxVec3T@M@physx@@V?$PxReflectionAllocator@V?$PxVec3T@M@physx@@@2@@2@AEAV?$PxArray@IV?$PxReflectionAllocator@I@physx@@@2@@Z 0000000180051840 f   GuSDF.obj
 0001:000510a0       ?extractIsosurfaceFromSDF@Gu@physx@@YAXAEBVSDF@12@AEAV?$PxArray@V?$PxVec3T@M@physx@@V?$PxReflectionAllocator@V?$PxVec3T@M@physx@@@2@@2@AEAV?$PxArray@IV?$PxReflectionAllocator@I@physx@@@2@@Z 00000001800520a0 f   GuSDF.obj
 0001:00052e70       ?fixSdfForNonClosedGeometry@Gu@physx@@YAXIIIPEAMAEBV?$PxVec3T@M@2@@Z 0000000180053e70 f   GuSDF.obj
 0001:00053f50       ?generatePointInCell@Gu@physx@@YA_NAEBVSDF@12@HHHAEAV?$PxVec3T@M@2@QEAY111M@Z 0000000180054f50 f   GuSDF.obj
 0001:000543a0       ?growAndPushBack@?$PxArray@HV?$PxInlineAllocator@$0EAA@V?$PxReflectionAllocator@H@physx@@@physx@@@physx@@IEAAAEAHAEBH@Z 00000001800553a0 f i GuSDF.obj
 0001:00054490       ?growAndPushBack@?$PxArray@MV?$PxReflectionAllocator@M@physx@@@physx@@IEAAAEAMAEBM@Z 0000000180055490 f i GuSDF.obj
 0001:00054570       ?growAndPushBack@?$PxArray@PEAV?$PxThreadT@V?$PxReflectionAllocator@VPxThreadImpl@physx@@@physx@@@physx@@V?$PxReflectionAllocator@PEAV?$PxThreadT@V?$PxReflectionAllocator@VPxThreadImpl@physx@@@physx@@@physx@@@2@@physx@@IEAAAEAPEAV?$PxThreadT@V?$PxReflectionAllocator@VPxThreadImpl@physx@@@physx@@@2@AEBQEAV32@@Z 0000000180055570 f i GuSDF.obj
 0001:00054690       ?growAndPushBack@?$PxArray@UMutation@Gu@physx@@V?$PxReflectionAllocator@UMutation@Gu@physx@@@3@@physx@@IEAAAEAUMutation@Gu@2@AEBU342@@Z 0000000180055690 f i GuSDF.obj
 0001:000547b0       ?growAndPushBack@?$PxArray@URange@Gu@physx@@V?$PxReflectionAllocator@URange@Gu@physx@@@3@@physx@@IEAAAEAURange@Gu@2@AEBU342@@Z 00000001800557b0 f i GuSDF.obj
 0001:000548e0       ?growAndPushBack@?$PxArray@URange@MeshAnalyzer@Gu@physx@@V?$PxReflectionAllocator@URange@MeshAnalyzer@Gu@physx@@@4@@physx@@IEAAAEAURange@MeshAnalyzer@Gu@2@AEBU3452@@Z 00000001800558e0 f i GuSDF.obj
 0001:00054a00       ?growAndPushBack@?$PxArray@USDFCalculationData@Gu@physx@@V?$PxReflectionAllocator@USDFCalculationData@Gu@physx@@@3@@physx@@IEAAAEAUSDFCalculationData@Gu@2@AEBU342@@Z 0000000180055a00 f i GuSDF.obj
 0001:00054b80       ?growAndPushBack@?$PxArray@V?$PxVec3T@M@physx@@V?$PxReflectionAllocator@V?$PxVec3T@M@physx@@@2@@physx@@IEAAAEAV?$PxVec3T@M@2@AEBV32@@Z 0000000180055b80 f i GuSDF.obj
 0001:00054d60       ?projectPoint@PointOntoTriangleMeshProjector@Gu@physx@@UEAA?AV?$PxVec3T@M@3@AEBV43@@Z 0000000180055d60 f i GuSDF.obj
 0001:00054dd0       ?projectPoint@PointOntoTriangleMeshProjector@Gu@physx@@UEAA?AV?$PxVec3T@M@3@AEBV43@AEAI@Z 0000000180055dd0 f i GuSDF.obj
 0001:00054e50       ?recreate@?$PxArray@HV?$PxReflectionAllocator@H@physx@@@physx@@IEAAXI@Z 0000000180055e50 f i GuSDF.obj
 0001:00054f40       ?recreate@?$PxArray@MV?$PxReflectionAllocator@M@physx@@@physx@@IEAAXI@Z 0000000180055f40 f i GuSDF.obj
 0001:00055020       ?recreate@?$PxArray@UBVHNode@Gu@physx@@V?$PxReflectionAllocator@UBVHNode@Gu@physx@@@3@@physx@@IEAAXI@Z 0000000180056020 f i GuSDF.obj
 0001:00055260       ?release@PointOntoTriangleMeshProjector@Gu@physx@@UEAAXXZ 0000000180056260 f i GuSDF.obj
 0001:000552b0       ?reserveInternal@?$PxHashBase@V?$PxPair@$$CBIU?$ClusterApproximationT@MV?$PxVec3T@M@physx@@@Gu@physx@@@physx@@IU?$PxHash@I@2@UGetKey@?$PxHashMapBase@IU?$ClusterApproximationT@MV?$PxVec3T@M@physx@@@Gu@physx@@U?$PxHash@I@3@VPxAllocator@3@@2@VPxAllocator@2@$00@physx@@AEAAXI@Z 00000001800562b0 f i GuSDF.obj
 0001:000554b0       ?reserveInternal@?$PxHashBase@V?$PxPair@$$CBUSortedTriangle@Gu@physx@@H@physx@@USortedTriangle@Gu@2@UTriangleHash@42@UGetKey@?$PxHashMapBase@USortedTriangle@Gu@physx@@HUTriangleHash@23@VPxAllocator@3@@2@VPxAllocator@2@$00@physx@@AEAAXI@Z 00000001800564b0 f i GuSDF.obj
 0001:00055650       ?reserveInternal@?$PxHashBase@V?$PxPair@$$CB_KH@physx@@_KU?$PxHash@_K@2@UGetKey@?$PxHashMapBase@_KHU?$PxHash@_K@physx@@VPxAllocator@2@@2@VPxAllocator@2@$00@physx@@AEAAXI@Z 0000000180056650 f i GuSDF.obj
 0001:00055650       ?reserveInternal@?$PxHashBase@V?$PxPair@$$CB_KI@physx@@_KU?$PxHash@_K@2@UGetKey@?$PxHashMapBase@_KIU?$PxHash@_K@physx@@VPxAllocator@2@@2@VPxAllocator@2@$00@physx@@AEAAXI@Z 0000000180056650 f i GuSDF.obj
 0001:00055830       ?resize@?$PxArray@IV?$PxReflectionAllocator@I@physx@@@physx@@QEAAXIAEBI@Z 0000000180056830 f i GuSDF.obj
 0001:000558f0       ?resize@?$PxArray@MV?$PxReflectionAllocator@M@physx@@@physx@@QEAAXIAEBM@Z 00000001800568f0 f i GuSDF.obj
 0001:00055a00       ?resize@?$PxArray@UBVHNode@Gu@physx@@V?$PxReflectionAllocator@UBVHNode@Gu@physx@@@3@@physx@@QEAAXIAEBUBVHNode@Gu@2@@Z 0000000180056a00 f i GuSDF.obj
 0001:00055b80       ?sampleSDFDirect@?$DenseSDF@M@Gu@physx@@QEAAMAEBV?$PxVec3T@M@3@@Z 0000000180056b80 f i GuSDF.obj
 0001:00055d10       ?signedVolume@Gu@physx@@YAMPEBV?$PxVec3T@M@2@PEBII1I@Z 0000000180056d10 f   GuSDF.obj
 0001:00056250       ?windingNumbers@Gu@physx@@YAXPEBV?$PxVec3T@M@2@PEBIIIIIPEAMV32@3PEAV32@@Z 0000000180057250 f   GuSDF.obj
 0001:000566a0       ?windingNumbersInsideCheck@Gu@physx@@YAXPEBV?$PxVec3T@M@2@PEBIIIIIPEA_NV32@3PEAV32@@Z 00000001800576a0 f   GuSDF.obj
 0001:00057070       ??0MeshData@physx@@QEAA@AEBVPxTriangleMeshDesc@1@@Z 0000000180058070 f i GuCookingSDF.obj
 0001:00057150       ?GetBounds@MeshData@physx@@QEBAXAEAV?$PxVec3T@M@2@0@Z 0000000180058150 f i GuCookingSDF.obj
 0001:000573f0       ?buildSDF@physx@@YA_NAEAVPxTriangleMeshDesc@1@AEAV?$PxArray@MV?$PxReflectionAllocator@M@physx@@@1@AEAV?$PxArray@EV?$PxReflectionAllocator@E@physx@@@1@AEAV?$PxArray@IV?$PxReflectionAllocator@I@physx@@@1@@Z 00000001800583f0 f   GuCookingSDF.obj
 0001:00057f00       ?quantizeSparseSDF@physx@@YAXW4Enum@PxSdfBitsPerSubgridPixel@1@AEBV?$PxArray@MV?$PxReflectionAllocator@M@physx@@@1@AEAV?$PxArray@EV?$PxReflectionAllocator@E@physx@@@1@MM@Z 0000000180058f00 f   GuCookingSDF.obj
 0001:00057fe0       ?recreate@?$PxArray@EV?$PxReflectionAllocator@E@physx@@@physx@@IEAAXI@Z 0000000180058fe0 f i GuCookingSDF.obj
 0001:000580d0       ?recreate@?$PxArray@V?$PxVec3T@M@physx@@V?$PxReflectionAllocator@V?$PxVec3T@M@physx@@@2@@physx@@IEAAXI@Z 00000001800590d0 f i GuCookingSDF.obj
 0001:00058270       ?resize@?$PxArray@EV?$PxReflectionAllocator@E@physx@@@physx@@QEAAXIAEBE@Z 0000000180059270 f i GuCookingSDF.obj
 0001:00058330       ?resize@?$PxArray@V?$PxVec3T@M@physx@@V?$PxReflectionAllocator@V?$PxVec3T@M@physx@@@2@@physx@@QEAAXIAEBV?$PxVec3T@M@2@@Z 0000000180059330 f i GuCookingSDF.obj
 0001:00058420       ??$gjk@U?$RelativeConvex@UCustomConvexV@@@Gu@physx@@U?$LocalConvex@UCustomConvexV@@@23@@Gu@physx@@YA?AW4GjkStatus@01@AEBU?$RelativeConvex@UCustomConvexV@@@01@AEBU?$LocalConvex@UCustomConvexV@@@01@AEBT__m128@@2AEAT5@333@Z 0000000180059420 f i GuGjkQuery.obj
 0001:000591b0       ??$gjkPenetration@U?$RelativeConvex@UCustomConvexV@@@Gu@physx@@U?$LocalConvex@UCustomConvexV@@@23@@Gu@physx@@YA?AW4GjkStatus@01@AEBU?$RelativeConvex@UCustomConvexV@@@01@AEBU?$LocalConvex@UCustomConvexV@@@01@AEBT__m128@@2_NPEIAE4PEIAT5@5AEAEAEAUGjkOutput@01@@Z 000000018005a1b0 f i GuGjkQuery.obj
 0001:0005a720       ??$gjkPenetration@U?$RelativeConvex@UCustomConvexV@@@Gu@physx@@U?$LocalConvex@UCustomConvexV@@@23@@Gu@physx@@YA?AW4GjkStatus@01@AEBU?$RelativeConvex@UCustomConvexV@@@01@AEBU?$LocalConvex@UCustomConvexV@@@01@AEBT__m128@@2_NPEIAT5@4AEAEAEAUGjkOutput@01@@Z 000000018005b720 f i GuGjkQuery.obj
 0001:0005a780       ??$gjkRaycast@U?$RelativeConvex@UCustomConvexV@@@Gu@physx@@U?$LocalConvex@UCustomConvexV@@@23@@Gu@physx@@YA_NAEBU?$RelativeConvex@UCustomConvexV@@@01@AEBU?$LocalConvex@UCustomConvexV@@@01@AEBT__m128@@222AEAT4@33M@Z 000000018005b780 f i GuGjkQuery.obj
 0001:0005b4e0       ??$gjkRaycast@U?$RelativeConvex@UCustomConvexV@@@Gu@physx@@U?$LocalConvex@UPointConvexV@@@23@@Gu@physx@@YA_NAEBU?$RelativeConvex@UCustomConvexV@@@01@AEBU?$LocalConvex@UPointConvexV@@@01@AEBT__m128@@222AEAT4@33M@Z 000000018005c4e0 f i GuGjkQuery.obj
 0001:0005c120       ?overlap@PxGjkQuery@physx@@SA_NAEBUSupport@12@0AEBV?$PxTransformT@M@2@1@Z 000000018005d120 f   GuGjkQuery.obj
 0001:0005c4b0       ?proximityInfo@PxGjkQuery@physx@@SA_NAEBUSupport@12@0AEBV?$PxTransformT@M@2@1MMAEAV?$PxVec3T@M@2@22AEAM@Z 000000018005d4b0 f   GuGjkQuery.obj
 0001:0005d270       ?raycast@PxGjkQuery@physx@@SA_NAEBUSupport@12@AEBV?$PxTransformT@M@2@AEBV?$PxVec3T@M@2@2MAEAMAEAV52@4@Z 000000018005e270 f   GuGjkQuery.obj
 0001:0005d760       ?support@?$LocalConvex@UCustomConvexV@@@Gu@physx@@UEBA?AT__m128@@AEBT4@@Z 000000018005e760 f i GuGjkQuery.obj
 0001:0005d7e0       ?support@?$LocalConvex@UCustomConvexV@@@Gu@physx@@UEBA?AT__m128@@AEBT4@AEAH@Z 000000018005e7e0 f i GuGjkQuery.obj
 0001:0005d860       ?support@?$LocalConvex@UPointConvexV@@@Gu@physx@@UEBA?AT__m128@@AEBT4@@Z 000000018005e860 f i GuGjkQuery.obj
 0001:0005d860       ?supportPoint@?$LocalConvex@UPointConvexV@@@Gu@physx@@UEBA?AT__m128@@H@Z 000000018005e860 f i GuGjkQuery.obj
 0001:0005d870       ?support@?$LocalConvex@UPointConvexV@@@Gu@physx@@UEBA?AT__m128@@AEBT4@AEAH@Z 000000018005e870 f i GuGjkQuery.obj
 0001:0005d890       ?support@?$RelativeConvex@UCustomConvexV@@@Gu@physx@@UEBA?AT__m128@@AEBT4@@Z 000000018005e890 f i GuGjkQuery.obj
 0001:0005d960       ?support@?$RelativeConvex@UCustomConvexV@@@Gu@physx@@UEBA?AT__m128@@AEBT4@AEAH@Z 000000018005e960 f i GuGjkQuery.obj
 0001:0005da40       ?supportPoint@?$LocalConvex@UCustomConvexV@@@Gu@physx@@UEBA?AT__m128@@H@Z 000000018005ea40 f i GuGjkQuery.obj
 0001:0005dab0       ?supportPoint@?$RelativeConvex@UCustomConvexV@@@Gu@physx@@UEBA?AT__m128@@H@Z 000000018005eab0 f i GuGjkQuery.obj
 0001:0005db50       ?sweep@PxGjkQuery@physx@@SA_NAEBUSupport@12@0AEBV?$PxTransformT@M@2@1AEBV?$PxVec3T@M@2@MAEAMAEAV52@4@Z 000000018005eb50 f   GuGjkQuery.obj
 0001:0005e310       ??$approximateCluster@MV?$PxVec3T@M@physx@@@Gu@physx@@YAXAEBV?$PxArray@HV?$PxReflectionAllocator@H@physx@@@1@IIPEBIPEBV?$PxVec3T@M@1@AEBV?$PxArray@MV?$PxReflectionAllocator@M@physx@@@1@AEBV?$PxArray@V?$PxVec3T@M@physx@@V?$PxReflectionAllocator@V?$PxVec3T@M@physx@@@2@@1@4AEAU?$ClusterApproximationT@MV?$PxVec3T@M@physx@@@01@@Z 000000018005f310 f i GuWindingNumber.obj
 0001:0005e950       ??$copy@V?$PxReflectionAllocator@M@physx@@@?$PxArray@MV?$PxReflectionAllocator@M@physx@@@physx@@IEAAXAEBV01@@Z 000000018005f950 f i GuWindingNumber.obj
 0001:0005e9b0       ??$precomputeClusterInformation@MV?$PxVec3T@M@physx@@@Gu@physx@@YAXHPEBUBVHNode@01@PEBIIPEBV?$PxVec3T@M@1@AEAV?$PxHashMap@IU?$ClusterApproximationT@MV?$PxVec3T@M@physx@@@Gu@physx@@U?$PxHash@I@3@VPxAllocator@3@@1@V?$PxArray@MV?$PxReflectionAllocator@M@physx@@@1@AEBV?$PxArray@V?$PxVec3T@M@physx@@V?$PxReflectionAllocator@V?$PxVec3T@M@physx@@@2@@1@5@Z 000000018005f9b0 f i GuWindingNumber.obj
 0001:0005ed90       ??$precomputeClusterInformation@MV?$PxVec3T@M@physx@@@Gu@physx@@YAXPEBUBVHNode@01@PEBIIPEBV?$PxVec3T@M@1@AEAV?$PxHashMap@IU?$ClusterApproximationT@MV?$PxVec3T@M@physx@@@Gu@physx@@U?$PxHash@I@3@VPxAllocator@3@@1@H@Z 000000018005fd90 f i GuWindingNumber.obj
 0001:0005f1a0       ??$traverseBVH@V?$WindingNumberTraversalController@MV?$PxVec3T@M@physx@@@Gu@physx@@@Gu@physx@@YAXPEBUBVHNode@01@AEAV?$WindingNumberTraversalController@MV?$PxVec3T@M@physx@@@01@H@Z 00000001800601a0 f i GuWindingNumber.obj
 0001:0005f6f0       ?allocate@?$PxArray@HV?$PxReflectionAllocator@H@physx@@@physx@@IEAAPEAHI@Z 00000001800606f0 f i GuWindingNumber.obj
 0001:0005f780       ?computeWindingNumber@Gu@physx@@YAMPEBUBVHNode@12@AEBV?$PxVec3T@M@2@AEBV?$PxHashMap@IU?$ClusterApproximationT@MV?$PxVec3T@M@physx@@@Gu@physx@@U?$PxHash@I@3@VPxAllocator@3@@2@PEBIPEBV42@@Z 0000000180060780 f   GuWindingNumber.obj
 0001:0005f7f0       ?computeWindingNumber@Gu@physx@@YAMPEBUBVHNode@12@AEBV?$PxVec3T@M@2@MAEBV?$PxHashMap@IU?$ClusterApproximationT@MV?$PxVec3T@M@physx@@@Gu@physx@@U?$PxHash@I@3@VPxAllocator@3@@2@PEBIPEBV42@@Z 00000001800607f0 f   GuWindingNumber.obj
 0001:0005f860       ?copy@?$PxArray@MV?$PxReflectionAllocator@M@physx@@@physx@@KAXPEAM0PEBM@Z 0000000180060860 f i GuWindingNumber.obj
 0001:0005f8c0       ?create@?$PxHashBase@V?$PxPair@$$CBIU?$ClusterApproximationT@MV?$PxVec3T@M@physx@@@Gu@physx@@@physx@@IU?$PxHash@I@2@UGetKey@?$PxHashMapBase@IU?$ClusterApproximationT@MV?$PxVec3T@M@physx@@@Gu@physx@@U?$PxHash@I@3@VPxAllocator@3@@2@VPxAllocator@2@$00@physx@@QEAAPEAV?$PxPair@$$CBIU?$ClusterApproximationT@MV?$PxVec3T@M@physx@@@Gu@physx@@@2@AEBIAEA_N@Z 00000001800608c0 f i GuWindingNumber.obj
 0001:0005fa10       ?growAndPushBack@?$PxArray@HV?$PxReflectionAllocator@H@physx@@@physx@@IEAAAEAHAEBH@Z 0000000180060a10 f i GuWindingNumber.obj
 0001:0005fad0       ?growAndPushBack@?$PxArray@USection@Gu@physx@@V?$PxReflectionAllocator@USection@Gu@physx@@@3@@physx@@IEAAAEAUSection@Gu@2@AEBU342@@Z 0000000180060ad0 f i GuWindingNumber.obj
 0001:0005fbf0       ?precomputeClusterInformation@Gu@physx@@YAXPEBUBVHNode@12@PEBIIPEBV?$PxVec3T@M@2@AEAV?$PxHashMap@IU?$ClusterApproximationT@MV?$PxVec3T@M@physx@@@Gu@physx@@U?$PxHash@I@3@VPxAllocator@3@@2@H@Z 0000000180060bf0 f   GuWindingNumber.obj
 0001:0005fc90       ?SweepAnyShapeHeightfield@Gu@physx@@YAMAEBUCCDShape@12@0AEBUPxTransformPadded@2@111MAEAV?$PxVec3T@M@2@2MAEAIM@Z 0000000180060c90 f   GuCCDSweepConvexMesh.obj
 0001:00061230       ?SweepAnyShapeMesh@Gu@physx@@YAMAEBUCCDShape@12@0AEBUPxTransformPadded@2@111MAEAV?$PxVec3T@M@2@2MAEAIM@Z 0000000180062230 f   GuCCDSweepConvexMesh.obj
 0001:000627f0       ?SweepEstimateAnyShapeHeightfield@Gu@physx@@YAMAEBUCCDShape@12@0MM@Z 00000001800637f0 f   GuCCDSweepConvexMesh.obj
 0001:00063460       ?SweepEstimateAnyShapeMesh@Gu@physx@@YAMAEBUCCDShape@12@0MM@Z 0000000180064460 f   GuCCDSweepConvexMesh.obj
 0001:00063700       ?allocate@?$PxArray@IV?$PxInlineAllocator@$0BAA@V?$PxReflectionAllocator@I@physx@@@physx@@@physx@@IEAAPEAII@Z 0000000180064700 f i GuCCDSweepConvexMesh.obj
 0001:000641e0       ?growAndPushBack@?$PxArray@IV?$PxInlineAllocator@$0BAA@V?$PxReflectionAllocator@I@physx@@@physx@@@physx@@IEAAAEAIAEBI@Z 00000001800651e0 f i GuCCDSweepConvexMesh.obj
 0001:00064820       ?recreate@?$PxArray@IV?$PxInlineAllocator@$0BAA@V?$PxReflectionAllocator@I@physx@@@physx@@@physx@@IEAAXI@Z 0000000180065820 f i GuCCDSweepConvexMesh.obj
 0001:00064960       ?resize@?$PxArray@IV?$PxInlineAllocator@$0BAA@V?$PxReflectionAllocator@I@physx@@@physx@@@physx@@QEAAXIAEBI@Z 0000000180065960 f i GuCCDSweepConvexMesh.obj
 0001:00064a30       ?transformBoxOrthonormal@physx@@YA?AVBox@Gu@1@AEBV231@AEBV?$PxTransformT@M@1@@Z 0000000180065a30 f i GuCCDSweepConvexMesh.obj
 0001:00064ec0       ?UnimplementedSweep@Gu@physx@@YAMAEBUCCDShape@12@0AEBUPxTransformPadded@2@111MAEAV?$PxVec3T@M@2@2MAEAIM@Z 0000000180065ec0 f   GuCCDSweepPrimitives.obj
 0001:00068a30       ?UnimplementedTriangleSweep@Gu@physx@@YAMAEBVPxGeometry@2@0AEBUPxTransformPadded@2@111MAEAV?$PxVec3T@M@2@2AEBVFastVertex2ShapeScaling@Cm@2@AEAVTriangleV@12@M@Z 0000000180069a30 f   GuCCDSweepPrimitives.obj
 0001:00068a40       ??$SweepGeomTriangles@VCapsuleV@Gu@physx@@@Gu@physx@@YAMAEBVPxGeometry@1@0AEBUPxTransformPadded@1@111MAEAV?$PxVec3T@M@1@2AEBVFastVertex2ShapeScaling@Cm@1@AEAVTriangleV@01@M@Z 0000000180069a40 f i GuCCDSweepPrimitives.obj
 0001:00069170       ??$SweepGeomTriangles@VBoxV@Gu@physx@@@Gu@physx@@YAMAEBVPxGeometry@1@0AEBUPxTransformPadded@1@111MAEAV?$PxVec3T@M@1@2AEBVFastVertex2ShapeScaling@Cm@1@AEAVTriangleV@01@M@Z 000000018006a170 f i GuCCDSweepPrimitives.obj
 0001:000698c0       ??$SweepGeomTriangles@VConvexHullV@Gu@physx@@@Gu@physx@@YAMAEBVPxGeometry@1@0AEBUPxTransformPadded@1@111MAEAV?$PxVec3T@M@1@2AEBVFastVertex2ShapeScaling@Cm@1@AEAVTriangleV@01@M@Z 000000018006a8c0 f i GuCCDSweepPrimitives.obj
 0001:0006a3a0       ?supportPoint@?$RelativeConvex@VCapsuleV@Gu@physx@@@Gu@physx@@UEBA?AT__m128@@H@Z 000000018006b3a0 f i GuCCDSweepPrimitives.obj
 0001:0006a400       ?support@?$RelativeConvex@VCapsuleV@Gu@physx@@@Gu@physx@@UEBA?AT__m128@@AEBT4@@Z 000000018006b400 f i GuCCDSweepPrimitives.obj
 0001:0006a4b0       ?support@?$RelativeConvex@VCapsuleV@Gu@physx@@@Gu@physx@@UEBA?AT__m128@@AEBT4@AEAH@Z 000000018006b4b0 f i GuCCDSweepPrimitives.obj
 0001:0006a570       ?supportPoint@?$RelativeConvex@VTriangleV@Gu@physx@@@Gu@physx@@UEBA?AT__m128@@H@Z 000000018006b570 f i GuCCDSweepPrimitives.obj
 0001:0006a5c0       ?support@?$RelativeConvex@VTriangleV@Gu@physx@@@Gu@physx@@UEBA?AT__m128@@AEBT4@@Z 000000018006b5c0 f i GuCCDSweepPrimitives.obj
 0001:0006a6c0       ?support@?$RelativeConvex@VTriangleV@Gu@physx@@@Gu@physx@@UEBA?AT__m128@@AEBT4@AEAH@Z 000000018006b6c0 f i GuCCDSweepPrimitives.obj
 0001:0006a800       ??$gjkPenetration@U?$RelativeConvex@VCapsuleV@Gu@physx@@@Gu@physx@@U?$LocalConvex@VBoxV@Gu@physx@@@23@@Gu@physx@@YA?AW4GjkStatus@01@AEBU?$RelativeConvex@VCapsuleV@Gu@physx@@@01@AEBU?$LocalConvex@VBoxV@Gu@physx@@@01@AEBT__m128@@2_NPEIAE4AEAEAEAUGjkOutput@01@@Z 000000018006b800 f i GuCCDSweepPrimitives.obj
 0001:0006a870       ??$gjkPenetration@U?$RelativeConvex@VCapsuleV@Gu@physx@@@Gu@physx@@U?$LocalConvex@VBoxV@Gu@physx@@@23@@Gu@physx@@YA?AW4GjkStatus@01@AEBU?$RelativeConvex@VCapsuleV@Gu@physx@@@01@AEBU?$LocalConvex@VBoxV@Gu@physx@@@01@AEBT__m128@@2_NPEIAE4PEIAT5@5AEAEAEAUGjkOutput@01@@Z 000000018006b870 f i GuCCDSweepPrimitives.obj
 0001:0006bd70       ??$gjkPenetration@U?$RelativeConvex@VCapsuleV@Gu@physx@@@Gu@physx@@U?$LocalConvex@VCapsuleV@Gu@physx@@@23@@Gu@physx@@YA?AW4GjkStatus@01@AEBU?$RelativeConvex@VCapsuleV@Gu@physx@@@01@AEBU?$LocalConvex@VCapsuleV@Gu@physx@@@01@AEBT__m128@@2_NPEIAE4AEAEAEAUGjkOutput@01@@Z 000000018006cd70 f i GuCCDSweepPrimitives.obj
 0001:0006bde0       ??$gjkPenetration@U?$RelativeConvex@VCapsuleV@Gu@physx@@@Gu@physx@@U?$LocalConvex@VCapsuleV@Gu@physx@@@23@@Gu@physx@@YA?AW4GjkStatus@01@AEBU?$RelativeConvex@VCapsuleV@Gu@physx@@@01@AEBU?$LocalConvex@VCapsuleV@Gu@physx@@@01@AEBT__m128@@2_NPEIAE4PEIAT5@5AEAEAEAUGjkOutput@01@@Z 000000018006cde0 f i GuCCDSweepPrimitives.obj
 0001:0006d2d0       ??$gjkPenetration@U?$RelativeConvex@VCapsuleV@Gu@physx@@@Gu@physx@@U?$LocalConvex@VConvexHullV@Gu@physx@@@23@@Gu@physx@@YA?AW4GjkStatus@01@AEBU?$RelativeConvex@VCapsuleV@Gu@physx@@@01@AEBU?$LocalConvex@VConvexHullV@Gu@physx@@@01@AEBT__m128@@2_NPEIAE4AEAEAEAUGjkOutput@01@@Z 000000018006e2d0 f i GuCCDSweepPrimitives.obj
 0001:0006d340       ??$gjkPenetration@U?$RelativeConvex@VCapsuleV@Gu@physx@@@Gu@physx@@U?$LocalConvex@VConvexHullV@Gu@physx@@@23@@Gu@physx@@YA?AW4GjkStatus@01@AEBU?$RelativeConvex@VCapsuleV@Gu@physx@@@01@AEBU?$LocalConvex@VConvexHullV@Gu@physx@@@01@AEBT__m128@@2_NPEIAE4PEIAT5@5AEAEAEAUGjkOutput@01@@Z 000000018006e340 f i GuCCDSweepPrimitives.obj
 0001:0006e8e0       ??$gjkPenetration@U?$RelativeConvex@VTriangleV@Gu@physx@@@Gu@physx@@U?$LocalConvex@VBoxV@Gu@physx@@@23@@Gu@physx@@YA?AW4GjkStatus@01@AEBU?$RelativeConvex@VTriangleV@Gu@physx@@@01@AEBU?$LocalConvex@VBoxV@Gu@physx@@@01@AEBT__m128@@2_NPEIAE4AEAEAEAUGjkOutput@01@@Z 000000018006f8e0 f i GuCCDSweepPrimitives.obj
 0001:0006e950       ??$gjkPenetration@U?$RelativeConvex@VTriangleV@Gu@physx@@@Gu@physx@@U?$LocalConvex@VBoxV@Gu@physx@@@23@@Gu@physx@@YA?AW4GjkStatus@01@AEBU?$RelativeConvex@VTriangleV@Gu@physx@@@01@AEBU?$LocalConvex@VBoxV@Gu@physx@@@01@AEBT__m128@@2_NPEIAE4PEIAT5@5AEAEAEAUGjkOutput@01@@Z 000000018006f950 f i GuCCDSweepPrimitives.obj
 0001:0006fe70       ??$gjkPenetration@U?$RelativeConvex@VTriangleV@Gu@physx@@@Gu@physx@@U?$LocalConvex@VCapsuleV@Gu@physx@@@23@@Gu@physx@@YA?AW4GjkStatus@01@AEBU?$RelativeConvex@VTriangleV@Gu@physx@@@01@AEBU?$LocalConvex@VCapsuleV@Gu@physx@@@01@AEBT__m128@@2_NPEIAE4AEAEAEAUGjkOutput@01@@Z 0000000180070e70 f i GuCCDSweepPrimitives.obj
 0001:0006fee0       ??$gjkPenetration@U?$RelativeConvex@VTriangleV@Gu@physx@@@Gu@physx@@U?$LocalConvex@VCapsuleV@Gu@physx@@@23@@Gu@physx@@YA?AW4GjkStatus@01@AEBU?$RelativeConvex@VTriangleV@Gu@physx@@@01@AEBU?$LocalConvex@VCapsuleV@Gu@physx@@@01@AEBT__m128@@2_NPEIAE4PEIAT5@5AEAEAEAUGjkOutput@01@@Z 0000000180070ee0 f i GuCCDSweepPrimitives.obj
 0001:00071400       ??$gjkPenetration@U?$RelativeConvex@VTriangleV@Gu@physx@@@Gu@physx@@U?$LocalConvex@VConvexHullV@Gu@physx@@@23@@Gu@physx@@YA?AW4GjkStatus@01@AEBU?$RelativeConvex@VTriangleV@Gu@physx@@@01@AEBU?$LocalConvex@VConvexHullV@Gu@physx@@@01@AEBT__m128@@2_NPEIAE4AEAEAEAUGjkOutput@01@@Z 0000000180072400 f i GuCCDSweepPrimitives.obj
 0001:00071470       ??$gjkPenetration@U?$RelativeConvex@VTriangleV@Gu@physx@@@Gu@physx@@U?$LocalConvex@VConvexHullV@Gu@physx@@@23@@Gu@physx@@YA?AW4GjkStatus@01@AEBU?$RelativeConvex@VTriangleV@Gu@physx@@@01@AEBU?$LocalConvex@VConvexHullV@Gu@physx@@@01@AEBT__m128@@2_NPEIAE4PEIAT5@5AEAEAEAUGjkOutput@01@@Z 0000000180072470 f i GuCCDSweepPrimitives.obj
 0001:00072a20       ??$gjkRaycast@U?$RelativeConvex@VCapsuleV@Gu@physx@@@Gu@physx@@U?$LocalConvex@VBoxV@Gu@physx@@@23@@Gu@physx@@YA_NAEBU?$RelativeConvex@VCapsuleV@Gu@physx@@@01@AEBU?$LocalConvex@VBoxV@Gu@physx@@@01@AEBT__m128@@222AEAT4@33M@Z 0000000180073a20 f i GuCCDSweepPrimitives.obj
 0001:00073690       ??$gjkRaycast@U?$RelativeConvex@VCapsuleV@Gu@physx@@@Gu@physx@@U?$LocalConvex@VCapsuleV@Gu@physx@@@23@@Gu@physx@@YA_NAEBU?$RelativeConvex@VCapsuleV@Gu@physx@@@01@AEBU?$LocalConvex@VCapsuleV@Gu@physx@@@01@AEBT__m128@@222AEAT4@33M@Z 0000000180074690 f i GuCCDSweepPrimitives.obj
 0001:00074380       ??$gjkRaycast@U?$RelativeConvex@VCapsuleV@Gu@physx@@@Gu@physx@@U?$LocalConvex@VConvexHullV@Gu@physx@@@23@@Gu@physx@@YA_NAEBU?$RelativeConvex@VCapsuleV@Gu@physx@@@01@AEBU?$LocalConvex@VConvexHullV@Gu@physx@@@01@AEBT__m128@@222AEAT4@33M@Z 0000000180075380 f i GuCCDSweepPrimitives.obj
 0001:00075180       ??$gjkRaycast@U?$RelativeConvex@VTriangleV@Gu@physx@@@Gu@physx@@U?$LocalConvex@VBoxV@Gu@physx@@@23@@Gu@physx@@YA_NAEBU?$RelativeConvex@VTriangleV@Gu@physx@@@01@AEBU?$LocalConvex@VBoxV@Gu@physx@@@01@AEBT__m128@@222AEAT4@33M@Z 0000000180076180 f i GuCCDSweepPrimitives.obj
 0001:00075e90       ??$gjkRaycast@U?$RelativeConvex@VTriangleV@Gu@physx@@@Gu@physx@@U?$LocalConvex@VCapsuleV@Gu@physx@@@23@@Gu@physx@@YA_NAEBU?$RelativeConvex@VTriangleV@Gu@physx@@@01@AEBU?$LocalConvex@VCapsuleV@Gu@physx@@@01@AEBT__m128@@222AEAT4@33M@Z 0000000180076e90 f i GuCCDSweepPrimitives.obj
 0001:00076c10       ??$gjkRaycast@U?$RelativeConvex@VTriangleV@Gu@physx@@@Gu@physx@@U?$LocalConvex@VConvexHullV@Gu@physx@@@23@@Gu@physx@@YA_NAEBU?$RelativeConvex@VTriangleV@Gu@physx@@@01@AEBU?$LocalConvex@VConvexHullV@Gu@physx@@@01@AEBT__m128@@222AEAT4@33M@Z 0000000180077c10 f i GuCCDSweepPrimitives.obj
 0001:00077ad0       ?SweepShapeShape@Gu@physx@@YAMAEBUCCDShape@12@0AEBUPxTransformPadded@2@111MAEAV?$PxVec3T@M@2@2MAEAIM@Z 0000000180078ad0 f   GuCCDSweepPrimitives.obj
 0001:00077af0       ?SweepShapeTriangle@Gu@physx@@YAMAEBVPxGeometry@2@0AEBUPxTransformPadded@2@111MAEAV?$PxVec3T@M@2@2AEBVFastVertex2ShapeScaling@Cm@2@AEAVTriangleV@12@M@Z 0000000180078af0 f   GuCCDSweepPrimitives.obj
 0001:00077b10       ?barycentricCoordinates@Gu@physx@@YAXAEBT__m128@@000AEAT3@1@Z 0000000180078b10 f   GuBarycentricCoordinates.obj
 0001:00077c50       ?barycentricCoordinates@Gu@physx@@YAXAEBT__m128@@00AEAT3@@Z 0000000180078c50 f   GuBarycentricCoordinates.obj
 0001:00077cc0       ??$?_UV?$PxReflectionAllocator@VAdjTriangle@Gu@physx@@@physx@@@PxUserAllocated@physx@@SAPEAX_KV?$PxReflectionAllocator@VAdjTriangle@Gu@physx@@@1@PEBDH@Z 0000000180078cc0 f i GuAdjacencies.obj
 0001:00077da0       ??0AdjacenciesBuilder@Gu@physx@@QEAA@XZ 0000000180078da0 f   GuAdjacencies.obj
 0001:00077db0       ??1AdjacenciesBuilder@Gu@physx@@QEAA@XZ 0000000180078db0 f   GuAdjacencies.obj
 0001:00077f00       ?ComputeNbBoundaryEdges@Adjacencies@Gu@physx@@QEBAIXZ 0000000180078f00 f   GuAdjacencies.obj
 0001:00078190       ?Init@AdjacenciesBuilder@Gu@physx@@QEAA_NAEBUADJACENCIESCREATE@23@@Z 0000000180079190 f   GuAdjacencies.obj
 0001:000786f0       ??0EdgeList@Gu@physx@@QEAA@XZ 00000001800796f0 f   GuEdgeList.obj
 0001:00078710       ??1EdgeList@Gu@physx@@QEAA@XZ 0000000180079710 f   GuEdgeList.obj
 0001:000787c0       ?computeActiveEdges@EdgeList@Gu@physx@@AEAA_NIPEBIPEBGPEBV?$PxVec3T@M@3@M@Z 00000001800797c0 f   GuEdgeList.obj
 0001:00079b40       ?createEdgesToFaces@EdgeList@Gu@physx@@AEAA_NIPEBIPEBG@Z 000000018007ab40 f   GuEdgeList.obj
 0001:00079da0       ?createFacesToEdges@EdgeList@Gu@physx@@AEAA_NIPEBIPEBG@Z 000000018007ada0 f   GuEdgeList.obj
 0001:0007a170       ?init@EdgeList@Gu@physx@@QEAA_NAEBUEDGELISTCREATE@23@@Z 000000018007b170 f   GuEdgeList.obj
 0001:0007a2a0       ?addAxis@SeparatingAxes@Gu@physx@@QEAA_NAEBV?$PxVec3T@M@3@@Z 000000018007b2a0 f   GuSeparatingAxes.obj
 0001:0007a360       ??$kmeans_cluster@V?$PxVec3T@M@physx@@M@@YAIPEBV?$PxVec3T@M@physx@@IIPEAV01@PEAIMM@Z 000000018007b360 f i GuQuantizer.obj
 0001:0007ad20       ??_EQuantizer@Gu@physx@@MEAAPEAXI@Z 000000018007bd20 f i GuQuantizer.obj
 0001:0007ad20       ??_GQuantizer@Gu@physx@@MEAAPEAXI@Z 000000018007bd20 f i GuQuantizer.obj
 0001:0007ad50       ??_EQuantizerImpl@@EEAAPEAXI@Z 000000018007bd50 f i GuQuantizer.obj
 0001:0007ad50       ??_GQuantizerImpl@@EEAAPEAXI@Z 000000018007bd50 f i GuQuantizer.obj
 0001:0007ae20       ?createQuantizer@Gu@physx@@YAPEAVQuantizer@12@XZ 000000018007be20 f   GuQuantizer.obj
 0001:0007aed0       ?getDenormalizeCenter@QuantizerImpl@@UEBAAEBV?$PxVec3T@M@physx@@XZ 000000018007bed0 f i GuQuantizer.obj
 0001:0007aee0       ?getCurrentAABBTreeBounds@PruningPool@Gu@physx@@QEBAAEBVAABBTreeBounds@23@XZ 000000018007bee0 f i GuIncrementalAABBPrunerCore.obj
 0001:0007aee0       ?getDenormalizeScale@QuantizerImpl@@UEBAAEBV?$PxVec3T@M@physx@@XZ 000000018007bee0 f i GuQuantizer.obj
 0001:0007aef0       ?kmeansQuantize3D@QuantizerImpl@@UEAAPEBV?$PxVec3T@M@physx@@IPEBV23@I_NIAEAI@Z 000000018007bef0 f i GuQuantizer.obj
 0001:0007b160       ?normalizeInput@QuantizerImpl@@AEAAXIPEBV?$PxVec3T@M@physx@@I@Z 000000018007c160 f i GuQuantizer.obj
 0001:0007b5b0       ?release@QuantizerImpl@@UEAAXXZ 000000018007c5b0 f i GuQuantizer.obj
 0001:0007b5d0       ??0MeshCleaner@Gu@physx@@QEAA@IPEBV?$PxVec3T@M@2@IPEBIM@Z 000000018007c5d0 f   GuMeshCleaner.obj
 0001:0007bf90       ??1MeshCleaner@Gu@physx@@QEAA@XZ 000000018007cf90 f   GuMeshCleaner.obj
 0001:0007c020       ??0ReducedVertexCloud@Gu@physx@@QEAA@PEBV?$PxVec3T@M@2@I@Z 000000018007d020 f   GuVertexReducer.obj
 0001:0007c040       ??1ReducedVertexCloud@Gu@physx@@QEAA@XZ 000000018007d040 f   GuVertexReducer.obj
 0001:0007c050       ?clean@ReducedVertexCloud@Gu@physx@@QEAAAEAV123@XZ 000000018007d050 f   GuVertexReducer.obj
 0001:0007c0c0       ?reduce@ReducedVertexCloud@Gu@physx@@QEAA_NPEAUREDUCEDCLOUD@23@@Z 000000018007d0c0 f   GuVertexReducer.obj
 0001:0007c360       ??$copy@V?$PxReflectionAllocator@I@physx@@@?$PxArray@IV?$PxReflectionAllocator@I@physx@@@physx@@IEAAXAEBV01@@Z 000000018007d360 f i GuMeshAnalysis.obj
 0001:0007c3d0       ?buildConsistentTriangleOrientationMap@MeshAnalyzer@Gu@physx@@SA_NPEBU?$IndexedTriangleT@H@23@IAEAV?$PxArray@_NV?$PxReflectionAllocator@_N@physx@@@3@AEAV?$PxHashMap@_KHU?$PxHash@_K@physx@@VPxAllocator@2@@3@AEAV?$PxArray@V?$PxArray@IV?$PxReflectionAllocator@I@physx@@@physx@@V?$PxReflectionAllocator@V?$PxArray@IV?$PxReflectionAllocator@I@physx@@@physx@@@2@@3@@Z 000000018007d3d0 f   GuMeshAnalysis.obj
 0001:0007c780       ?buildTriangleAdjacency@MeshAnalyzer@Gu@physx@@SA_NPEBU?$IndexedTriangleT@H@23@IAEAV?$PxArray@HV?$PxReflectionAllocator@H@physx@@@3@AEAV?$PxHashMap@_KHU?$PxHash@_K@physx@@VPxAllocator@2@@3@@Z 000000018007d780 f   GuMeshAnalysis.obj
 0001:0007ca80       ?checkConsistentTriangleOrientation@MeshAnalyzer@Gu@physx@@SA_NPEBU?$IndexedTriangleT@H@23@I@Z 000000018007da80 f   GuMeshAnalysis.obj
 0001:0007cbd0       ?checkMeshWatertightness@MeshAnalyzer@Gu@physx@@SA_NPEBU?$IndexedTriangleT@H@23@I_N@Z 000000018007dbd0 f   GuMeshAnalysis.obj
 0001:0007cda0       ?destroy@?$PxArray@V?$PxArray@IV?$PxReflectionAllocator@I@physx@@@physx@@V?$PxReflectionAllocator@V?$PxArray@IV?$PxReflectionAllocator@I@physx@@@physx@@@2@@physx@@KAXPEAV?$PxArray@IV?$PxReflectionAllocator@I@physx@@@2@0@Z 000000018007dda0 f i GuMeshAnalysis.obj
 0001:0007ce10       ?erase@?$PxHashBase@V?$PxPair@$$CB_KH@physx@@_KU?$PxHash@_K@2@UGetKey@?$PxHashMapBase@_KHU?$PxHash@_K@physx@@VPxAllocator@2@@2@VPxAllocator@2@$00@physx@@QEAA_NAEB_K@Z 000000018007de10 f i GuMeshAnalysis.obj
 0001:0007cfc0       ?growAndPushBack@?$PxArray@V?$PxArray@IV?$PxReflectionAllocator@I@physx@@@physx@@V?$PxReflectionAllocator@V?$PxArray@IV?$PxReflectionAllocator@I@physx@@@physx@@@2@@physx@@IEAAAEAV?$PxArray@IV?$PxReflectionAllocator@I@physx@@@2@AEBV32@@Z 000000018007dfc0 f i GuMeshAnalysis.obj
 0001:0007d110       ?makeTriOrientationConsistent@MeshAnalyzer@Gu@physx@@SA_NPEAU?$IndexedTriangleT@H@23@I_N@Z 000000018007e110 f   GuMeshAnalysis.obj
 0001:0007d280       ?recreate@?$PxArray@_NV?$PxReflectionAllocator@_N@physx@@@physx@@IEAAXI@Z 000000018007e280 f i GuMeshAnalysis.obj
 0001:0007d370       ?resize@?$PxArray@HV?$PxReflectionAllocator@H@physx@@@physx@@QEAAXIAEBH@Z 000000018007e370 f i GuMeshAnalysis.obj
 0001:0007d430       ?resize@?$PxArray@_NV?$PxReflectionAllocator@_N@physx@@@physx@@QEAAXIAEB_N@Z 000000018007e430 f i GuMeshAnalysis.obj
 0001:0007d4f0       ?contactBoxBox@Gu@physx@@YA_NAEBVPxGeometry@2@0AEBUPxTransformPadded@2@1AEBUNarrowPhaseParams@12@AEAUCache@12@AEAVPxContactBuffer@2@PEAVPxRenderOutput@2@@Z 000000018007e4f0 f   GuContactBoxBox.obj
 0001:00081320       ?contactCapsuleBox@Gu@physx@@YA_NAEBVPxGeometry@2@0AEBUPxTransformPadded@2@1AEBUNarrowPhaseParams@12@AEAUCache@12@AEAVPxContactBuffer@2@PEAVPxRenderOutput@2@@Z 0000000180082320 f   GuContactCapsuleBox.obj
 0001:00081b30       ?contactCapsuleCapsule@Gu@physx@@YA_NAEBVPxGeometry@2@0AEBUPxTransformPadded@2@1AEBUNarrowPhaseParams@12@AEAUCache@12@AEAVPxContactBuffer@2@PEAVPxRenderOutput@2@@Z 0000000180082b30 f   GuContactCapsuleCapsule.obj
 0001:00084520       ?contactCapsuleConvex@Gu@physx@@YA_NAEBVPxGeometry@2@0AEBUPxTransformPadded@2@1AEBUNarrowPhaseParams@12@AEAUCache@12@AEAVPxContactBuffer@2@PEAVPxRenderOutput@2@@Z 0000000180085520 f   GuContactCapsuleConvex.obj
 0001:00086a50       ?contactCapsuleHeightfield@Gu@physx@@YA_NAEBVPxGeometry@2@0AEBUPxTransformPadded@2@1AEBUNarrowPhaseParams@12@AEAUCache@12@AEAVPxContactBuffer@2@PEAVPxRenderOutput@2@@Z 0000000180087a50 f   GuContactCapsuleMesh.obj
 0001:00087280       ?contactCapsuleMesh@Gu@physx@@YA_NAEBVPxGeometry@2@0AEBUPxTransformPadded@2@1AEBUNarrowPhaseParams@12@AEAUCache@12@AEAVPxContactBuffer@2@PEAVPxRenderOutput@2@@Z 0000000180088280 f   GuContactCapsuleMesh.obj
 0001:00088400       ?transformQueryBounds@FastVertex2ShapeScaling@Cm@physx@@QEBAXAEAV?$PxVec3T@M@3@0AEAV?$PxMat33T@M@3@@Z 0000000180089400 f i GuContactCapsuleMesh.obj
 0001:0008c690       ?contactBoxConvex@Gu@physx@@YA_NAEBVPxGeometry@2@0AEBUPxTransformPadded@2@1AEBUNarrowPhaseParams@12@AEAUCache@12@AEAVPxContactBuffer@2@PEAVPxRenderOutput@2@@Z 000000018008d690 f   GuContactConvexConvex.obj
 0001:0008c860       ?contactConvexConvex@Gu@physx@@YA_NAEBVPxGeometry@2@0AEBUPxTransformPadded@2@1AEBUNarrowPhaseParams@12@AEAUCache@12@AEAVPxContactBuffer@2@PEAVPxRenderOutput@2@@Z 000000018008d860 f   GuContactConvexConvex.obj
 0001:0008cce0       ?transformPlaneToShapeSpace@FastVertex2ShapeScaling@Cm@physx@@QEBAXAEBV?$PxVec3T@M@3@MAEAV43@AEAM@Z 000000018008dce0 f i GuContactConvexConvex.obj
 0001:0008d190       ??_EConvexMeshContactGenerationCallback@@UEAAPEAXI@Z 000000018008e190 f i GuContactConvexMesh.obj
 0001:0008d190       ??_GConvexMeshContactGenerationCallback@@UEAAPEAXI@Z 000000018008e190 f i GuContactConvexMesh.obj
 0001:0008d1f0       ?addData@?$CacheMap@UCachedEdge@Gu@physx@@$0IA@@Gu@physx@@QEAA_NAEBUCachedEdge@23@@Z 000000018008e1f0 f i GuContactConvexMesh.obj
 0001:0008d2d0       ?addData@?$CacheMap@UCachedVertex@Gu@physx@@$0IA@@Gu@physx@@QEAA_NAEBUCachedVertex@23@@Z 000000018008e2d0 f i GuContactConvexMesh.obj
 0001:0008d360       ?allocate@?$PxArray@IV?$PxInlineAllocator@$0BBAA@V?$PxReflectionAllocator@I@physx@@@physx@@@physx@@IEAAPEAII@Z 000000018008e360 f i GuContactConvexMesh.obj
 0001:0008d760       ?contactBoxHeightfield@Gu@physx@@YA_NAEBVPxGeometry@2@0AEBUPxTransformPadded@2@1AEBUNarrowPhaseParams@12@AEAUCache@12@AEAVPxContactBuffer@2@PEAVPxRenderOutput@2@@Z 000000018008e760 f   GuContactConvexMesh.obj
 0001:0008d8e0       ?contactBoxMesh@Gu@physx@@YA_NAEBVPxGeometry@2@0AEBUPxTransformPadded@2@1AEBUNarrowPhaseParams@12@AEAUCache@12@AEAVPxContactBuffer@2@PEAVPxRenderOutput@2@@Z 000000018008e8e0 f   GuContactConvexMesh.obj
 0001:0008dab0       ?contactConvexHeightfield@Gu@physx@@YA_NAEBVPxGeometry@2@0AEBUPxTransformPadded@2@1AEBUNarrowPhaseParams@12@AEAUCache@12@AEAVPxContactBuffer@2@PEAVPxRenderOutput@2@@Z 000000018008eab0 f   GuContactConvexMesh.obj
 0001:0008dc00       ?contactConvexMesh@Gu@physx@@YA_NAEBVPxGeometry@2@0AEBUPxTransformPadded@2@1AEBUNarrowPhaseParams@12@AEAUCache@12@AEAVPxContactBuffer@2@PEAVPxRenderOutput@2@@Z 000000018008ec00 f   GuContactConvexMesh.obj
 0001:00091320       ?processHit@ConvexMeshContactGenerationCallback@@UEAA_NAEBUPxGeomRaycastHit@physx@@AEBV?$PxVec3T@M@3@11AEAMPEBI@Z 0000000180092320 f i GuContactConvexMesh.obj
 0001:00091ce0       ?recreate@?$PxArray@IV?$PxInlineAllocator@$0BBAA@V?$PxReflectionAllocator@I@physx@@@physx@@@physx@@IEAAXI@Z 0000000180092ce0 f i GuContactConvexMesh.obj
 0001:00093150       ?contactPlaneBox@Gu@physx@@YA_NAEBVPxGeometry@2@0AEBUPxTransformPadded@2@1AEBUNarrowPhaseParams@12@AEAUCache@12@AEAVPxContactBuffer@2@PEAVPxRenderOutput@2@@Z 0000000180094150 f   GuContactPlaneBox.obj
 0001:00093df0       ?contactPlaneCapsule@Gu@physx@@YA_NAEBVPxGeometry@2@0AEBUPxTransformPadded@2@1AEBUNarrowPhaseParams@12@AEAUCache@12@AEAVPxContactBuffer@2@PEAVPxRenderOutput@2@@Z 0000000180094df0 f   GuContactPlaneCapsule.obj
 0001:000944c0       ?contactPlaneConvex@Gu@physx@@YA_NAEBVPxGeometry@2@0AEBUPxTransformPadded@2@1AEBUNarrowPhaseParams@12@AEAUCache@12@AEAVPxContactBuffer@2@PEAVPxRenderOutput@2@@Z 00000001800954c0 f   GuContactPlaneConvex.obj
 0001:000961f0       ?contactPolygonPolygonExt@Gu@physx@@YA_NIPEBV?$PxVec3T@M@2@PEBEAEBV?$PxMat34T@M@2@AEBVPxPlane@2@AEBV?$PxMat33T@M@2@I01234AEBV32@22IIAEAVPxContactBuffer@2@_N5M@Z 00000001800971f0 f   GuContactPolygonPolygon.obj
 0001:00097960       ?findRotationMatrixFromZ@Gu@physx@@YA?AV?$PxMat33T@M@2@AEBV?$PxVec3T@M@2@@Z 0000000180098960 f   GuContactPolygonPolygon.obj
 0001:00098380       ?contactSphereBox@Gu@physx@@YA_NAEBVPxGeometry@2@0AEBUPxTransformPadded@2@1AEBUNarrowPhaseParams@12@AEAUCache@12@AEAVPxContactBuffer@2@PEAVPxRenderOutput@2@@Z 0000000180099380 f   GuContactSphereBox.obj
 0001:00098950       ?contactSphereCapsule@Gu@physx@@YA_NAEBVPxGeometry@2@0AEBUPxTransformPadded@2@1AEBUNarrowPhaseParams@12@AEAUCache@12@AEAVPxContactBuffer@2@PEAVPxRenderOutput@2@@Z 0000000180099950 f   GuContactSphereCapsule.obj
 0001:00099730       ?contactSphereHeightfield@Gu@physx@@YA_NAEBVPxGeometry@2@0AEBUPxTransformPadded@2@1AEBUNarrowPhaseParams@12@AEAUCache@12@AEAVPxContactBuffer@2@PEAVPxRenderOutput@2@@Z 000000018009a730 f   GuContactSphereMesh.obj
 0001:0009a120       ?contactSphereMesh@Gu@physx@@YA_NAEBVPxGeometry@2@0AEBUPxTransformPadded@2@1AEBUNarrowPhaseParams@12@AEAUCache@12@AEAVPxContactBuffer@2@PEAVPxRenderOutput@2@@Z 000000018009b120 f   GuContactSphereMesh.obj
 0001:0009c4d0       ?contactSpherePlane@Gu@physx@@YA_NAEBVPxGeometry@2@0AEBUPxTransformPadded@2@1AEBUNarrowPhaseParams@12@AEAUCache@12@AEAVPxContactBuffer@2@PEAVPxRenderOutput@2@@Z 000000018009d4d0 f   GuContactSpherePlane.obj
 0001:0009c6e0       ?contactSphereSphere@Gu@physx@@YA_NAEBVPxGeometry@2@0AEBUPxTransformPadded@2@1AEBUNarrowPhaseParams@12@AEAUCache@12@AEAVPxContactBuffer@2@PEAVPxRenderOutput@2@@Z 000000018009d6e0 f   GuContactSphereSphere.obj
 0001:0009c860       ?contactCustomGeometryGeometry@Gu@physx@@YA_NAEBVPxGeometry@2@0AEBUPxTransformPadded@2@1AEBUNarrowPhaseParams@12@AEAUCache@12@AEAVPxContactBuffer@2@PEAVPxRenderOutput@2@@Z 000000018009d860 f   GuContactCustomGeometry.obj
 0001:0009c8c0       ?contactGeometryCustomGeometry@Gu@physx@@YA_NAEBVPxGeometry@2@0AEBUPxTransformPadded@2@1AEBUNarrowPhaseParams@12@AEAUCache@12@AEAVPxContactBuffer@2@PEAVPxRenderOutput@2@@Z 000000018009d8c0 f   GuContactCustomGeometry.obj
 0001:0009c980       ?selectNormal@Gu@physx@@YA_NEMM@Z 000000018009d980 f   GuFeatureCode.obj
 0001:0009ca00       ??0BigConvexData@physx@@QEAA@XZ 000000018009da00 f   GuBigConvexData.obj
 0001:0009ca20       ??1BigConvexData@physx@@QEAA@XZ 000000018009da20 f   GuBigConvexData.obj
 0001:0009cae0       ?ComputeNearestOffset@BigConvexData@physx@@QEBAIAEBV?$PxVec3T@M@2@@Z 000000018009dae0 f   GuBigConvexData.obj
 0001:0009cbe0       ?ComputeOffset@BigConvexData@physx@@QEBAIAEBV?$PxVec3T@M@2@@Z 000000018009dbe0 f   GuBigConvexData.obj
 0001:0009cce0       ?CreateOffsets@BigConvexData@physx@@IEAAXXZ 000000018009dce0 f   GuBigConvexData.obj
 0001:0009cd30       ?Load@BigConvexData@physx@@QEAA_NAEAVPxInputStream@2@@Z 000000018009dd30 f   GuBigConvexData.obj
 0001:0009ce40       ?VLoad@BigConvexData@physx@@IEAA_NAEAVPxInputStream@2@@Z 000000018009de40 f   GuBigConvexData.obj
 0001:0009cfe0       ?exportExtraData@BigConvexData@physx@@QEAAXAEAVPxSerializationContext@2@@Z 000000018009dfe0 f   GuBigConvexData.obj
 0001:0009d060       ?importExtraData@BigConvexData@physx@@QEAAXAEAVPxDeserializationContext@2@@Z 000000018009e060 f   GuBigConvexData.obj
 0001:0009d0d0       ?findUniqueConvexEdges@Gu@physx@@YAIIPEIAUConvexEdge@12@IPEIBUHullPolygonData@12@PEIBE@Z 000000018009e0d0 f   GuConvexHelper.obj
 0001:0009d210       ?getConvexData@Gu@physx@@YA_NAEBVPxConvexMeshGeometry@2@AEAVFastVertex2ShapeScaling@Cm@2@AEAVPxBounds3@2@AEAUPolygonalData@12@@Z 000000018009e210 f   GuConvexHelper.obj
 0001:0009d4a0       ?getScaledConvex@Gu@physx@@YAXAEAPEAV?$PxVec3T@M@2@AEAPEAEPEAV32@PEAE_NPEBV32@PEBEIAEBVFastVertex2ShapeScaling@Cm@2@@Z 000000018009e4a0 f   GuConvexHelper.obj
 0001:0009d5d0       ??0ConvexMesh@Gu@physx@@QEAA@PEAVMeshFactory@12@@Z 000000018009e5d0 f   GuConvexMesh.obj
 0001:0009d660       ??0ConvexMesh@Gu@physx@@QEAA@PEAVMeshFactory@12@AEAUConvexHullInitData@12@@Z 000000018009e660 f   GuConvexMesh.obj
 0001:0009d780       ??_EConvexMesh@Gu@physx@@UEAAPEAXI@Z 000000018009e780 f i GuConvexMesh.obj
 0001:0009d780       ??_GConvexMesh@Gu@physx@@UEAAPEAXI@Z 000000018009e780 f i GuConvexMesh.obj
 0001:0009d890       ??_EPxBVH@physx@@MEAAPEAXI@Z 000000018009e890 f i GuBVH.obj
 0001:0009d890       ??_EPxBase@physx@@MEAAPEAXI@Z 000000018009e890 f i GuConvexMesh.obj
 0001:0009d890       ??_GPxBVH@physx@@MEAAPEAXI@Z 000000018009e890 f i GuBVH.obj
 0001:0009d890       ??_GPxBase@physx@@MEAAPEAXI@Z 000000018009e890 f i GuConvexMesh.obj
 0001:0009d8c0       ?acquireReference@ConvexMesh@Gu@physx@@UEAAXXZ 000000018009e8c0 f   GuConvexMesh.obj
 0001:0009d8c0       ?acquireReference@HeightField@Gu@physx@@UEAAXXZ 000000018009e8c0 f   GuHeightField.obj
 0001:0009d8c0       ?acquireReference@SoftBodyAuxData@Gu@physx@@UEAAXXZ 000000018009e8c0 f   GuTetrahedronMesh.obj
 0001:0009d8c0       ?acquireReference@SoftBodyMesh@Gu@physx@@UEAAXXZ 000000018009e8c0 f   GuTetrahedronMesh.obj
 0001:0009d8c0       ?acquireReference@TetrahedronMesh@Gu@physx@@UEAAXXZ 000000018009e8c0 f   GuTetrahedronMesh.obj
 0001:0009d8c0       ?acquireReference@TriangleMesh@Gu@physx@@UEAAXXZ 000000018009e8c0 f   GuTriangleMesh.obj
 0001:0009dd90       ?createObject@ConvexMesh@Gu@physx@@SAPEAV123@AEAPEAEAEAVPxDeserializationContext@3@@Z 000000018009ed90 f   GuConvexMesh.obj
 0001:0009de80       ?exportExtraData@ConvexMesh@Gu@physx@@UEAAXAEAVPxSerializationContext@3@@Z 000000018009ee80 f   GuConvexMesh.obj
 0001:0009df50       ?getConcreteTypeName@PxConvexMesh@physx@@UEBAPEBDXZ 000000018009ef50 f i GuConvexMesh.obj
 0001:0009df60       ?getIndexBuffer@ConvexMesh@Gu@physx@@UEBAPEBEXZ 000000018009ef60 f i GuConvexMesh.obj
 0001:0009dfa0       ?getLocalBounds@ConvexMesh@Gu@physx@@UEBA?AVPxBounds3@3@XZ 000000018009efa0 f   GuConvexMesh.obj
 0001:0009e030       ?getMassInformation@ConvexMesh@Gu@physx@@UEBAXAEAMAEAV?$PxMat33T@M@3@AEAV?$PxVec3T@M@3@@Z 000000018009f030 f   GuConvexMesh.obj
 0001:0009e0a0       ?getNbPolygons@ConvexMesh@Gu@physx@@UEBAIXZ 000000018009f0a0 f i GuConvexMesh.obj
 0001:0009e0b0       ?getNbVertices@ConvexMesh@Gu@physx@@UEBAIXZ 000000018009f0b0 f i GuConvexMesh.obj
 0001:0009e0c0       ?getPolygonData@ConvexMesh@Gu@physx@@UEBA_NIAEAUPxHullPolygon@3@@Z 000000018009f0c0 f   GuConvexMesh.obj
 0001:0009e110       ?getReferenceCount@ConvexMesh@Gu@physx@@UEBAIXZ 000000018009f110 f   GuConvexMesh.obj
 0001:0009e110       ?getReferenceCount@HeightField@Gu@physx@@UEBAIXZ 000000018009f110 f   GuHeightField.obj
 0001:0009e110       ?getReferenceCount@SoftBodyAuxData@Gu@physx@@UEBAIXZ 000000018009f110 f   GuTetrahedronMesh.obj
 0001:0009e110       ?getReferenceCount@SoftBodyMesh@Gu@physx@@UEBAIXZ 000000018009f110 f   GuTetrahedronMesh.obj
 0001:0009e110       ?getReferenceCount@TetrahedronMesh@Gu@physx@@UEBAIXZ 000000018009f110 f   GuTetrahedronMesh.obj
 0001:0009e110       ?getReferenceCount@TriangleMesh@Gu@physx@@UEBAIXZ 000000018009f110 f   GuTriangleMesh.obj
 0001:0009e110       ?length@DNameStatusNode@@UEBAHXZ 000000018009f110 f   libvcruntime:undname.obj
 0001:0009e110       ?raw_length@DNameStatusNode@@UEBAHXZ 000000018009f110 f   libvcruntime:undname.obj
 0001:0009e120       ?getSDF@ConvexMesh@Gu@physx@@UEBAPEBMXZ 000000018009f120 f   GuConvexMesh.obj
 0001:0009e130       ?getVertices@ConvexMesh@Gu@physx@@UEBAPEBV?$PxVec3T@M@3@XZ 000000018009f130 f i GuConvexMesh.obj
 0001:0009e150       ?isGpuCompatible@ConvexMesh@Gu@physx@@UEBA_NXZ 000000018009f150 f   GuConvexMesh.obj
 0001:0009e190       ?isKindOf@PxBase@physx@@MEBA_NPEBD@Z 000000018009f190 f i GuConvexMesh.obj
 0001:0009e1c0       ?isKindOf@PxConvexMesh@physx@@MEBA_NPEBD@Z 000000018009f1c0 f i GuConvexMesh.obj
 0001:0009e230       ?isReleasable@PxBase@physx@@UEBA_NXZ 000000018009f230 f i GuConvexMesh.obj
 0001:0009e240       ?load@ConvexMesh@Gu@physx@@QEAA_NAEAVPxInputStream@3@@Z 000000018009f240 f   GuConvexMesh.obj
 0001:0009e790       ?onRefCountZero@ConvexMesh@Gu@physx@@UEAAXXZ 000000018009f790 f   GuConvexMesh.obj
 0001:0009e8c0       ?release@ConvexMesh@Gu@physx@@UEAAXXZ 000000018009f8c0 f   GuConvexMesh.obj
 0001:0009e8c0       ?release@HeightField@Gu@physx@@UEAAXXZ 000000018009f8c0 f   GuHeightField.obj
 0001:0009e8c0       ?release@SoftBodyAuxData@Gu@physx@@UEAAXXZ 000000018009f8c0 f   GuTetrahedronMesh.obj
 0001:0009e8c0       ?release@SoftBodyMesh@Gu@physx@@UEAAXXZ 000000018009f8c0 f   GuTetrahedronMesh.obj
 0001:0009e8c0       ?release@TetrahedronMesh@Gu@physx@@UEAAXXZ 000000018009f8c0 f   GuTetrahedronMesh.obj
 0001:0009e8c0       ?release@TriangleMesh@Gu@physx@@UEAAXXZ 000000018009f8c0 f   GuTriangleMesh.obj
 0001:0009e8f0       ??Dphysx@@YA?AV?$PxMat34T@M@0@AEBVPxMeshScale@0@AEBV10@@Z 000000018009f8f0 f i GuConvexUtilsInternal.obj
 0001:0009ee90       ?computeHullOBB@Gu@physx@@YAXAEAVBox@12@AEBVPxBounds3@2@MAEBV?$PxMat34T@M@2@2AEBVFastVertex2ShapeScaling@Cm@2@_N@Z 000000018009fe90 f   GuConvexUtilsInternal.obj
 0001:0009f340       ?computeOBBAroundConvex@Gu@physx@@YAXAEAVBox@12@AEBVPxConvexMeshGeometry@2@PEBVPxConvexMesh@2@AEBV?$PxTransformT@M@2@@Z 00000001800a0340 f   GuConvexUtilsInternal.obj
 0001:0009fb90       ?computeVertexSpaceOBB@Gu@physx@@YAXAEAVBox@12@AEBV312@AEBV?$PxTransformT@M@2@AEBVPxMeshScale@2@@Z 00000001800a0b90 f   GuConvexUtilsInternal.obj
 0001:0009fec0       ?transform@physx@@YA?AVBox@Gu@1@AEBV?$PxMat34T@M@1@AEBV231@@Z 00000001800a0ec0 f i GuConvexUtilsInternal.obj
 0001:000a0110       ?localSearch@physx@@YAXAEAIAEBV?$PxVec3T@M@1@PEBV21@PEBUBigConvexRawData@Gu@1@@Z 00000001800a1110 f   GuHillClimbing.obj
 0001:000a0240       ??0PCMPolygonalBox@Gu@physx@@QEAA@AEBV?$PxVec3T@M@2@@Z 00000001800a1240 f   GuPCMShapeConvex.obj
 0001:000a0240       ??0PolygonalBox@Gu@physx@@QEAA@AEBV?$PxVec3T@M@2@@Z 00000001800a1240 f   GuShapeConvex.obj
 0001:000a1700       ?getPolygonalData@PolygonalBox@Gu@physx@@QEBAXPEIAUPolygonalData@23@@Z 00000001800a2700 f   GuShapeConvex.obj
 0001:000a1770       ?getPolygonalData_Convex@Gu@physx@@YAXPEIAUPolygonalData@12@PEIBUConvexHullData@12@AEBVFastVertex2ShapeScaling@Cm@2@@Z 00000001800a2770 f   GuShapeConvex.obj
 0001:000a18d0       ?distancePointBoxSquared@Gu@physx@@YAMAEBV?$PxVec3T@M@2@00AEBV?$PxMat33T@M@2@PEAV32@@Z 00000001800a28d0 f   GuDistancePointBox.obj
 0001:000a1a20       ?closestPtPointTriangle@Gu@physx@@YA?AV?$PxVec3T@M@2@AEBV32@000AEAM1@Z 00000001800a2a20 f   GuDistancePointTriangle.obj
 0001:000a1f40       ?distancePointTriangleSquared@Gu@physx@@YA?AT__m128@@AEBT3@000AEAT3@11@Z 00000001800a2f40 f   GuDistancePointTriangle.obj
 0001:000a2c90       ?distanceSegmentBoxSquared@Gu@physx@@YAMAEBV?$PxVec3T@M@2@000AEBV?$PxMat33T@M@2@PEAMPEAV32@@Z 00000001800a3c90 f   GuDistanceSegmentBox.obj
 0001:000a3510       ?distanceSegmentSegmentSquared4@Gu@physx@@YA?AT__m128@@AEBT3@000000000AEAT3@1@Z 00000001800a4510 f   GuDistanceSegmentSegment.obj
 0001:000a3820       ?distanceSegmentSegmentSquared@Gu@physx@@YA?AT__m128@@AEBT3@000AEAT3@1@Z 00000001800a4820 f   GuDistanceSegmentSegment.obj
 0001:000a39e0       ?distanceSegmentSegmentSquared@Gu@physx@@YAMAEBV?$PxVec3T@M@2@000PEAM1@Z 00000001800a49e0 f   GuDistanceSegmentSegment.obj
 0001:000a3c70       ?distanceSegmentSegmentSquared@Gu@physx@@YAMAEBV?$PxVec3T@M@2@0M00MPEAM1@Z 00000001800a4c70 f   GuDistanceSegmentSegment.obj
 0001:000a43b0       ?distanceSegmentTriangleSquared@Gu@physx@@YA?AT__m128@@AEBT3@0000AEAT3@1@Z 00000001800a53b0 f   GuDistanceSegmentTriangle.obj
 0001:000a4af0       ?distanceSegmentTriangleSquared@Gu@physx@@YAMAEBV?$PxVec3T@M@2@0000PEAM11@Z 00000001800a5af0 f   GuDistanceSegmentTriangle.obj
 0001:000a6160       ?PointOutsideOfPlane4@Gu@physx@@YA?AV?$PxVec4T@M@2@AEBV?$PxVec3T@M@2@0000@Z 00000001800a7160 f   GuDistancePointTetrahedron.obj
 0001:000a65d0       ?closestPtPointTetrahedron@Gu@physx@@YA?AV?$PxVec3T@M@2@AEBV32@0000AEBV?$PxVec4T@M@2@@Z 00000001800a75d0 f   GuDistancePointTetrahedron.obj
 0001:000a76c0       ?PenetrationDepth@EPA@Gu@physx@@QEAA?AW4GjkStatus@23@AEBUGjkConvex@23@0PEIBT__m128@@1E_NT6@AEAUGjkOutput@23@@Z 00000001800a86c0 f   GuEPA.obj
 0001:000a8180       ?addFacet@EPA@Gu@physx@@QEAAPEAVFacet@23@IIIAEBT__m128@@@Z 00000001800a9180 f   GuEPA.obj
 0001:000a85b0       ?epaPenetration@Gu@physx@@YA?AW4GjkStatus@12@AEBUGjkConvex@12@0PEIBE1E_NT__m128@@AEAUGjkOutput@12@@Z 00000001800a95b0 f   GuEPA.obj
 0001:000a8720       ?epaPenetration@Gu@physx@@YA?AW4GjkStatus@12@AEBUGjkConvex@12@0PEIBT__m128@@1E_NT5@AEAUGjkOutput@12@@Z 00000001800a9720 f   GuEPA.obj
 0001:000a87d0       ?silhouette@Facet@Gu@physx@@QEAAXAEBT__m128@@PEIBT4@1AEAVEdgeBuffer@23@AEAV?$InlineDeferredIDPool@$0EA@@Cm@3@@Z 00000001800a97d0 f   GuEPA.obj
 0001:000a89a0       ?closestPtPointTetrahedron@Gu@physx@@YA?AT__m128@@PEIAT3@00AEAI@Z 00000001800a99a0 f   GuGJKSimplex.obj
 0001:000a9110       ?closestPtPointTetrahedron@Gu@physx@@YA?AT__m128@@PEIAT3@00PEIAH1AEAI@Z 00000001800aa110 f   GuGJKSimplex.obj
 0001:000aab90       ??$gjk@UGjkConvex@Gu@physx@@U123@@Gu@physx@@YA?AW4GjkStatus@01@AEBUGjkConvex@01@0AEBT__m128@@1AEAT4@222@Z 00000001800abb90 f i GuGJKTest.obj
 0001:000ab7b0       ??$gjkPenetration@UGjkConvex@Gu@physx@@U123@@Gu@physx@@YA?AW4GjkStatus@01@AEBUGjkConvex@01@0AEBT__m128@@1_NPEIAE3AEAEAEAUGjkOutput@01@@Z 00000001800ac7b0 f i GuGJKTest.obj
 0001:000ab820       ??$gjkPenetration@UGjkConvex@Gu@physx@@U123@@Gu@physx@@YA?AW4GjkStatus@01@AEBUGjkConvex@01@0AEBT__m128@@1_NPEIAE3PEIAT4@4AEAEAEAUGjkOutput@01@@Z 00000001800ac820 f i GuGJKTest.obj
 0001:000acc70       ?testEpaPenetration@Gu@physx@@YA?AW4GjkStatus@12@AEBUGjkConvex@12@0PEBE1EAEAUGjkOutput@12@@Z 00000001800adc70 f   GuGJKTest.obj
 0001:000accc0       ?testGjk@Gu@physx@@YA?AW4GjkStatus@12@AEBUGjkConvex@12@0AEBT__m128@@1AEAT5@222@Z 00000001800adcc0 f   GuGJKTest.obj
 0001:000accd0       ?testGjkPenetration@Gu@physx@@YA?AW4GjkStatus@12@AEBUGjkConvex@12@0AEBT__m128@@1PEAE2AEAEAEAUGjkOutput@12@@Z 00000001800adcd0 f   GuGJKTest.obj
 0001:000acd20       ??0HeightField@Gu@physx@@QEAA@PEAVMeshFactory@12@@Z 00000001800add20 f   GuHeightField.obj
 0001:000acd70       ??0HeightField@Gu@physx@@QEAA@PEAVMeshFactory@12@AEAUHeightFieldData@12@@Z 00000001800add70 f   GuHeightField.obj
 0001:000ace20       ??1HeightField@Gu@physx@@UEAA@XZ 00000001800ade20 f   GuHeightField.obj
 0001:000acea0       ??_EHeightField@Gu@physx@@UEAAPEAXI@Z 00000001800adea0 f i GuHeightField.obj
 0001:000acea0       ??_GHeightField@Gu@physx@@UEAAPEAXI@Z 00000001800adea0 f i GuHeightField.obj
 0001:000acf50       ?computeCellCoordinates@HeightField@Gu@physx@@QEBAIMMAEAM0@Z 00000001800adf50 f   GuHeightField.obj
 0001:000ad070       ?createObject@HeightField@Gu@physx@@SAPEAV123@AEAPEAEAEAVPxDeserializationContext@3@@Z 00000001800ae070 f   GuHeightField.obj
 0001:000ad0c0       ?exportExtraData@HeightField@Gu@physx@@UEAAXAEAVPxSerializationContext@3@@Z 00000001800ae0c0 f   GuHeightField.obj
 0001:000ad110       ?getConcreteTypeName@PxHeightField@physx@@UEBAPEBDXZ 00000001800ae110 f i GuHeightField.obj
 0001:000ad120       ?getConvexEdgeThreshold@HeightField@Gu@physx@@UEBAMXZ 00000001800ae120 f i GuHeightField.obj
 0001:000ad130       ?getFlags@HeightField@Gu@physx@@UEBA?AV?$PxFlags@W4Enum@PxHeightFieldFlag@physx@@G@3@XZ 00000001800ae130 f i GuHeightField.obj
 0001:000ad140       ?getFormat@HeightField@Gu@physx@@UEBA?AW4Enum@PxHeightFieldFormat@3@XZ 00000001800ae140 f i GuHeightField.obj
 0001:000ad150       ?getHeight@HeightField@Gu@physx@@UEBAMMM@Z 00000001800ae150 f i GuHeightField.obj
 0001:000ad270       ?getNbColumns@HeightField@Gu@physx@@UEBAIXZ 00000001800ae270 f i GuHeightField.obj
 0001:000ad280       ?getNbBounds@BVH@Gu@physx@@UEBAIXZ 00000001800ae280 f i GuBVH.obj
 0001:000ad280       ?getNbPrimitives@SourceMesh@Gu@physx@@UEBAIXZ 00000001800ae280 f i GuBV4.obj
 0001:000ad280       ?getNbPrimitives@TetrahedronSourceMesh@Gu@physx@@UEBAIXZ 00000001800ae280 f i GuBV4.obj
 0001:000ad280       ?getNbRows@HeightField@Gu@physx@@UEBAIXZ 00000001800ae280 f i GuHeightField.obj
 0001:000ad290       ?getSample@HeightField@Gu@physx@@UEBAAEBUPxHeightFieldSample@3@II@Z 00000001800ae290 f i GuHeightField.obj
 0001:000ad2a0       ?getSampleStride@HeightField@Gu@physx@@UEBAIXZ 00000001800ae2a0 f i GuHeightField.obj
 0001:000ad2b0       ?getTimestamp@HeightField@Gu@physx@@UEBAIXZ 00000001800ae2b0 f i GuHeightField.obj
 0001:000ad2c0       ?getTriangleMaterialIndex@HeightField@Gu@physx@@UEBAGI@Z 00000001800ae2c0 f i GuHeightField.obj
 0001:000ad2f0       ?getTriangleNormal@HeightField@Gu@physx@@UEBA?AV?$PxVec3T@M@3@I@Z 00000001800ae2f0 f i GuHeightField.obj
 0001:000ad310       ?getTriangleNormalInternal@HeightField@Gu@physx@@QEBA?AV?$PxVec3T@M@3@I@Z 00000001800ae310 f i GuHeightField.obj
 0001:000ad640       ?isCollisionVertexPreca@HeightField@Gu@physx@@QEBA_NIIIG@Z 00000001800ae640 f   GuHeightField.obj
 0001:000ad6e0       ?isConvexVertex@HeightField@Gu@physx@@QEBA_NIII@Z 00000001800ae6e0 f i GuHeightField.obj
 0001:000ad7b0       ?isKindOf@PxHeightField@physx@@MEBA_NPEBD@Z 00000001800ae7b0 f i GuHeightField.obj
 0001:000ad820       ?isSolidVertex@HeightField@Gu@physx@@QEBA_NIIIGAEA_N@Z 00000001800ae820 f   GuHeightField.obj
 0001:000adab0       ?load@HeightField@Gu@physx@@QEAA_NAEAVPxInputStream@3@@Z 00000001800aeab0 f   GuHeightField.obj
 0001:000ade10       ?loadFromDesc@HeightField@Gu@physx@@QEAA_NAEBVPxHeightFieldDesc@3@@Z 00000001800aee10 f   GuHeightField.obj
 0001:000ae010       ?modifySamples@HeightField@Gu@physx@@UEAA_NHHAEBVPxHeightFieldDesc@3@_N@Z 00000001800af010 f   GuHeightField.obj
 0001:000ae380       ?onRefCountZero@HeightField@Gu@physx@@UEAAXXZ 00000001800af380 f   GuHeightField.obj
 0001:000ae450       ?parseTrianglesForCollisionVertices@HeightField@Gu@physx@@QEAAXG@Z 00000001800af450 f   GuHeightField.obj
 0001:000ae960       ?releaseMemory@HeightField@Gu@physx@@QEAAXXZ 00000001800af960 f   GuHeightField.obj
 0001:000ae9b0       ?resizeAndClear@?$PxBitMapBase@VPxAllocator@physx@@@physx@@QEAAXI@Z 00000001800af9b0 f i GuHeightField.obj
 0001:000aea60       ?save@HeightField@Gu@physx@@QEAA_NAEAVPxOutputStream@3@_N@Z 00000001800afa60 f   GuHeightField.obj
 0001:000aeca0       ?saveCells@HeightField@Gu@physx@@UEBAIPEAXI@Z 00000001800afca0 f   GuHeightField.obj
 0001:000aece0       ?computeLocalBounds@HeightFieldUtil@Gu@physx@@QEBAXAEAVPxBounds3@3@@Z 00000001800afce0 f   GuHeightFieldUtil.obj
 0001:000af1b0       ?getTriangle@HeightFieldUtil@Gu@physx@@QEBAIAEBV?$PxTransformT@M@3@AEAVPxTriangle@3@PEAI2I_N3@Z 00000001800b01b0 f   GuHeightFieldUtil.obj
 0001:000afcb0       ?getTriangleAdjacencyIndices@HeightField@Gu@physx@@QEBAXIIIIAEAI00@Z 00000001800b0cb0 f i GuHeightFieldUtil.obj
 0001:000afe60       ?getTriangleVertexIndices@HeightField@Gu@physx@@QEBAXIAEAI00@Z 00000001800b0e60 f i GuHeightFieldUtil.obj
 0001:000aff20       ?overlapAABBTriangles@HeightFieldUtil@Gu@physx@@QEBAXAEBVPxBounds3@3@AEAVOverlapReport@23@I@Z 00000001800b0f20 f   GuHeightFieldUtil.obj
 0001:000b0380       ??$gjk@U?$RelativeConvex@VTriangleV@Gu@physx@@@Gu@physx@@U?$LocalConvex@VConvexHullV@Gu@physx@@@23@@Gu@physx@@YA?AW4GjkStatus@01@AEBU?$RelativeConvex@VTriangleV@Gu@physx@@@01@AEBU?$LocalConvex@VConvexHullV@Gu@physx@@@01@AEBT__m128@@2AEAT5@333@Z 00000001800b1380 f i GuOverlapTestsHF.obj
 0001:000b12c0       ?GeomOverlapCallback_BoxHeightfield@@YA_NAEBVPxGeometry@physx@@AEBV?$PxTransformT@M@2@01PEAUTriggerCache@Gu@2@PEAUPxQueryThreadContext@2@@Z 00000001800b22c0 f   GuOverlapTestsHF.obj
 0001:000b1820       ?GeomOverlapCallback_CapsuleHeightfield@@YA_NAEBVPxGeometry@physx@@AEBV?$PxTransformT@M@2@01PEAUTriggerCache@Gu@2@PEAUPxQueryThreadContext@2@@Z 00000001800b2820 f   GuOverlapTestsHF.obj
 0001:000b1e20       ?GeomOverlapCallback_ConvexHeightfield@@YA_NAEBVPxGeometry@physx@@AEBV?$PxTransformT@M@2@01PEAUTriggerCache@Gu@2@PEAUPxQueryThreadContext@2@@Z 00000001800b2e20 f   GuOverlapTestsHF.obj
 0001:000b2860       ?GeomOverlapCallback_SphereHeightfield@@YA_NAEBVPxGeometry@physx@@AEBV?$PxTransformT@M@2@01PEAUTriggerCache@Gu@2@PEAUPxQueryThreadContext@2@@Z 00000001800b3860 f   GuOverlapTestsHF.obj
 0001:000b3420       ??$gjkRaycast@U?$LocalConvex@VTriangleV@Gu@physx@@@Gu@physx@@U?$LocalConvex@VConvexHullV@Gu@physx@@@23@@Gu@physx@@YA_NAEBU?$LocalConvex@VTriangleV@Gu@physx@@@01@AEBU?$LocalConvex@VConvexHullV@Gu@physx@@@01@AEBT__m128@@222AEAT4@33M@Z 00000001800b4420 f i GuSweepsHF.obj
 0001:000b4220       ??$traceSegment@VBoxTraceSegmentReport@@$0A@$00@HeightFieldTraceUtil@Gu@physx@@QEBAXAEBV?$PxVec3T@M@2@0MPEAVBoxTraceSegmentReport@@AEBVPxBounds3@2@_NPEBV32@@Z 00000001800b5220 f i GuSweepsHF.obj
 0001:000b4220       ??$traceSegment@VCapsuleTraceSegmentReport@@$0A@$00@HeightFieldTraceUtil@Gu@physx@@QEBAXAEBV?$PxVec3T@M@2@0MPEAVCapsuleTraceSegmentReport@@AEBVPxBounds3@2@_NPEBV32@@Z 00000001800b5220 f i GuSweepsHF.obj
 0001:000b4220       ??$traceSegment@VConvexTraceSegmentReport@@$0A@$00@HeightFieldTraceUtil@Gu@physx@@QEBAXAEBV?$PxVec3T@M@2@0MPEAVConvexTraceSegmentReport@@AEBVPxBounds3@2@_NPEBV32@@Z 00000001800b5220 f i GuSweepsHF.obj
 0001:000b4a40       ??0ConvexTraceSegmentReport@@QEAA@AEBVHeightFieldUtil@Gu@physx@@AEBUConvexHullData@23@AEBVPxMeshScale@3@AEBV?$PxTransformT@M@3@3AEBV?$PxVec3T@M@3@MV?$PxFlags@W4Enum@PxHitFlag@physx@@G@3@M@Z 00000001800b5a40 f i GuSweepsHF.obj
 0001:000b53c0       ??_EBoxTraceSegmentReport@@UEAAPEAXI@Z 00000001800b63c0 f i GuSweepsHF.obj
 0001:000b53c0       ??_GBoxTraceSegmentReport@@UEAAPEAXI@Z 00000001800b63c0 f i GuSweepsHF.obj
 0001:000b53f0       ??_ECapsuleTraceSegmentReport@@UEAAPEAXI@Z 00000001800b63f0 f i GuSweepsHF.obj
 0001:000b53f0       ??_GCapsuleTraceSegmentReport@@UEAAPEAXI@Z 00000001800b63f0 f i GuSweepsHF.obj
 0001:000b5420       ??_EConvexTraceSegmentReport@@UEAAPEAXI@Z 00000001800b6420 f i GuSweepsHF.obj
 0001:000b5420       ??_GConvexTraceSegmentReport@@UEAAPEAXI@Z 00000001800b6420 f i GuSweepsHF.obj
 0001:000b5450       ??_EHeightFieldTraceSegmentReport@@UEAAPEAXI@Z 00000001800b6450 f i GuSweepsHF.obj
 0001:000b5450       ??_GHeightFieldTraceSegmentReport@@UEAAPEAXI@Z 00000001800b6450 f i GuSweepsHF.obj
 0001:000b5480       ?finalizeHit@ConvexTraceSegmentReport@@QEAA_NAEAUPxGeomSweepHit@physx@@AEBVPxHeightFieldGeometry@3@AEBV?$PxTransformT@M@3@AEBVPxConvexMeshGeometry@3@2AEBV?$PxVec3T@M@3@M@Z 00000001800b6480 f i GuSweepsHF.obj
 0001:000b56b0       ?onEvent@BoxTraceSegmentReport@@UEAA_NIPEBI@Z 00000001800b66b0 f i GuSweepsHF.obj
 0001:000b5b00       ?onEvent@CapsuleTraceSegmentReport@@UEAA_NIPEBI@Z 00000001800b6b00 f i GuSweepsHF.obj
 0001:000b5d20       ?onEvent@ConvexTraceSegmentReport@@UEAA_NIPEBI@Z 00000001800b6d20 f i GuSweepsHF.obj
 0001:000b62e0       ?prepare@?$OverlapTraceSegment@VBoxTraceSegmentReport@@@HeightFieldTraceUtil@Gu@physx@@QEAAXAEBV?$PxVec3T@M@4@00AEAM1@Z 00000001800b72e0 f i GuSweepsHF.obj
 0001:000b62e0       ?prepare@?$OverlapTraceSegment@VCapsuleTraceSegmentReport@@@HeightFieldTraceUtil@Gu@physx@@QEAAXAEBV?$PxVec3T@M@4@00AEAM1@Z 00000001800b72e0 f i GuSweepsHF.obj
 0001:000b62e0       ?prepare@?$OverlapTraceSegment@VConvexTraceSegmentReport@@@HeightFieldTraceUtil@Gu@physx@@QEAAXAEBV?$PxVec3T@M@4@00AEAM1@Z 00000001800b72e0 f i GuSweepsHF.obj
 0001:000b65a0       ?sweepBox_HeightFieldGeom@@YA_NAEBVPxGeometry@physx@@AEBV?$PxTransformT@M@2@AEBVPxBoxGeometry@2@1AEBVBox@Gu@2@AEBV?$PxVec3T@M@2@MAEAUPxGeomSweepHit@2@V?$PxFlags@W4Enum@PxHitFlag@physx@@G@2@MPEAUPxQueryThreadContext@2@@Z 00000001800b75a0 f   GuSweepsHF.obj
 0001:000b73f0       ?sweepCapsule_HeightFieldGeom@@YA_NAEBVPxGeometry@physx@@AEBV?$PxTransformT@M@2@AEBVPxCapsuleGeometry@2@1AEBVCapsule@Gu@2@AEBV?$PxVec3T@M@2@MAEAUPxGeomSweepHit@2@V?$PxFlags@W4Enum@PxHitFlag@physx@@G@2@MPEAUPxQueryThreadContext@2@@Z 00000001800b83f0 f   GuSweepsHF.obj
 0001:000b7d40       ?sweepConvex_HeightFieldGeom@@YA_NAEBVPxGeometry@physx@@AEBV?$PxTransformT@M@2@AEBVPxConvexMeshGeometry@2@1AEBV?$PxVec3T@M@2@MAEAUPxGeomSweepHit@2@V?$PxFlags@W4Enum@PxHitFlag@physx@@G@2@MPEAUPxQueryThreadContext@2@@Z 00000001800b8d40 f   GuSweepsHF.obj
 0001:000b8710       ?testVertexIndex@?$OverlapTraceSegment@VBoxTraceSegmentReport@@@HeightFieldTraceUtil@Gu@physx@@QEAA_NI@Z 00000001800b9710 f i GuSweepsHF.obj
 0001:000b8710       ?testVertexIndex@?$OverlapTraceSegment@VCapsuleTraceSegmentReport@@@HeightFieldTraceUtil@Gu@physx@@QEAA_NI@Z 00000001800b9710 f i GuSweepsHF.obj
 0001:000b8710       ?testVertexIndex@?$OverlapTraceSegment@VConvexTraceSegmentReport@@@HeightFieldTraceUtil@Gu@physx@@QEAA_NI@Z 00000001800b9710 f i GuSweepsHF.obj
 0001:000b8870       ?transformFast@PxBounds3@physx@@SA?AV12@AEBV?$PxTransformT@M@2@AEBV12@@Z 00000001800b9870 f i GuSweepsHF.obj
 0001:000b8c50       ?visitCells@?$OverlapTraceSegment@VBoxTraceSegmentReport@@@HeightFieldTraceUtil@Gu@physx@@QEAA_NAEBUOverlapRectangle@1234@@Z 00000001800b9c50 f i GuSweepsHF.obj
 0001:000b8c50       ?visitCells@?$OverlapTraceSegment@VCapsuleTraceSegmentReport@@@HeightFieldTraceUtil@Gu@physx@@QEAA_NAEBUOverlapRectangle@1234@@Z 00000001800b9c50 f i GuSweepsHF.obj
 0001:000b8c50       ?visitCells@?$OverlapTraceSegment@VConvexTraceSegmentReport@@@HeightFieldTraceUtil@Gu@physx@@QEAA_NAEBUOverlapRectangle@1234@@Z 00000001800b9c50 f i GuSweepsHF.obj
 0001:000b8e40       ?intersectOBBOBB@Gu@physx@@YA_NAEBV?$PxVec3T@M@2@0AEBV?$PxMat33T@M@2@001_N@Z 00000001800b9e40 f   GuIntersectionBoxBox.obj
 0001:000b9490       ?intersectCapsuleTriangle@Gu@physx@@YA_NAEBV?$PxVec3T@M@2@000AEBVCapsule@12@AEBUCapsuleTriangleOverlapData@12@@Z 00000001800ba490 f   GuIntersectionCapsuleTriangle.obj
 0001:000ba080       ?intersectEdgeEdge@Gu@physx@@YA_NAEBV?$PxVec3T@M@2@0000AEAMAEAV32@@Z 00000001800bb080 f   GuIntersectionEdgeEdge.obj
 0001:000ba3a0       ?intersectRayAABB2@Gu@physx@@YA_NAEBT__m128@@0000AEAT3@1@Z 00000001800bb3a0 f   GuIntersectionRayBox.obj
 0001:000ba460       ?intersectRayAABB2@Gu@physx@@YA_NAEBV?$PxVec3T@M@2@000MAEAM1@Z 00000001800bb460 f   GuIntersectionRayBox.obj
 0001:000ba610       ?intersectRayAABB@Gu@physx@@YAHAEBV?$PxVec3T@M@2@000AEAM1@Z 00000001800bb610 f   GuIntersectionRayBox.obj
 0001:000ba720       ?rayAABBIntersect2@Gu@physx@@YAIAEBV?$PxVec3T@M@2@000AEAV32@AEAM@Z 00000001800bb720 f   GuIntersectionRayBox.obj
 0001:000ba920       ?intersectRayCapsuleInternal@Gu@physx@@YAIAEBV?$PxVec3T@M@2@000MQEAM@Z 00000001800bb920 f   GuIntersectionRayCapsule.obj
 0001:000bade0       ?intersectRaySphere@Gu@physx@@YA_NAEBV?$PxVec3T@M@2@0M0MAEAMPEAV32@@Z 00000001800bbde0 f   GuIntersectionRaySphere.obj
 0001:000baed0       ?intersectRaySphereBasic@Gu@physx@@YA_NAEBV?$PxVec3T@M@2@0M0MAEAMPEAV32@@Z 00000001800bbed0 f   GuIntersectionRaySphere.obj
 0001:000bb030       ?intersectSphereBox@Gu@physx@@YA_NAEBVSphere@12@AEBVBox@12@@Z 00000001800bc030 f   GuIntersectionSphereBox.obj
 0001:000bb260       ?intersectTetrahedronBox@Gu@physx@@YA_NAEBV?$PxVec3T@M@2@000AEBVPxBounds3@2@@Z 00000001800bc260 f   GuIntersectionTetrahedronBox.obj
 0001:000bb630       ?intersectTriangleBox@Gu@physx@@YAHAEBVBoxPadded@12@AEBV?$PxVec3T@M@2@11@Z 00000001800bc630 f   GuIntersectionTriangleBox.obj
 0001:000bbc00       ?intersectTriangleBoxBV4@@YAHAEBV?$PxVec3T@M@physx@@00AEBV?$PxMat33T@M@2@00@Z 00000001800bcc00 f   GuIntersectionTriangleBox.obj
 0001:000bc040       ?intersectTriangleBox_ReferenceCode@Gu@physx@@YAHAEBV?$PxVec3T@M@2@0000@Z 00000001800bd040 f   GuIntersectionTriangleBox.obj
 0001:000bc810       ?intersectTriangleBox_Unsafe@Gu@physx@@YAHAEBV?$PxVec3T@M@2@0000@Z 00000001800bd810 f   GuIntersectionTriangleBox.obj
 0001:000bcec0       ?trianglesIntersect@Gu@physx@@YA_NAEBV?$PxVec3T@M@2@00000PEAVSegment@12@@Z 00000001800bdec0 f   GuIntersectionTriangleTriangle.obj
 0001:000bd4b0       ??0BV4Tree@Gu@physx@@QEAA@W4PxEMPTY@2@@Z 00000001800be4b0 f   GuBV4.obj
 0001:000bd4c0       ??0BV4Tree@Gu@physx@@QEAA@XZ 00000001800be4c0 f   GuBV4.obj
 0001:000bd4f0       ??0SourceMesh@Gu@physx@@QEAA@XZ 00000001800be4f0 f   GuBV4.obj
 0001:000bd520       ??0TetrahedronSourceMesh@Gu@physx@@QEAA@XZ 00000001800be520 f   GuBV4.obj
 0001:000bd550       ??1BV4Tree@Gu@physx@@QEAA@XZ 00000001800be550 f   GuBV4.obj
 0001:000bd5b0       ??1SourceMesh@Gu@physx@@UEAA@XZ 00000001800be5b0 f   GuBV4.obj
 0001:000bd5b0       ??1TetrahedronSourceMesh@Gu@physx@@UEAA@XZ 00000001800be5b0 f   GuBV4.obj
 0001:000bd600       ??4BV4Tree@Gu@physx@@QEAAXAEAV012@@Z 00000001800be600 f   GuBV4.obj
 0001:000bd690       ??4SourceMesh@Gu@physx@@QEAAXAEAV012@@Z 00000001800be690 f   GuBV4.obj
 0001:000bd6e0       ??_ESourceMesh@Gu@physx@@UEAAPEAXI@Z 00000001800be6e0 f i GuBV4.obj
 0001:000bd6e0       ??_ETetrahedronSourceMesh@Gu@physx@@UEAAPEAXI@Z 00000001800be6e0 f i GuBV4.obj
 0001:000bd6e0       ??_GSourceMesh@Gu@physx@@UEAAPEAXI@Z 00000001800be6e0 f i GuBV4.obj
 0001:000bd6e0       ??_GTetrahedronSourceMesh@Gu@physx@@UEAAPEAXI@Z 00000001800be6e0 f i GuBV4.obj
 0001:000bd780       ??_ESourceMeshBase@Gu@physx@@UEAAPEAXI@Z 00000001800be780 f i GuBV4.obj
 0001:000bd780       ??_GSourceMeshBase@Gu@physx@@UEAAPEAXI@Z 00000001800be780 f i GuBV4.obj
 0001:000bd820       ?exportExtraData@BV4Tree@Gu@physx@@QEAAXAEAVPxSerializationContext@3@@Z 00000001800be820 f   GuBV4.obj
 0001:000bd880       ?getPrimitiveBox@SourceMesh@Gu@physx@@UEAAXIAEAT__m128@@0@Z 00000001800be880 f   GuBV4.obj
 0001:000bd920       ?getPrimitiveBox@TetrahedronSourceMesh@Gu@physx@@UEAAXIAEAT__m128@@0@Z 00000001800be920 f   GuBV4.obj
 0001:000bd9e0       ?importExtraData@BV4Tree@Gu@physx@@QEAAXAEAVPxDeserializationContext@3@@Z 00000001800be9e0 f   GuBV4.obj
 0001:000bda30       ?init@BV32Tree@Gu@physx@@QEAA_NPEAVSourceMeshBase@23@AEBVPxBounds3@3@@Z 00000001800bea30 f   GuBV32.obj
 0001:000bda30       ?init@BV4Tree@Gu@physx@@QEAA_NPEAVSourceMeshBase@23@AEBVPxBounds3@3@@Z 00000001800bea30 f   GuBV4.obj
 0001:000bdad0       ?load@BV4Tree@Gu@physx@@QEAA_NAEAVPxInputStream@3@_N@Z 00000001800bead0 f   GuBV4.obj
 0001:000bdd10       ?refit@BV4Tree@Gu@physx@@QEAA_NAEAVPxBounds3@3@M@Z 00000001800bed10 f   GuBV4.obj
 0001:000be380       ?refit@SourceMesh@Gu@physx@@UEAAXIAEAVPxBounds3@3@@Z 00000001800bf380 f   GuBV4.obj
 0001:000be520       ?refit@TetrahedronSourceMesh@Gu@physx@@UEAAXIAEAVPxBounds3@3@@Z 00000001800bf520 f   GuBV4.obj
 0001:000be740       ?remapTopology@SourceMesh@Gu@physx@@UEAAXPEBI@Z 00000001800bf740 f   GuBV4.obj
 0001:000be9d0       ?remapTopology@TetrahedronSourceMesh@Gu@physx@@UEAAXPEBI@Z 00000001800bf9d0 f   GuBV4.obj
 0001:000bec50       ??0BV4_AABBTree@Gu@physx@@QEAA@XZ 00000001800bfc50 f   GuBV4Build.obj
 0001:000bec60       ??0BVData@@QEAA@XZ         00000001800bfc60 f   GuBV4Build.obj
 0001:000bec90       ??0BuildStats@Gu@physx@@QEAA@XZ 00000001800bfc90 f i GuBV4Build.obj
 0001:000beca0       ??1BV4_AABBTree@Gu@physx@@QEAA@XZ 00000001800bfca0 f   GuBV4Build.obj
 0001:000becb0       ??4BuildStats@Gu@physx@@QEAAAEAU012@$$QEAU012@@Z 00000001800bfcb0 f i GuBV4Build.obj
 0001:000becc0       ??4BuildStats@Gu@physx@@QEAAAEAU012@AEBU012@@Z 00000001800bfcc0 f i GuBV4Build.obj
 0001:000becd0       ?BuildBV4Ex@Gu@physx@@YA_NAEAVBV4Tree@12@AEAVSourceMeshBase@12@MI_NW4BV4_BuildStrategy@12@@Z 00000001800bfcd0 f   GuBV4Build.obj
 0001:000bfbc0       ?allocateNode@BV4BuildParams@@QEAAPEAUBV4Node@@XZ 00000001800c0bc0 f   GuBV4Build.obj
 0001:000c0030       ?buildFromMesh@BV4_AABBTree@Gu@physx@@QEAA_NAEAVSourceMeshBase@23@IW4BV4_BuildStrategy@23@@Z 00000001800c1030 f   GuBV4Build.obj
 0001:000c11e0       ?increaseCount@BuildStats@Gu@physx@@QEAAXI@Z 00000001800c21e0 f i GuBV4Build.obj
 0001:000c1c40       ?release@BV4_AABBTree@Gu@physx@@QEAAXXZ 00000001800c2c40 f   GuBV4Build.obj
 0001:000c1cf0       ?releaseNodes@BV4BuildParams@@QEAAXXZ 00000001800c2cf0 f   GuBV4Build.obj
 0001:000c1d60       ?reset@BuildStats@Gu@physx@@QEAAXXZ 00000001800c2d60 f i GuBV4Build.obj
 0001:000c1d70       ?setCount@BuildStats@Gu@physx@@QEAAXI@Z 00000001800c2d70 f i GuBV4Build.obj
 0001:000c23e0       ?walk@BV4_AABBTree@Gu@physx@@QEBAIP6A_NPEBVAABBTreeNode@23@IPEAX@Z1@Z 00000001800c33e0 f   GuBV4Build.obj
 0001:000c24a0       ?walkDistance@BV4_AABBTree@Gu@physx@@QEBAIP6A_NPEBVAABBTreeNode@23@IPEAX@ZP6A_N01@Z1@Z 00000001800c34a0 f   GuBV4Build.obj
 0001:000c64c0       ?GenericSweep_AABB_CB@@YAXAEBVBox@Gu@physx@@AEBV?$PxVec3T@M@3@MAEBVBV4Tree@23@P6A_NPEAX111IAEAM@Z3I@Z 00000001800c74c0 f   GuBV4_AABBSweep.obj
 0001:000c6620       ?Sweep_AABB_BV4@@YAHAEBVBox@Gu@physx@@AEBV?$PxVec3T@M@3@MAEBVBV4Tree@23@PEIAVSweepHit@23@I@Z 00000001800c7620 f   GuBV4_AABBSweep.obj
 0001:000cf360       ?BV4_OverlapBoxAll@@YAIAEBVBox@Gu@physx@@AEBVBV4Tree@23@PEIBV?$PxMat44T@M@3@PEAIIAEA_N@Z 00000001800d0360 f   GuBV4_BoxOverlap.obj
 0001:000cfb70       ?BV4_OverlapBoxAny@@YAHAEBVBox@Gu@physx@@AEBVBV4Tree@23@PEIBV?$PxMat44T@M@3@@Z 00000001800d0b70 f   GuBV4_BoxOverlap.obj
 0001:000d0370       ?BV4_OverlapBoxCB@@YAXAEBVBox@Gu@physx@@AEBVBV4Tree@23@P6A_NPEAXAEBV?$PxVec3T@M@3@333IPEBI@Z2@Z 00000001800d1370 f   GuBV4_BoxOverlap.obj
 0001:000d0a30       ?BV4_OverlapBoxCB@@YAXAEBVBox@Gu@physx@@AEBVBV4Tree@23@P6A_NPEAXAEBV?$PxVec3T@M@3@33IPEBI@Z2@Z 00000001800d1a30 f   GuBV4_BoxOverlap.obj
 0001:000d0ee0       ?BV4_OverlapCapsuleAll@@YAIAEBVCapsule@Gu@physx@@AEBVBV4Tree@23@PEIBV?$PxMat44T@M@3@PEAIIAEA_N@Z 00000001800d1ee0 f   GuBV4_BoxOverlap.obj
 0001:000d1600       ?BV4_OverlapCapsuleAny@@YAHAEBVCapsule@Gu@physx@@AEBVBV4Tree@23@PEIBV?$PxMat44T@M@3@@Z 00000001800d2600 f   GuBV4_BoxOverlap.obj
 0001:000d44b0       ?BV4_CapsuleSweepSingle@@YAHAEBVCapsule@Gu@physx@@AEBV?$PxVec3T@M@3@MAEBVBV4Tree@23@PEIAVSweepHit@23@I@Z 00000001800d54b0 f   GuBV4_CapsuleSweep.obj
 0001:000d8570       ?BV4_CapsuleSweepSingleAA@@YAHAEBVCapsule@Gu@physx@@AEBV?$PxVec3T@M@3@MAEBVBV4Tree@23@PEIAVSweepHit@23@I@Z 00000001800d9570 f   GuBV4_CapsuleSweepAA.obj
 0001:000e8440       ?BV4_OverlapMeshVsMesh@@YA_NAEAV?$PxReportCallback@UPxGeomIndexPair@physx@@@physx@@AEBVBV4Tree@Gu@2@1PEBV?$PxMat44T@M@2@2AEBV?$PxTransformT@M@2@3AEBVPxMeshScale@2@4V?$PxFlags@W4Enum@PxMeshMeshQueryFlag@physx@@I@2@@Z 00000001800e9440 f   GuBV4_MeshMeshOverlap.obj
 0001:000e8660       ?BV4_OverlapMeshVsMesh@@YA_NAEAV?$PxReportCallback@UPxGeomIndexPair@physx@@@physx@@AEBVBV4Tree@Gu@2@1PEBV?$PxMat44T@M@2@2V?$PxFlags@W4Enum@PxMeshMeshQueryFlag@physx@@I@2@@Z 00000001800e9660 f   GuBV4_MeshMeshOverlap.obj
 0001:000efbd0       ??D?$PxMat33T@M@physx@@QEBA?BV?$PxVec3T@M@1@AEBV21@@Z 00000001800f0bd0 f i GuBV4_OBBSweep.obj
 0001:000efc60       ?BV4_BoxSweepSingle@@YAHAEBVBox@Gu@physx@@AEBV?$PxVec3T@M@3@MAEBVBV4Tree@23@PEIBV?$PxMat44T@M@3@PEIAVSweepHit@23@I@Z 00000001800f0c60 f   GuBV4_OBBSweep.obj
 0001:000f0390       ?BV4_GenericSweepCB@@YAXAEBVBox@Gu@physx@@AEBV?$PxVec3T@M@3@MAEBVBV4Tree@23@P6A_NPEAX111IAEAM@Z3_N@Z 00000001800f1390 f   GuBV4_OBBSweep.obj
 0001:000f05c0       ?Sweep_OBB_BV4@@YAHAEBVBox@Gu@physx@@AEBV?$PxVec3T@M@3@MAEBVBV4Tree@23@PEIAVSweepHit@23@I@Z 00000001800f15c0 f   GuBV4_OBBSweep.obj
 0001:000f3100       ?BV4_RaycastCB@@YAXAEBV?$PxVec3T@M@physx@@0AEBVBV4Tree@Gu@2@PEIBV?$PxMat44T@M@2@MMIP6A?AW4HitCode@42@PEAX000IMMM@Z3@Z 00000001800f4100 f   GuBV4_Raycast.obj
 0001:000f3540       ?BV4_RaycastSingle@@YAHAEBV?$PxVec3T@M@physx@@0AEBVBV4Tree@Gu@2@PEIBV?$PxMat44T@M@2@PEIAUPxGeomRaycastHit@2@MMIV?$PxFlags@W4Enum@PxHitFlag@physx@@G@2@@Z 00000001800f4540 f   GuBV4_Raycast.obj
 0001:000f5a70       ?BV4_OverlapSphereAll@@YAIAEBVSphere@Gu@physx@@AEBVBV4Tree@23@PEIBV?$PxMat44T@M@3@PEAIIAEA_N@Z 00000001800f6a70 f   GuBV4_SphereOverlap.obj
 0001:000f5d90       ?BV4_OverlapSphereAny@@YAHAEBVSphere@Gu@physx@@AEBVBV4Tree@23@PEIBV?$PxMat44T@M@3@@Z 00000001800f6d90 f   GuBV4_SphereOverlap.obj
 0001:000f6070       ?BV4_PointDistance@@YAXAEBV?$PxVec3T@M@physx@@AEBVBV4Tree@Gu@2@MAEAIAEAMAEAV12@@Z 00000001800f7070 f   GuBV4_SphereOverlap.obj
 0001:000fca60       ?BV4_GenericSweepCB_Old@@YAXAEBV?$PxVec3T@M@physx@@00MAEBVBV4Tree@Gu@2@PEIBV?$PxMat44T@M@2@P6A_NPEAX000IAEAM@Z3@Z 00000001800fda60 f   GuBV4_SphereSweep.obj
 0001:000fce70       ?BV4_SphereSweepSingle@@YAHAEBVSphere@Gu@physx@@AEBV?$PxVec3T@M@3@MAEBVBV4Tree@23@PEIBV?$PxMat44T@M@3@PEIAVSweepHit@23@I@Z 00000001800fde70 f   GuBV4_SphereSweep.obj
 0001:000fe170       ?computeSweepData@physx@@YAMAEBVPxTriangleMeshGeometry@1@AEAV?$PxVec3T@M@1@11M@Z 00000001800ff170 f i GuMidphaseBV4.obj
 0001:000ff5b0       ?intersectBoxVsMesh_BV4@Gu@physx@@YA_NAEBVBox@12@AEBVTriangleMesh@12@AEBV?$PxTransformT@M@2@AEBVPxMeshScale@2@PEAULimitedResults@12@@Z 00000001801005b0 f   GuMidphaseBV4.obj
 0001:001000c0       ?intersectCapsuleVsMesh_BV4@Gu@physx@@YA_NAEBVCapsule@12@AEBVTriangleMesh@12@AEBV?$PxTransformT@M@2@AEBVPxMeshScale@2@PEAULimitedResults@12@@Z 00000001801010c0 f   GuMidphaseBV4.obj
 0001:00100900       ?intersectMeshVsMesh_BV4@Gu@physx@@YA_NAEAV?$PxReportCallback@UPxGeomIndexPair@physx@@@2@AEBVTriangleMesh@12@1AEBV?$PxTransformT@M@2@2AEBVPxMeshScale@2@3V?$PxFlags@W4Enum@PxMeshMeshQueryFlag@physx@@I@2@@Z 0000000180101900 f   GuMidphaseBV4.obj
 0001:00101200       ?intersectOBB_BV4@Gu@physx@@YAXPEBVTetrahedronMesh@12@AEBVBox@12@AEAU?$TetMeshHitCallback@UPxGeomRaycastHit@physx@@@12@@Z 0000000180102200 f   GuMidphaseBV4.obj
 0001:00101220       ?intersectOBB_BV4@Gu@physx@@YAXPEBVTriangleMesh@12@AEBVBox@12@AEAU?$MeshHitCallback@UPxGeomRaycastHit@physx@@@12@_N3@Z 0000000180102220 f   GuMidphaseBV4.obj
 0001:00101240       ?intersectSphereVsMesh_BV4@Gu@physx@@YA_NAEBVSphere@12@AEBVTriangleMesh@12@AEBV?$PxTransformT@M@2@AEBVPxMeshScale@2@PEAULimitedResults@12@@Z 0000000180102240 f   GuMidphaseBV4.obj
 0001:00101970       ?pointMeshDistance_BV4@Gu@physx@@YAXPEBVTriangleMesh@12@AEBVPxTriangleMeshGeometry@2@AEBV?$PxTransformT@M@2@AEBV?$PxVec3T@M@2@MAEAIAEAMAEAV62@@Z 0000000180102970 f   GuMidphaseBV4.obj
 0001:00102020       ?raycast_triangleMesh_BV4@Gu@physx@@YAIPEBVTriangleMesh@12@AEBVPxTriangleMeshGeometry@2@AEBV?$PxTransformT@M@2@AEBV?$PxVec3T@M@2@3MV?$PxFlags@W4Enum@PxHitFlag@physx@@G@2@IPEIAUPxGeomRaycastHit@2@I@Z 0000000180103020 f   GuMidphaseBV4.obj
 0001:00102e30       ?sweepBox_MeshGeom_BV4@Gu@physx@@YA_NPEBVTriangleMesh@12@AEBVPxTriangleMeshGeometry@2@AEBV?$PxTransformT@M@2@AEBVBox@12@AEBV?$PxVec3T@M@2@MAEAUPxGeomSweepHit@2@V?$PxFlags@W4Enum@PxHitFlag@physx@@G@2@M@Z 0000000180103e30 f   GuMidphaseBV4.obj
 0001:00104550       ?sweepCapsule_MeshGeom_BV4@Gu@physx@@YA_NPEBVTriangleMesh@12@AEBVPxTriangleMeshGeometry@2@AEBV?$PxTransformT@M@2@AEBVCapsule@12@AEBV?$PxVec3T@M@2@MAEAUPxGeomSweepHit@2@V?$PxFlags@W4Enum@PxHitFlag@physx@@G@2@M@Z 0000000180105550 f   GuMidphaseBV4.obj
 0001:00105060       ?sweepConvex_MeshGeom_BV4@Gu@physx@@YAXPEBVTriangleMesh@12@AEBVBox@12@AEBV?$PxVec3T@M@2@MAEAUSweepConvexMeshHitCallback@12@_N@Z 0000000180106060 f   GuMidphaseBV4.obj
 0001:001050a0       ?transform@PxMeshScale@physx@@QEBA?AV?$PxVec3T@M@2@AEBV32@@Z 00000001801060a0 f i GuMidphaseBV4.obj
 0001:001052e0       ?findOverlapHeightField@PxMeshQuery@physx@@SAIAEBVPxGeometry@2@AEBV?$PxTransformT@M@2@AEBVPxHeightFieldGeometry@2@1PEAIIIAEA_NV?$PxFlags@W4Enum@PxGeometryQueryFlag@physx@@I@2@@Z 00000001801062e0 f   GuMeshQuery.obj
 0001:00105a50       ?findOverlapTriangleMesh@PxMeshQuery@physx@@SAIAEBVPxGeometry@2@AEBV?$PxTransformT@M@2@AEBVPxTriangleMeshGeometry@2@1PEAIIIAEA_NV?$PxFlags@W4Enum@PxGeometryQueryFlag@physx@@I@2@@Z 0000000180106a50 f   GuMeshQuery.obj
 0001:00105d70       ?findOverlapTriangleMesh@PxMeshQuery@physx@@SA_NAEAV?$PxReportCallback@UPxGeomIndexPair@physx@@@2@AEBVPxTriangleMeshGeometry@2@AEBV?$PxTransformT@M@2@12V?$PxFlags@W4Enum@PxGeometryQueryFlag@physx@@I@2@V?$PxFlags@W4Enum@PxMeshMeshQueryFlag@physx@@I@2@@Z 0000000180106d70 f   GuMeshQuery.obj
 0001:00105e80       ?getTriangle@PxMeshQuery@physx@@SAXAEBVPxHeightFieldGeometry@2@AEBV?$PxTransformT@M@2@IAEAVPxTriangle@2@PEAI3@Z 0000000180106e80 f   GuMeshQuery.obj
 0001:00105f00       ?getTriangle@PxMeshQuery@physx@@SAXAEBVPxTriangleMeshGeometry@2@AEBV?$PxTransformT@M@2@IAEAVPxTriangle@2@PEAI3@Z 0000000180106f00 f   GuMeshQuery.obj
 0001:00106400       ?sweep@PxMeshQuery@physx@@SA_NAEBV?$PxVec3T@M@2@MAEBVPxGeometry@2@AEBV?$PxTransformT@M@2@IPEBVPxTriangle@2@AEAUPxGeomSweepHit@2@V?$PxFlags@W4Enum@PxHitFlag@physx@@G@2@PEBIM_NV?$PxFlags@W4Enum@PxGeometryQueryFlag@physx@@I@2@@Z 0000000180107400 f   GuMeshQuery.obj
 0001:00106680       ??$collide@$00$00@MeshRayCollider@@SAXAEBV?$PxVec3T@M@physx@@0M_NPEBVRTreeTriangleMesh@Gu@2@AEAU?$MeshHitCallback@UPxGeomRaycastHit@physx@@@42@PEBV12@@Z 0000000180107680 f i GuMidphaseRTree.obj
 0001:001069f0       ??$collide@$00$0A@@MeshRayCollider@@SAXAEBV?$PxVec3T@M@physx@@0M_NPEBVRTreeTriangleMesh@Gu@2@AEAU?$MeshHitCallback@UPxGeomRaycastHit@physx@@@42@PEBV12@@Z 00000001801079f0 f i GuMidphaseRTree.obj
 0001:00106c30       ??$collide@$0A@$00@MeshRayCollider@@SAXAEBV?$PxVec3T@M@physx@@0M_NPEBVRTreeTriangleMesh@Gu@2@AEAU?$MeshHitCallback@UPxGeomRaycastHit@physx@@@42@PEBV12@@Z 0000000180107c30 f i GuMidphaseRTree.obj
 0001:00108f90       ??0?$RayRTreeCallback@$00$0A@@@QEAA@MAEAU?$MeshHitCallback@UPxGeomRaycastHit@physx@@@Gu@physx@@HPEBXPEBV?$PxVec3T@M@3@AEBV43@3M_N2@Z 0000000180109f90 f i GuMidphaseRTree.obj
 0001:001090b0       ??1?$RayRTreeCallback@$00$00@@UEAA@XZ 000000018010a0b0 f i GuMidphaseRTree.obj
 0001:00109140       ??1?$RayRTreeCallback@$00$0A@@@UEAA@XZ 000000018010a140 f i GuMidphaseRTree.obj
 0001:00109140       ??1?$RayRTreeCallback@$0A@$0A@@@UEAA@XZ 000000018010a140 f i GuMidphaseRTree.obj
 0001:001091d0       ??1?$RayRTreeCallback@$0A@$00@@UEAA@XZ 000000018010a1d0 f i GuMidphaseRTree.obj
 0001:00109258       ??_E?$RayRTreeCallback@$00$00@@W7EAAPEAXI@Z 000000018010a258 f i GuMidphaseRTree.obj
 0001:00109264       ??_E?$RayRTreeCallback@$00$0A@@@W7EAAPEAXI@Z 000000018010a264 f i GuMidphaseRTree.obj
 0001:00109264       ??_E?$RayRTreeCallback@$0A@$0A@@@W7EAAPEAXI@Z 000000018010a264 f i GuMidphaseRTree.obj
 0001:00109270       ??_E?$RayRTreeCallback@$0A@$00@@W7EAAPEAXI@Z 000000018010a270 f i GuMidphaseRTree.obj
 0001:001092e0       ??_E?$RayRTreeCallback@$00$00@@UEAAPEAXI@Z 000000018010a2e0 f i GuMidphaseRTree.obj
 0001:001092e0       ??_G?$RayRTreeCallback@$00$00@@UEAAPEAXI@Z 000000018010a2e0 f i GuMidphaseRTree.obj
 0001:00109320       ??_E?$RayRTreeCallback@$00$0A@@@UEAAPEAXI@Z 000000018010a320 f i GuMidphaseRTree.obj
 0001:00109320       ??_E?$RayRTreeCallback@$0A@$0A@@@UEAAPEAXI@Z 000000018010a320 f i GuMidphaseRTree.obj
 0001:00109320       ??_G?$RayRTreeCallback@$00$0A@@@UEAAPEAXI@Z 000000018010a320 f i GuMidphaseRTree.obj
 0001:00109320       ??_G?$RayRTreeCallback@$0A@$0A@@@UEAAPEAXI@Z 000000018010a320 f i GuMidphaseRTree.obj
 0001:00109360       ??_E?$RayRTreeCallback@$0A@$00@@UEAAPEAXI@Z 000000018010a360 f i GuMidphaseRTree.obj
 0001:00109360       ??_G?$RayRTreeCallback@$0A@$00@@UEAAPEAXI@Z 000000018010a360 f i GuMidphaseRTree.obj
 0001:001093a0       ??_ECallback@RTree@Gu@physx@@UEAAPEAXI@Z 000000018010a3a0 f i GuMidphaseRTree.obj
 0001:001093a0       ??_GCallback@RTree@Gu@physx@@UEAAPEAXI@Z 000000018010a3a0 f i GuMidphaseRTree.obj
 0001:001093d0       ??_ERayMeshColliderCallback@@UEAAPEAXI@Z 000000018010a3d0 f i GuMidphaseRTree.obj
 0001:001093d0       ??_ESweepCapsuleMeshHitCallback@Gu@physx@@UEAAPEAXI@Z 000000018010a3d0 f i GuSweepsMesh.obj
 0001:001093d0       ??_GRayMeshColliderCallback@@UEAAPEAXI@Z 000000018010a3d0 f i GuMidphaseRTree.obj
 0001:001093d0       ??_GSweepCapsuleMeshHitCallback@Gu@physx@@UEAAPEAXI@Z 000000018010a3d0 f i GuSweepsMesh.obj
 0001:00109400       ?collideOBB@MeshRayCollider@@SAXAEBVBox@Gu@physx@@_NPEBVRTreeTriangleMesh@34@AEAU?$MeshHitCallback@UPxGeomRaycastHit@physx@@@34@1@Z 000000018010a400 f   GuMidphaseRTree.obj
 0001:001098d0       ?intersectBoxVsMesh_RTREE@Gu@physx@@YA_NAEBVBox@12@AEBVTriangleMesh@12@AEBV?$PxTransformT@M@2@AEBVPxMeshScale@2@PEAULimitedResults@12@@Z 000000018010a8d0 f   GuMidphaseRTree.obj
 0001:00109940       ?intersectCapsuleVsMesh_RTREE@Gu@physx@@YA_NAEBVCapsule@12@AEBVTriangleMesh@12@AEBV?$PxTransformT@M@2@AEBVPxMeshScale@2@PEAULimitedResults@12@@Z 000000018010a940 f   GuMidphaseRTree.obj
 0001:001099c0       ?intersectOBB_RTREE@Gu@physx@@YAXPEBVTriangleMesh@12@AEBVBox@12@AEAU?$MeshHitCallback@UPxGeomRaycastHit@physx@@@12@_N3@Z 000000018010a9c0 f   GuMidphaseRTree.obj
 0001:001099f0       ?intersectSphereVsMesh_RTREE@Gu@physx@@YA_NAEBVSphere@12@AEBVTriangleMesh@12@AEBV?$PxTransformT@M@2@AEBVPxMeshScale@2@PEAULimitedResults@12@@Z 000000018010a9f0 f   GuMidphaseRTree.obj
 0001:00109a20       ?pointMeshDistance_RTREE@Gu@physx@@YAXPEBVTriangleMesh@12@AEBVPxTriangleMeshGeometry@2@AEBV?$PxTransformT@M@2@AEBV?$PxVec3T@M@2@MAEAIAEAMAEAV62@@Z 000000018010aa20 f   GuMidphaseRTree.obj
 0001:0010a810       ?processHit@RayMeshColliderCallback@@UEAA_NAEBUPxGeomRaycastHit@physx@@AEBV?$PxVec3T@M@3@11AEAMPEBI@Z 000000018010b810 f i GuMidphaseRTree.obj
 0001:0010afb0       ?processResults@?$RayRTreeCallback@$00$00@@UEAA_NIPEAI@Z 000000018010bfb0 f i GuMidphaseRTree.obj
 0001:0010b320       ?processResults@?$RayRTreeCallback@$00$00@@UEAA_NIPEAIAEAM@Z 000000018010c320 f i GuMidphaseRTree.obj
 0001:0010b6a0       ?processResults@?$RayRTreeCallback@$00$0A@@@UEAA_NIPEAI@Z 000000018010c6a0 f i GuMidphaseRTree.obj
 0001:0010b6a0       ?processResults@?$RayRTreeCallback@$0A@$0A@@@UEAA_NIPEAI@Z 000000018010c6a0 f i GuMidphaseRTree.obj
 0001:0010b900       ?processResults@?$RayRTreeCallback@$00$0A@@@UEAA_NIPEAIAEAM@Z 000000018010c900 f i GuMidphaseRTree.obj
 0001:0010b900       ?processResults@?$RayRTreeCallback@$0A@$0A@@@UEAA_NIPEAIAEAM@Z 000000018010c900 f i GuMidphaseRTree.obj
 0001:0010bb90       ?processResults@?$RayRTreeCallback@$0A@$00@@UEAA_NIPEAI@Z 000000018010cb90 f i GuMidphaseRTree.obj
 0001:0010c1d0       ?processResults@?$RayRTreeCallback@$0A@$00@@UEAA_NIPEAIAEAM@Z 000000018010d1d0 f i GuMidphaseRTree.obj
 0001:0010c820       ?raycast_triangleMesh_RTREE@Gu@physx@@YAIPEBVTriangleMesh@12@AEBVPxTriangleMeshGeometry@2@AEBV?$PxTransformT@M@2@AEBV?$PxVec3T@M@2@3MV?$PxFlags@W4Enum@PxHitFlag@physx@@G@2@IPEIAUPxGeomRaycastHit@2@I@Z 000000018010d820 f   GuMidphaseRTree.obj
 0001:0010cfa0       ?sweepBox_MeshGeom_RTREE@Gu@physx@@YA_NPEBVTriangleMesh@12@AEBVPxTriangleMeshGeometry@2@AEBV?$PxTransformT@M@2@AEBVBox@12@AEBV?$PxVec3T@M@2@MAEAUPxGeomSweepHit@2@V?$PxFlags@W4Enum@PxHitFlag@physx@@G@2@M@Z 000000018010dfa0 f   GuMidphaseRTree.obj
 0001:0010e4e0       ?sweepCapsule_MeshGeom_RTREE@Gu@physx@@YA_NPEBVTriangleMesh@12@AEBVPxTriangleMeshGeometry@2@AEBV?$PxTransformT@M@2@AEBVCapsule@12@AEBV?$PxVec3T@M@2@MAEAUPxGeomSweepHit@2@V?$PxFlags@W4Enum@PxHitFlag@physx@@G@2@M@Z 000000018010f4e0 f   GuMidphaseRTree.obj
 0001:0010ec90       ?sweepConvex_MeshGeom_RTREE@Gu@physx@@YAXPEBVTriangleMesh@12@AEBVBox@12@AEBV?$PxVec3T@M@2@MAEAUSweepConvexMeshHitCallback@12@_N@Z 000000018010fc90 f   GuMidphaseRTree.obj
 0001:0010f640       ??_E?$PxReportCallback@UPxGeomIndexPair@physx@@@physx@@UEAAPEAXI@Z 0000000180110640 f i GuOverlapTestsMesh.obj
 0001:0010f640       ??_G?$PxReportCallback@UPxGeomIndexPair@physx@@@physx@@UEAAPEAXI@Z 0000000180110640 f i GuOverlapTestsMesh.obj
 0001:0010f6d0       ?GeomOverlapCallback_BoxMesh@@YA_NAEBVPxGeometry@physx@@AEBV?$PxTransformT@M@2@01PEAUTriggerCache@Gu@2@PEAUPxQueryThreadContext@2@@Z 00000001801106d0 f   GuOverlapTestsMesh.obj
 0001:0010f7e0       ?GeomOverlapCallback_CapsuleMesh@@YA_NAEBVPxGeometry@physx@@AEBV?$PxTransformT@M@2@01PEAUTriggerCache@Gu@2@PEAUPxQueryThreadContext@2@@Z 00000001801107e0 f   GuOverlapTestsMesh.obj
 0001:0010f8f0       ?GeomOverlapCallback_ConvexMesh@@YA_NAEBVPxGeometry@physx@@AEBV?$PxTransformT@M@2@01PEAUTriggerCache@Gu@2@PEAUPxQueryThreadContext@2@@Z 00000001801108f0 f   GuOverlapTestsMesh.obj
 0001:0010fdf0       ?GeomOverlapCallback_MeshMesh@@YA_NAEBVPxGeometry@physx@@AEBV?$PxTransformT@M@2@01PEAUTriggerCache@Gu@2@PEAUPxQueryThreadContext@2@@Z 0000000180110df0 f   GuOverlapTestsMesh.obj
 0001:0010feb0       ?GeomOverlapCallback_SphereMesh@@YA_NAEBVPxGeometry@physx@@AEBV?$PxTransformT@M@2@01PEAUTriggerCache@Gu@2@PEAUPxQueryThreadContext@2@@Z 0000000180110eb0 f   GuOverlapTestsMesh.obj
 0001:001102a0       ??0RTree@Gu@physx@@QEAA@W4PxEMPTY@2@@Z 00000001801112a0 f   GuRTree.obj
 0001:001102b0       ?exportExtraData@RTree@Gu@physx@@QEAAXAEAVPxSerializationContext@3@@Z 00000001801112b0 f   GuRTree.obj
 0001:001102f0       ?importExtraData@RTree@Gu@physx@@QEAAXAEAVPxDeserializationContext@3@@Z 00000001801112f0 f   GuRTree.obj
 0001:00110320       ?load@RTree@Gu@physx@@QEAA_NAEAVPxInputStream@3@I_N@Z 0000000180111320 f   GuRTree.obj
 0001:00110620       ?refitAllStaticTree@RTree@Gu@physx@@QEAAXAEAUCallbackRefit@123@PEAVPxBounds3@3@@Z 0000000180111620 f   GuRTree.obj
 0001:00110b70       ?validate@RTree@Gu@physx@@QEAAXPEAUCallbackRefit@123@@Z 0000000180111b70 f   GuRTree.obj
 0001:00110db0       ?validateRecursive@RTree@Gu@physx@@IEAAXIURTreeNodeQ@23@PEAURTreePage@23@PEAUCallbackRefit@123@@Z 0000000180111db0 f   GuRTree.obj
 0001:00110f70       ??$traverseRay@$00@RTree@Gu@physx@@QEBAXAEBV?$PxVec3T@M@2@0IPEAIPEAUCallbackRaycast@012@PEBV32@M@Z 0000000180111f70 f i GuRTreeQueries.obj
 0001:00111310       ??$traverseRay@$0A@@RTree@Gu@physx@@QEBAXAEBV?$PxVec3T@M@2@0IPEAIPEAUCallbackRaycast@012@PEBV32@M@Z 0000000180112310 f i GuRTreeQueries.obj
 0001:00111660       ?traverseAABB@RTree@Gu@physx@@QEBAXAEBV?$PxVec3T@M@3@0IPEAIPEAUCallback@123@@Z 0000000180112660 f   GuRTreeQueries.obj
 0001:00111820       ?traverseOBB@RTree@Gu@physx@@QEBAXAEBVBox@23@IPEAIPEAUCallback@123@@Z 0000000180112820 f   GuRTreeQueries.obj
 0001:00112100       ??0SweepBoxMeshHitCallback@Gu@physx@@QEAA@W4Enum@CallbackMode@12@AEBVPxMat34Padded@2@M_NAEBVBox@12@AEBV?$PxVec3T@M@2@44AEBV?$PxFlags@W4Enum@PxHitFlag@physx@@G@2@M2M@Z 0000000180113100 f   GuSweepsMesh.obj
 0001:00112210       ??0SweepCapsuleMeshHitCallback@Gu@physx@@QEAA@AEAUPxGeomSweepHit@2@AEBV?$PxMat34T@M@2@M_NAEBVCapsule@12@AEBV?$PxVec3T@M@2@AEBV?$PxFlags@W4Enum@PxHitFlag@physx@@G@2@2M@Z 0000000180113210 f   GuSweepsMesh.obj
 0001:001122e0       ??0SweepConvexMeshHitCallback@Gu@physx@@QEAA@AEBUConvexHullData@12@AEBVPxMeshScale@2@AEBVFastVertex2ShapeScaling@Cm@2@AEBV?$PxTransformT@M@2@3AEBV?$PxVec3T@M@2@MV?$PxFlags@W4Enum@PxHitFlag@physx@@G@2@_NM6M@Z 00000001801132e0 f   GuSweepsMesh.obj
 0001:00112c40       ??_ESweepBoxMeshHitCallback@Gu@physx@@UEAAPEAXI@Z 0000000180113c40 f i GuSweepsMesh.obj
 0001:00112c40       ??_GSweepBoxMeshHitCallback@Gu@physx@@UEAAPEAXI@Z 0000000180113c40 f i GuSweepsMesh.obj
 0001:00112c70       ??_ESweepConvexMeshHitCallback@Gu@physx@@UEAAPEAXI@Z 0000000180113c70 f i GuSweepsMesh.obj
 0001:00112c70       ??_GSweepConvexMeshHitCallback@Gu@physx@@UEAAPEAXI@Z 0000000180113c70 f i GuSweepsMesh.obj
 0001:00112ca0       ??_ESweepShapeMeshHitCallback@Gu@physx@@UEAAPEAXI@Z 0000000180113ca0 f i GuSweepsMesh.obj
 0001:00112ca0       ??_GSweepShapeMeshHitCallback@Gu@physx@@UEAAPEAXI@Z 0000000180113ca0 f i GuSweepsMesh.obj
 0001:00112cd0       ?finalizeHit@SweepBoxMeshHitCallback@Gu@physx@@QEBA_NAEAUPxGeomSweepHit@3@AEBVPxTriangleMeshGeometry@3@AEBV?$PxTransformT@M@3@2AEBV?$PxVec3T@M@3@_N4@Z 0000000180113cd0 f   GuSweepsMesh.obj
 0001:00113390       ?finalizeHit@SweepCapsuleMeshHitCallback@Gu@physx@@QEBA_NAEAUPxGeomSweepHit@3@AEBVCapsule@23@AEBVPxTriangleMeshGeometry@3@AEBV?$PxTransformT@M@3@_N@Z 0000000180114390 f   GuSweepsMesh.obj
 0001:00113540       ?finalizeHit@SweepConvexMeshHitCallback@Gu@physx@@QEAA_NAEAUPxGeomSweepHit@3@AEBVPxTriangleMeshGeometry@3@AEBV?$PxTransformT@M@3@AEBVPxConvexMeshGeometry@3@2AEBV?$PxVec3T@M@3@M_N555@Z 0000000180114540 f   GuSweepsMesh.obj
 0001:00113a10       ?processHit@SweepBoxMeshHitCallback@Gu@physx@@UEAA_NAEBUPxGeomRaycastHit@3@AEBV?$PxVec3T@M@3@11AEAMPEBI@Z 0000000180114a10 f   GuSweepsMesh.obj
 0001:00114200       ?processHit@SweepCapsuleMeshHitCallback@Gu@physx@@UEAA_NAEBUPxGeomRaycastHit@3@AEBV?$PxVec3T@M@3@11AEAMPEBI@Z 0000000180115200 f   GuSweepsMesh.obj
 0001:00114760       ?processHit@SweepConvexMeshHitCallback@Gu@physx@@UEAA_NAEBUPxGeomRaycastHit@3@AEBV?$PxVec3T@M@3@11AEAMPEBI@Z 0000000180115760 f   GuSweepsMesh.obj
 0001:00114eb0       ?sweepBox_MeshGeom@@YA_NAEBVPxGeometry@physx@@AEBV?$PxTransformT@M@2@AEBVPxBoxGeometry@2@1AEBVBox@Gu@2@AEBV?$PxVec3T@M@2@MAEAUPxGeomSweepHit@2@V?$PxFlags@W4Enum@PxHitFlag@physx@@G@2@MPEAUPxQueryThreadContext@2@@Z 0000000180115eb0 f   GuSweepsMesh.obj
 0001:00114f40       ?sweepCapsule_MeshGeom@@YA_NAEBVPxGeometry@physx@@AEBV?$PxTransformT@M@2@AEBVPxCapsuleGeometry@2@1AEBVCapsule@Gu@2@AEBV?$PxVec3T@M@2@MAEAUPxGeomSweepHit@2@V?$PxFlags@W4Enum@PxHitFlag@physx@@G@2@MPEAUPxQueryThreadContext@2@@Z 0000000180115f40 f   GuSweepsMesh.obj
 0001:00114fd0       ?sweepConvex_MeshGeom@@YA_NAEBVPxGeometry@physx@@AEBV?$PxTransformT@M@2@AEBVPxConvexMeshGeometry@2@1AEBV?$PxVec3T@M@2@MAEAUPxGeomSweepHit@2@V?$PxFlags@W4Enum@PxHitFlag@physx@@G@2@MPEAUPxQueryThreadContext@2@@Z 0000000180115fd0 f   GuSweepsMesh.obj
 0001:00115b10       ??0TriangleMesh@Gu@physx@@QEAA@AEBUPxTriangleMeshInternalData@2@@Z 0000000180116b10 f   GuTriangleMesh.obj
 0001:00115bf0       ??0TriangleMesh@Gu@physx@@QEAA@PEAVMeshFactory@12@AEAVTriangleMeshData@12@@Z 0000000180116bf0 f   GuTriangleMesh.obj
 0001:00115f70       ??1TriangleMesh@Gu@physx@@UEAA@XZ 0000000180116f70 f   GuTriangleMesh.obj
 0001:001161e0       ??_ETriangleMesh@Gu@physx@@UEAAPEAXI@Z 00000001801171e0 f i GuTriangleMesh.obj
 0001:001161e0       ??_GTriangleMesh@Gu@physx@@UEAAPEAXI@Z 00000001801171e0 f i GuTriangleMesh.obj
 0001:00116250       ?exportExtraData@TriangleMesh@Gu@physx@@UEAAXAEAVPxSerializationContext@3@@Z 0000000180117250 f   GuTriangleMesh.obj
 0001:00116420       ?getLocalBounds@TriangleMesh@Gu@physx@@UEBA?AVPxBounds3@3@XZ 0000000180117420 f i GuTriangleMesh.obj
 0001:001164b0       ?getMassInformation@TriangleMesh@Gu@physx@@UEBAXAEAMAEAV?$PxMat33T@M@3@AEAV?$PxVec3T@M@3@@Z 00000001801174b0 f i GuTriangleMesh.obj
 0001:00116530       ?getNbTriangles@TriangleMesh@Gu@physx@@UEBAIXZ 0000000180117530 f i GuTriangleMesh.obj
 0001:00116540       ?getPreferSDFProjection@TriangleMesh@Gu@physx@@UEBA_NXZ 0000000180117540 f i GuTriangleMesh.obj
 0001:00116550       ?getSDF@TriangleMesh@Gu@physx@@UEBAPEBMXZ 0000000180117550 f i GuTriangleMesh.obj
 0001:00116560       ?getSDFDimensions@TriangleMesh@Gu@physx@@UEBAXAEAI00@Z 0000000180117560 f i GuTriangleMesh.obj
 0001:00116590       ?getTriangleMaterialIndex@TriangleMesh@Gu@physx@@UEBAGI@Z 0000000180117590 f i GuTriangleMesh.obj
 0001:001165b0       ?getTriangleMeshFlags@TriangleMesh@Gu@physx@@UEBA?AV?$PxFlags@W4Enum@PxTriangleMeshFlag@physx@@E@3@XZ 00000001801175b0 f i GuTriangleMesh.obj
 0001:001165c0       ?getTrianglesRemap@TriangleMesh@Gu@physx@@UEBAPEBIXZ 00000001801175c0 f i GuTriangleMesh.obj
 0001:001165d0       ?getVerticesForModification@TriangleMesh@Gu@physx@@UEAAPEAV?$PxVec3T@M@3@XZ 00000001801175d0 f   GuTriangleMesh.obj
 0001:00116610       ?importExtraData@TriangleMesh@Gu@physx@@QEAAXAEAVPxDeserializationContext@3@@Z 0000000180117610 f   GuTriangleMesh.obj
 0001:001167a0       ?isKindOf@PxTriangleMesh@physx@@MEBA_NPEBD@Z 00000001801177a0 f i GuTriangleMesh.obj
 0001:00116810       ?onRefCountZero@TriangleMesh@Gu@physx@@UEAAXXZ 0000000180117810 f   GuTriangleMesh.obj
 0001:001168e0       ?refitBVH@TriangleMesh@Gu@physx@@UEAA?AVPxBounds3@3@XZ 00000001801178e0 f   GuTriangleMesh.obj
 0001:001169b0       ?requestEdgeList@TriangleMesh@Gu@physx@@QEBAPEBVEdgeList@23@XZ 00000001801179b0 f   GuTriangleMesh.obj
 0001:00116a90       ?setAllEdgesActive@TriangleMesh@Gu@physx@@QEAAXXZ 0000000180117a90 f   GuTriangleMesh.obj
 0001:00116b80       ?setPreferSDFProjection@TriangleMesh@Gu@physx@@UEAAX_N@Z 0000000180117b80 f i GuTriangleMesh.obj
 0001:00116bb0       ??0BV4TriangleMesh@Gu@physx@@QEAA@AEBUPxTriangleMeshInternalData@2@@Z 0000000180117bb0 f   GuTriangleMeshBV4.obj
 0001:00116d10       ??0BV4TriangleMesh@Gu@physx@@QEAA@PEAVMeshFactory@12@AEAVTriangleMeshData@12@@Z 0000000180117d10 f   GuTriangleMeshBV4.obj
 0001:00116da0       ??_EBV4TriangleMesh@Gu@physx@@UEAAPEAXI@Z 0000000180117da0 f i GuTriangleMeshBV4.obj
 0001:00116da0       ??_GBV4TriangleMesh@Gu@physx@@UEAAPEAXI@Z 0000000180117da0 f i GuTriangleMeshBV4.obj
 0001:00116e30       ?createObject@BV4TriangleMesh@Gu@physx@@SAPEAVTriangleMesh@23@AEAPEAEAEAVPxDeserializationContext@3@@Z 0000000180117e30 f   GuTriangleMeshBV4.obj
 0001:00116f10       ?exportExtraData@BV4TriangleMesh@Gu@physx@@UEAAXAEAVPxSerializationContext@3@@Z 0000000180117f10 f   GuTriangleMeshBV4.obj
 0001:00116f50       ?getConcreteTypeName@BV4TriangleMesh@Gu@physx@@UEBAPEBDXZ 0000000180117f50 f i GuTriangleMeshBV4.obj
 0001:00116f60       ?getInternalData@BV4TriangleMesh@Gu@physx@@UEBA_NAEAUPxTriangleMeshInternalData@3@_N@Z 0000000180117f60 f   GuTriangleMeshBV4.obj
 0001:00117050       ?getMidphaseID@BV4TriangleMesh@Gu@physx@@UEBA?AW4Enum@PxMeshMidPhase@3@XZ 0000000180118050 f i GuTriangleMeshBV4.obj
 0001:00117050       ?getMidphaseID@BV4TriangleMeshBuilder@physx@@UEBA?AW4Enum@PxMeshMidPhase@2@XZ 0000000180118050 f i GuCookingTriangleMesh.obj
 0001:00117050       ?length@charNode@@UEBAHXZ  0000000180118050 f i libvcruntime:undname.obj
 0001:00117050       ?raw_length@charNode@@UEBAHXZ 0000000180118050 f i libvcruntime:undname.obj
 0001:00117050       DllMain                    0000000180118050 f i LIBCMT:dll_dllmain_stub.obj
 0001:00117050       _get_startup_argv_mode     0000000180118050 f i LIBCMT:argv_mode.obj
 0001:00117060       ?getVerticesForModification@BV4TriangleMesh@Gu@physx@@UEAAPEAV?$PxVec3T@M@3@XZ 0000000180118060 f   GuTriangleMeshBV4.obj
 0001:00117060       ?getVerticesForModification@RTreeTriangleMesh@Gu@physx@@UEAAPEAV?$PxVec3T@M@3@XZ 0000000180118060 f   GuTriangleMeshRTree.obj
 0001:00117070       ?refitBVH@BV4TriangleMesh@Gu@physx@@UEAA?AVPxBounds3@3@XZ 0000000180118070 f   GuTriangleMeshBV4.obj
 0001:001171e0       PxGetTriangleMeshInternalData 00000001801181e0 f   GuTriangleMeshBV4.obj
 0001:00117200       ??0RTreeTriangleMesh@Gu@physx@@QEAA@PEAVMeshFactory@12@AEAVTriangleMeshData@12@@Z 0000000180118200 f   GuTriangleMeshRTree.obj
 0001:00117370       ??_E?$RefitCallback@G@physx@@UEAAPEAXI@Z 0000000180118370 f i GuTriangleMeshRTree.obj
 0001:00117370       ??_E?$RefitCallback@I@physx@@UEAAPEAXI@Z 0000000180118370 f i GuTriangleMeshRTree.obj
 0001:00117370       ??_G?$RefitCallback@G@physx@@UEAAPEAXI@Z 0000000180118370 f i GuTriangleMeshRTree.obj
 0001:00117370       ??_G?$RefitCallback@I@physx@@UEAAPEAXI@Z 0000000180118370 f i GuTriangleMeshRTree.obj
 0001:001173a0       ??_ERTreeTriangleMesh@Gu@physx@@UEAAPEAXI@Z 00000001801183a0 f i GuTriangleMeshRTree.obj
 0001:001173a0       ??_GRTreeTriangleMesh@Gu@physx@@UEAAPEAXI@Z 00000001801183a0 f i GuTriangleMeshRTree.obj
 0001:00117450       ?createObject@RTreeTriangleMesh@Gu@physx@@SAPEAVTriangleMesh@23@AEAPEAEAEAVPxDeserializationContext@3@@Z 0000000180118450 f   GuTriangleMeshRTree.obj
 0001:001174e0       ?exportExtraData@RTreeTriangleMesh@Gu@physx@@UEAAXAEAVPxSerializationContext@3@@Z 00000001801184e0 f   GuTriangleMeshRTree.obj
 0001:00117520       ?getConcreteTypeName@RTreeTriangleMesh@Gu@physx@@UEBAPEBDXZ 0000000180118520 f i GuTriangleMeshRTree.obj
 0001:00117530       ?recomputeBounds@?$RefitCallback@G@physx@@UEAAXIAEAT__m128@@0@Z 0000000180118530 f i GuTriangleMeshRTree.obj
 0001:00117860       ?recomputeBounds@?$RefitCallback@I@physx@@UEAAXIAEAT__m128@@0@Z 0000000180118860 f i GuTriangleMeshRTree.obj
 0001:00117b80       ?refitBVH@RTreeTriangleMesh@Gu@physx@@UEAA?AVPxBounds3@3@XZ 0000000180118b80 f   GuTriangleMeshRTree.obj
 0001:00117ca0       ??0BV32Tree@Gu@physx@@QEAA@XZ 0000000180118ca0 f   GuBV32.obj
 0001:00117cd0       ??1BV32Tree@Gu@physx@@QEAA@XZ 0000000180118cd0 f   GuBV32.obj
 0001:00117ce0       ?calculateLeafNode@BV32Tree@Gu@physx@@QEAAXAEAUBV32Data@23@@Z 0000000180118ce0 f   GuBV32.obj
 0001:00117f00       ?createSOAformatNode@BV32Tree@Gu@physx@@QEAAXAEAUBV32DataPacked@23@AEBUBV32Data@23@IAEAI2@Z 0000000180118f00 f   GuBV32.obj
 0001:00118360       ?load@BV32Tree@Gu@physx@@QEAA_NAEAVPxInputStream@3@_N@Z 0000000180119360 f   GuBV32.obj
 0001:001186a0       ?release@BV32Tree@Gu@physx@@QEAAXXZ 00000001801196a0 f   GuBV32.obj
 0001:00118760       ??0BV32Node@@QEAA@XZ       0000000180119760 f i GuBV32Build.obj
 0001:00118be0       ?BuildBV32Ex@Gu@physx@@YA_NAEAVBV32Tree@12@AEAVSourceMeshBase@12@MI@Z 0000000180119be0 f   GuBV32Build.obj
 0001:00119b70       ??0BVTetrahedronMesh@Gu@physx@@QEAA@AEAVTetrahedronMeshData@12@AEAVSoftBodyCollisionData@12@PEAVMeshFactory@12@@Z 000000018011ab70 f   GuTetrahedronMesh.obj
 0001:00119dd0       ??0SoftBodyMesh@Gu@physx@@QEAA@PEAVMeshFactory@12@AEAVSoftBodyMeshData@12@@Z 000000018011add0 f   GuTetrahedronMesh.obj
 0001:0011a170       ??0TetrahedronMesh@Gu@physx@@QEAA@PEAVMeshFactory@12@AEAVTetrahedronMeshData@12@@Z 000000018011b170 f   GuTetrahedronMesh.obj
 0001:0011a260       ??1SoftBodyAuxData@Gu@physx@@UEAA@XZ 000000018011b260 f   GuTetrahedronMesh.obj
 0001:0011a4e0       ??1TetrahedronMesh@Gu@physx@@UEAA@XZ 000000018011b4e0 f   GuTetrahedronMesh.obj
 0001:0011a580       ??_EBVTetrahedronMesh@Gu@physx@@UEAAPEAXI@Z 000000018011b580 f i GuTetrahedronMesh.obj
 0001:0011a580       ??_GBVTetrahedronMesh@Gu@physx@@UEAAPEAXI@Z 000000018011b580 f i GuTetrahedronMesh.obj
 0001:0011a700       ??_ESoftBodyAuxData@Gu@physx@@UEAAPEAXI@Z 000000018011b700 f i GuTetrahedronMesh.obj
 0001:0011a700       ??_GSoftBodyAuxData@Gu@physx@@UEAAPEAXI@Z 000000018011b700 f i GuTetrahedronMesh.obj
 0001:0011a770       ??_ESoftBodyMesh@Gu@physx@@UEAAPEAXI@Z 000000018011b770 f i GuTetrahedronMesh.obj
 0001:0011a770       ??_GSoftBodyMesh@Gu@physx@@UEAAPEAXI@Z 000000018011b770 f i GuTetrahedronMesh.obj
 0001:0011a840       ??_ETetrahedronMesh@Gu@physx@@UEAAPEAXI@Z 000000018011b840 f i GuTetrahedronMesh.obj
 0001:0011a840       ??_GTetrahedronMesh@Gu@physx@@UEAAPEAXI@Z 000000018011b840 f i GuTetrahedronMesh.obj
 0001:0011a8b0       ?exportExtraData@SoftBodyMesh@Gu@physx@@UEAAXAEAVPxSerializationContext@3@@Z 000000018011b8b0 f   GuTetrahedronMesh.obj
 0001:0011a9a0       ?getConcreteTypeName@SoftBodyAuxData@Gu@physx@@UEBAPEBDXZ 000000018011b9a0 f i GuTetrahedronMesh.obj
 0001:0011a9b0       ?getConcreteTypeName@SoftBodyMesh@Gu@physx@@UEBAPEBDXZ 000000018011b9b0 f i GuTetrahedronMesh.obj
 0001:0011a9c0       ?getConcreteTypeName@TetrahedronMesh@Gu@physx@@UEBAPEBDXZ 000000018011b9c0 f i GuTetrahedronMesh.obj
 0001:0011a9d0       ?getLocalBounds@TetrahedronMesh@Gu@physx@@UEBA?AVPxBounds3@3@XZ 000000018011b9d0 f i GuTetrahedronMesh.obj
 0001:0011aa60       ?getNbTetrahedrons@TetrahedronMesh@Gu@physx@@UEBAIXZ 000000018011ba60 f i GuTetrahedronMesh.obj
 0001:0011aa70       ?getBounds@BVH@Gu@physx@@UEBAPEBVPxBounds3@3@XZ 000000018011ba70 f i GuBVH.obj
 0001:0011aa70       ?getTetrahedraRemap@BVTetrahedronMesh@Gu@physx@@UEBAPEBIXZ 000000018011ba70 f i GuTetrahedronMesh.obj
 0001:0011aa80       ?getTetrahedronMeshFlags@TetrahedronMesh@Gu@physx@@UEBA?AV?$PxFlags@W4Enum@PxTetrahedronMeshFlag@physx@@E@3@XZ 000000018011ba80 f i GuTetrahedronMesh.obj
 0001:0011aa90       ?getTetrahedrons@TetrahedronMesh@Gu@physx@@UEBAPEBXXZ 000000018011ba90 f i GuTetrahedronMesh.obj
 0001:0011aaa0       ?isKindOf@PxSoftBodyAuxData@physx@@MEBA_NPEBD@Z 000000018011baa0 f i GuTetrahedronMesh.obj
 0001:0011ab10       ?isKindOf@PxSoftBodyMesh@physx@@MEBA_NPEBD@Z 000000018011bb10 f i GuTetrahedronMesh.obj
 0001:0011ab80       ?isKindOf@PxTetrahedronMesh@physx@@MEBA_NPEBD@Z 000000018011bb80 f i GuTetrahedronMesh.obj
 0001:0011abf0       ?onRefCountZero@SoftBodyAuxData@Gu@physx@@UEAAXXZ 000000018011bbf0 f i GuTetrahedronMesh.obj
 0001:0011abf0       ?release@SimulationTetrahedronMeshData@Gu@physx@@UEAAXXZ 000000018011bbf0 f i GuCookingTetrahedronMesh.obj
 0001:0011ac10       ?onRefCountZero@SoftBodyMesh@Gu@physx@@UEAAXXZ 000000018011bc10 f   GuTetrahedronMesh.obj
 0001:0011acb0       ?onRefCountZero@TetrahedronMesh@Gu@physx@@UEAAXXZ 000000018011bcb0 f   GuTetrahedronMesh.obj
 0001:0011ad50       ?closestPtPointTetrahedron@Gu@physx@@YA?AV?$PxVec3T@M@2@AEBV32@0000@Z 000000018011bd50 f i GuTetrahedronMeshUtils.obj
 0001:0011be90       ?computeBarycentric@physx@@YAXAEBV?$PxVec3T@M@1@0000AEAV?$PxVec4T@M@1@@Z 000000018011ce90 f i GuTetrahedronMeshUtils.obj
 0001:0011c140       ?convertSoftbodyCollisionToSimMeshTets@Gu@physx@@YAXAEBVPxTetrahedronMesh@2@AEBVSoftBodyAuxData@12@AEBVBVTetrahedronMesh@12@IAEBV?$PxVec4T@M@2@AEAIAEAV62@@Z 000000018011d140 f   GuTetrahedronMeshUtils.obj
 0001:0011ed20       ?pcmContactBoxBox@Gu@physx@@YA_NAEBVPxGeometry@2@0AEBUPxTransformPadded@2@1AEBUNarrowPhaseParams@12@AEAUCache@12@AEAVPxContactBuffer@2@PEAVPxRenderOutput@2@@Z 000000018011fd20 f   GuPCMContactBoxBox.obj
 0001:0011fbc0       ??$gjkPenetration@U?$RelativeConvex@VBoxV@Gu@physx@@@Gu@physx@@U?$LocalConvex@VConvexHullNoScaleV@Gu@physx@@@23@@Gu@physx@@YA?AW4GjkStatus@01@AEBU?$RelativeConvex@VBoxV@Gu@physx@@@01@AEBU?$LocalConvex@VConvexHullNoScaleV@Gu@physx@@@01@AEBT__m128@@2_NPEIAE4AEAEAEAUGjkOutput@01@@Z 0000000180120bc0 f i GuPCMContactBoxConvex.obj
 0001:0011fc30       ??$gjkPenetration@U?$RelativeConvex@VBoxV@Gu@physx@@@Gu@physx@@U?$LocalConvex@VConvexHullNoScaleV@Gu@physx@@@23@@Gu@physx@@YA?AW4GjkStatus@01@AEBU?$RelativeConvex@VBoxV@Gu@physx@@@01@AEBU?$LocalConvex@VConvexHullNoScaleV@Gu@physx@@@01@AEBT__m128@@2_NPEIAE4PEIAT5@5AEAEAEAUGjkOutput@01@@Z 0000000180120c30 f i GuPCMContactBoxConvex.obj
 0001:00121810       ?pcmContactBoxConvex@Gu@physx@@YA_NAEBVPxGeometry@2@0AEBUPxTransformPadded@2@1AEBUNarrowPhaseParams@12@AEAUCache@12@AEAVPxContactBuffer@2@PEAVPxRenderOutput@2@@Z 0000000180122810 f   GuPCMContactBoxConvex.obj
 0001:00122610       ?support@?$LocalConvex@VConvexHullNoScaleV@Gu@physx@@@Gu@physx@@UEBA?AT__m128@@AEBT4@@Z 0000000180123610 f i GuPCMContactBoxConvex.obj
 0001:00122660       ?support@?$LocalConvex@VConvexHullNoScaleV@Gu@physx@@@Gu@physx@@UEBA?AT__m128@@AEBT4@AEAH@Z 0000000180123660 f i GuPCMContactBoxConvex.obj
 0001:001226c0       ?supportPoint@?$LocalConvex@VConvexHullNoScaleV@Gu@physx@@@Gu@physx@@UEBA?AT__m128@@H@Z 00000001801236c0 f i GuPCMContactBoxConvex.obj
 0001:001226f0       ?pcmContactCapsuleBox@Gu@physx@@YA_NAEBVPxGeometry@2@0AEBUPxTransformPadded@2@1AEBUNarrowPhaseParams@12@AEAUCache@12@AEAVPxContactBuffer@2@PEAVPxRenderOutput@2@@Z 00000001801236f0 f   GuPCMContactCapsuleBox.obj
 0001:00123680       ?pcmContactCapsuleCapsule@Gu@physx@@YA_NAEBVPxGeometry@2@0AEBUPxTransformPadded@2@1AEBUNarrowPhaseParams@12@AEAUCache@12@AEAVPxContactBuffer@2@PEAVPxRenderOutput@2@@Z 0000000180124680 f   GuPCMContactCapsuleCapsule.obj
 0001:00123f10       ??$gjkPenetration@U?$LocalConvex@VCapsuleV@Gu@physx@@@Gu@physx@@U?$LocalConvex@VConvexHullNoScaleV@Gu@physx@@@23@@Gu@physx@@YA?AW4GjkStatus@01@AEBU?$LocalConvex@VCapsuleV@Gu@physx@@@01@AEBU?$LocalConvex@VConvexHullNoScaleV@Gu@physx@@@01@AEBT__m128@@2_NPEIAE4AEAEAEAUGjkOutput@01@@Z 0000000180124f10 f i GuPCMContactCapsuleConvex.obj
 0001:00123f80       ??$gjkPenetration@U?$LocalConvex@VCapsuleV@Gu@physx@@@Gu@physx@@U?$LocalConvex@VConvexHullNoScaleV@Gu@physx@@@23@@Gu@physx@@YA?AW4GjkStatus@01@AEBU?$LocalConvex@VCapsuleV@Gu@physx@@@01@AEBU?$LocalConvex@VConvexHullNoScaleV@Gu@physx@@@01@AEBT__m128@@2_NPEIAE4PEIAT5@5AEAEAEAUGjkOutput@01@@Z 0000000180124f80 f i GuPCMContactCapsuleConvex.obj
 0001:00125640       ?pcmContactCapsuleConvex@Gu@physx@@YA_NAEBVPxGeometry@2@0AEBUPxTransformPadded@2@1AEBUNarrowPhaseParams@12@AEAUCache@12@AEAVPxContactBuffer@2@PEAVPxRenderOutput@2@@Z 0000000180126640 f   GuPCMContactCapsuleConvex.obj
 0001:00126830       ??_EPCMCapsuleVsHeightfieldContactGenerationCallback@@UEAAPEAXI@Z 0000000180127830 f i GuPCMContactCapsuleHeightField.obj
 0001:00126830       ??_EPCMConvexVsHeightfieldContactGenerationCallback@physx@@UEAAPEAXI@Z 0000000180127830 f i GuPCMContactConvexHeightField.obj
 0001:00126830       ??_GPCMCapsuleVsHeightfieldContactGenerationCallback@@UEAAPEAXI@Z 0000000180127830 f i GuPCMContactCapsuleHeightField.obj
 0001:00126830       ??_GPCMConvexVsHeightfieldContactGenerationCallback@physx@@UEAAPEAXI@Z 0000000180127830 f i GuPCMContactConvexHeightField.obj
 0001:00126860       ?pcmContactCapsuleHeightField@Gu@physx@@YA_NAEBVPxGeometry@2@0AEBUPxTransformPadded@2@1AEBUNarrowPhaseParams@12@AEAUCache@12@AEAVPxContactBuffer@2@PEAVPxRenderOutput@2@@Z 0000000180127860 f   GuPCMContactCapsuleHeightField.obj
 0001:00127770       ?reportTouchedTris@?$PCMHeightfieldContactGenerationCallback@UPCMCapsuleVsHeightfieldContactGenerationCallback@@@Gu@physx@@UEAA_NIPEBI@Z 0000000180128770 f i GuPCMContactCapsuleHeightField.obj
 0001:00127de0       ?generateContacts@PCMCapsuleVsMeshContactGeneration@Gu@physx@@SAXAEBT__m128@@0000I000PEAVMeshPersistentContact@23@AEAI@Z 0000000180128de0 f   GuPCMContactCapsuleMesh.obj
 0001:00128200       ?generateEE@PCMCapsuleVsMeshContactGeneration@Gu@physx@@QEAAXAEBT__m128@@000I00PEAVMeshPersistentContact@23@AEAI@Z 0000000180129200 f   GuPCMContactCapsuleMesh.obj
 0001:00128470       ?generateEEMTD@PCMCapsuleVsMeshContactGeneration@Gu@physx@@SAXAEBT__m128@@000I00PEAVMeshPersistentContact@23@AEAI@Z 0000000180129470 f   GuPCMContactCapsuleMesh.obj
 0001:001286a0       ?pcmContactCapsuleMesh@Gu@physx@@YA_NAEBVPxGeometry@2@0AEBUPxTransformPadded@2@1AEBUNarrowPhaseParams@12@AEAUCache@12@AEAVPxContactBuffer@2@PEAVPxRenderOutput@2@@Z 00000001801296a0 f   GuPCMContactCapsuleMesh.obj
 0001:00129f10       ?pcmDistanceSegmentTriangleSquaredExported@@YA?AT__m128@@AEBT1@0000AEAT1@11@Z 000000018012af10 f   GuPCMContactCapsuleMesh.obj
 0001:0012a370       ?processTriangle@PCMCapsuleVsMeshContactGeneration@Gu@physx@@QEAA_NPEBV?$PxVec3T@M@3@IEPEBI@Z 000000018012b370 f   GuPCMContactCapsuleMesh.obj
 0001:0012af70       ?processTriangle@PCMCapsuleVsMeshContactGeneration@Gu@physx@@SA_NAEBVTriangleV@23@IAEBVCapsuleV@23@AEBT__m128@@EPEAVMeshPersistentContact@23@AEAI@Z 000000018012bf70 f   GuPCMContactCapsuleMesh.obj
 0001:0012b2a0       ?addContactsToPatch@PCMConvexVsMeshContactGeneration@Gu@physx@@QEAAXAEBT__m128@@I@Z 000000018012c2a0 f   GuPCMContactConvexCommon.obj
 0001:0012bbe0       ?doSupport@?$SupportLocalImpl@VTriangleV@Gu@physx@@@Gu@physx@@UEBA?AT__m128@@AEBT4@@Z 000000018012cbe0 f i GuPCMContactConvexCommon.obj
 0001:0012bc70       ?doSupport@?$SupportLocalImpl@VTriangleV@Gu@physx@@@Gu@physx@@UEBAXAEBT__m128@@AEAT4@1@Z 000000018012cc70 f i GuPCMContactConvexCommon.obj
 0001:0012bce0       ?generateLastContacts@PCMConvexVsMeshContactGeneration@Gu@physx@@QEAAXXZ 000000018012cce0 f   GuPCMContactConvexCommon.obj
 0001:0012c240       ?populateVerts@?$SupportLocalImpl@VTriangleV@Gu@physx@@@Gu@physx@@UEBAXPEBEIPEBV?$PxVec3T@M@3@PEAT__m128@@@Z 000000018012d240 f i GuPCMContactConvexCommon.obj
 0001:0012c380       ?processTriangle@PCMConvexVsMeshContactGeneration@Gu@physx@@QEAA_NPEBV?$PxVec3T@M@3@IEPEBI@Z 000000018012d380 f   GuPCMContactConvexCommon.obj
 0001:0012c8d0       ?processTriangle@PCMConvexVsMeshContactGeneration@Gu@physx@@SA_NAEBUPolygonalData@23@PEBVSupportLocal@23@PEBV?$PxVec3T@M@3@IEAEBT__m128@@_NAEBVPxTransformV@aos@3@AEBVPxMatTransformV@93@PEAVMeshPersistentContact@23@AEAI@Z 000000018012d8d0 f   GuPCMContactConvexCommon.obj
 0001:0012cb50       ??$gjkPenetration@U?$RelativeConvex@VConvexHullNoScaleV@Gu@physx@@@Gu@physx@@U?$LocalConvex@VConvexHullNoScaleV@Gu@physx@@@23@@Gu@physx@@YA?AW4GjkStatus@01@AEBU?$RelativeConvex@VConvexHullNoScaleV@Gu@physx@@@01@AEBU?$LocalConvex@VConvexHullNoScaleV@Gu@physx@@@01@AEBT__m128@@2_NPEIAE4AEAEAEAUGjkOutput@01@@Z 000000018012db50 f i GuPCMContactConvexConvex.obj
 0001:0012cbc0       ??$gjkPenetration@U?$RelativeConvex@VConvexHullNoScaleV@Gu@physx@@@Gu@physx@@U?$LocalConvex@VConvexHullNoScaleV@Gu@physx@@@23@@Gu@physx@@YA?AW4GjkStatus@01@AEBU?$RelativeConvex@VConvexHullNoScaleV@Gu@physx@@@01@AEBU?$LocalConvex@VConvexHullNoScaleV@Gu@physx@@@01@AEBT__m128@@2_NPEIAE4PEIAT5@5AEAEAEAUGjkOutput@01@@Z 000000018012dbc0 f i GuPCMContactConvexConvex.obj
 0001:0012e0d0       ??$gjkPenetration@U?$RelativeConvex@VConvexHullNoScaleV@Gu@physx@@@Gu@physx@@U?$LocalConvex@VConvexHullV@Gu@physx@@@23@@Gu@physx@@YA?AW4GjkStatus@01@AEBU?$RelativeConvex@VConvexHullNoScaleV@Gu@physx@@@01@AEBU?$LocalConvex@VConvexHullV@Gu@physx@@@01@AEBT__m128@@2_NPEIAE4AEAEAEAUGjkOutput@01@@Z 000000018012f0d0 f i GuPCMContactConvexConvex.obj
 0001:0012e140       ??$gjkPenetration@U?$RelativeConvex@VConvexHullNoScaleV@Gu@physx@@@Gu@physx@@U?$LocalConvex@VConvexHullV@Gu@physx@@@23@@Gu@physx@@YA?AW4GjkStatus@01@AEBU?$RelativeConvex@VConvexHullNoScaleV@Gu@physx@@@01@AEBU?$LocalConvex@VConvexHullV@Gu@physx@@@01@AEBT__m128@@2_NPEIAE4PEIAT5@5AEAEAEAUGjkOutput@01@@Z 000000018012f140 f i GuPCMContactConvexConvex.obj
 0001:0012f6e0       ??$gjkPenetration@U?$RelativeConvex@VConvexHullV@Gu@physx@@@Gu@physx@@U?$LocalConvex@VConvexHullNoScaleV@Gu@physx@@@23@@Gu@physx@@YA?AW4GjkStatus@01@AEBU?$RelativeConvex@VConvexHullV@Gu@physx@@@01@AEBU?$LocalConvex@VConvexHullNoScaleV@Gu@physx@@@01@AEBT__m128@@2_NPEIAE4AEAEAEAUGjkOutput@01@@Z 00000001801306e0 f i GuPCMContactConvexConvex.obj
 0001:0012f750       ??$gjkPenetration@U?$RelativeConvex@VConvexHullV@Gu@physx@@@Gu@physx@@U?$LocalConvex@VConvexHullNoScaleV@Gu@physx@@@23@@Gu@physx@@YA?AW4GjkStatus@01@AEBU?$RelativeConvex@VConvexHullV@Gu@physx@@@01@AEBU?$LocalConvex@VConvexHullNoScaleV@Gu@physx@@@01@AEBT__m128@@2_NPEIAE4PEIAT5@5AEAEAEAUGjkOutput@01@@Z 0000000180130750 f i GuPCMContactConvexConvex.obj
 0001:00131740       ?pcmContactConvexConvex@Gu@physx@@YA_NAEBVPxGeometry@2@0AEBUPxTransformPadded@2@1AEBUNarrowPhaseParams@12@AEAUCache@12@AEAVPxContactBuffer@2@PEAVPxRenderOutput@2@@Z 0000000180132740 f   GuPCMContactConvexConvex.obj
 0001:00132870       ?support@?$RelativeConvex@VConvexHullNoScaleV@Gu@physx@@@Gu@physx@@UEBA?AT__m128@@AEBT4@@Z 0000000180133870 f i GuPCMContactConvexConvex.obj
 0001:00132920       ?support@?$RelativeConvex@VConvexHullNoScaleV@Gu@physx@@@Gu@physx@@UEBA?AT__m128@@AEBT4@AEAH@Z 0000000180133920 f i GuPCMContactConvexConvex.obj
 0001:001329e0       ?supportPoint@?$RelativeConvex@VConvexHullNoScaleV@Gu@physx@@@Gu@physx@@UEBA?AT__m128@@H@Z 00000001801339e0 f i GuPCMContactConvexConvex.obj
 0001:00132a40       ?PCMContactConvexHeightfield@Gu@physx@@YA_NAEBUPolygonalData@12@PEAVSupportLocal@12@AEBT__m128@@AEBVPxBounds3@2@AEBVPxHeightFieldGeometry@2@AEBV?$PxTransformT@M@2@5MAEAVPxContactBuffer@2@AEBVFastVertex2ShapeScaling@Cm@2@_NAEAVMultiplePersistentContactManifold@12@PEAVPxRenderOutput@2@@Z 0000000180133a40 f   GuPCMContactConvexHeightField.obj
 0001:001338d0       ?pcmContactBoxHeightField@Gu@physx@@YA_NAEBVPxGeometry@2@0AEBUPxTransformPadded@2@1AEBUNarrowPhaseParams@12@AEAUCache@12@AEAVPxContactBuffer@2@PEAVPxRenderOutput@2@@Z 00000001801348d0 f   GuPCMContactConvexHeightField.obj
 0001:00133b70       ?pcmContactConvexHeightField@Gu@physx@@YA_NAEBVPxGeometry@2@0AEBUPxTransformPadded@2@1AEBUNarrowPhaseParams@12@AEAUCache@12@AEAVPxContactBuffer@2@PEAVPxRenderOutput@2@@Z 0000000180134b70 f   GuPCMContactConvexHeightField.obj
 0001:00134250       ?reportTouchedTris@?$PCMHeightfieldContactGenerationCallback@UPCMConvexVsHeightfieldContactGenerationCallback@physx@@@Gu@physx@@UEAA_NIPEBI@Z 0000000180135250 f i GuPCMContactConvexHeightField.obj
 0001:00134800       ??$processTriangleCache@$0BA@@PCMConvexVsMeshContactGenerationCallback@physx@@QEAAXAEAU?$TriangleCache@$0BA@@Gu@1@@Z 0000000180135800 f i GuPCMContactConvexMesh.obj
 0001:00134890       ??_EPCMConvexVsMeshContactGenerationCallback@physx@@UEAAPEAXI@Z 0000000180135890 f i GuPCMContactConvexMesh.obj
 0001:00134890       ??_GPCMConvexVsMeshContactGenerationCallback@physx@@UEAAPEAXI@Z 0000000180135890 f i GuPCMContactConvexMesh.obj
 0001:001348c0       ?PCMContactConvexMesh@Gu@physx@@YA_NAEBUPolygonalData@12@PEAVSupportLocal@12@AEBT__m128@@AEBVPxBounds3@2@AEBVPxTriangleMeshGeometry@2@AEBV?$PxTransformT@M@2@5MAEAVPxContactBuffer@2@AEBVFastVertex2ShapeScaling@Cm@2@7_N8AEAVMultiplePersistentContactManifold@12@PEAVPxRenderOutput@2@@Z 00000001801358c0 f   GuPCMContactConvexMesh.obj
 0001:001353c0       ?pcmContactBoxMesh@Gu@physx@@YA_NAEBVPxGeometry@2@0AEBUPxTransformPadded@2@1AEBUNarrowPhaseParams@12@AEAUCache@12@AEAVPxContactBuffer@2@PEAVPxRenderOutput@2@@Z 00000001801363c0 f   GuPCMContactConvexMesh.obj
 0001:00135700       ?pcmContactConvexMesh@Gu@physx@@YA_NAEBVPxGeometry@2@0AEBUPxTransformPadded@2@1AEBUNarrowPhaseParams@12@AEAUCache@12@AEAVPxContactBuffer@2@PEAVPxRenderOutput@2@@Z 0000000180136700 f   GuPCMContactConvexMesh.obj
 0001:00135e50       ?processHit@?$PCMMeshContactGenerationCallback@UPCMConvexVsMeshContactGenerationCallback@physx@@@Gu@physx@@UEAA_NAEBUPxGeomRaycastHit@3@AEBV?$PxVec3T@M@3@11AEAMPEBI@Z 0000000180136e50 f i GuPCMContactConvexMesh.obj
 0001:00136310       ?addGJKEPAContacts@Gu@physx@@YA_NPEBUGjkConvex@12@0AEBVPxMatTransformV@aos@2@W4GjkStatus@12@PEAVPersistentContact@12@T__m128@@4AEAUGjkOutput@12@AEAVPersistentContactManifold@12@@Z 0000000180137310 f   GuPCMContactGenBoxConvex.obj
 0001:00136510       ?buildPartialHull@Gu@physx@@YAXAEBUPolygonalData@12@PEBVSupportLocal@12@AEAVSeparatingAxes@12@AEBT__m128@@3@Z 0000000180137510 f   GuPCMContactGenBoxConvex.obj
 0001:001367c0       ?computeMTD@Gu@physx@@YA_NAEBUPolygonalData@12@0PEBVSupportLocal@12@1AEAT__m128@@2@Z 00000001801377c0 f   GuPCMContactGenBoxConvex.obj
 0001:00136df0       ?generateFullContactManifold@Gu@physx@@YA_NAEBUPolygonalData@12@0PEBVSupportLocal@12@1PEAVPersistentContact@12@AEAIAEBT__m128@@444MM_NPEAVPxRenderOutput@2@M@Z 0000000180137df0 f   GuPCMContactGenBoxConvex.obj
 0001:00137900       ?generatedContacts@Gu@physx@@YAXAEBUPolygonalData@12@0AEBUHullPolygonData@12@1PEBVSupportLocal@12@2AEBVPxMatTransformV@aos@2@PEAVPersistentContact@12@AEAIAEBT__m128@@PEAVPxRenderOutput@2@@Z 0000000180138900 f   GuPCMContactGenBoxConvex.obj
 0001:00138d60       ?computeMTD@Gu@physx@@YA_NAEBVCapsuleV@12@AEBUPolygonalData@12@PEBVSupportLocal@12@AEAT__m128@@3@Z 0000000180139d60 f   GuPCMContactGenSphereCapsule.obj
 0001:00138e50       ?generateCapsuleBoxFullContactManifold@Gu@physx@@YA_NAEBVCapsuleV@12@AEBUPolygonalData@12@PEBVSupportLocal@12@AEBVPxMatTransformV@aos@2@PEAVPersistentContact@12@AEAIAEBT__m128@@AEAT9@6M_NMPEAVPxRenderOutput@2@@Z 0000000180139e50 f   GuPCMContactGenSphereCapsule.obj
 0001:00138ff0       ?generateFullContactManifold@Gu@physx@@YA_NAEBVCapsuleV@12@AEBUPolygonalData@12@PEBVSupportLocal@12@AEBVPxMatTransformV@aos@2@PEAVPersistentContact@12@AEAIAEBT__m128@@AEAT9@6M_NM@Z 0000000180139ff0 f   GuPCMContactGenSphereCapsule.obj
 0001:001391e0       ?generateSphereFullContactManifold@Gu@physx@@YA_NAEBVCapsuleV@12@AEBUPolygonalData@12@PEBVSupportLocal@12@PEAVPersistentContact@12@AEAIAEBT__m128@@AEAT7@_N@Z 000000018013a1e0 f   GuPCMContactGenSphereCapsule.obj
 0001:0013a6d0       ?pcmContactPlaneBox@Gu@physx@@YA_NAEBVPxGeometry@2@0AEBUPxTransformPadded@2@1AEBUNarrowPhaseParams@12@AEAUCache@12@AEAVPxContactBuffer@2@PEAVPxRenderOutput@2@@Z 000000018013b6d0 f   GuPCMContactPlaneBox.obj
 0001:0013b290       ?pcmContactPlaneCapsule@Gu@physx@@YA_NAEBVPxGeometry@2@0AEBUPxTransformPadded@2@1AEBUNarrowPhaseParams@12@AEAUCache@12@AEAVPxContactBuffer@2@PEAVPxRenderOutput@2@@Z 000000018013c290 f   GuPCMContactPlaneCapsule.obj
 0001:0013ba10       ?pcmContactPlaneConvex@Gu@physx@@YA_NAEBVPxGeometry@2@0AEBUPxTransformPadded@2@1AEBUNarrowPhaseParams@12@AEAUCache@12@AEAVPxContactBuffer@2@PEAVPxRenderOutput@2@@Z 000000018013ca10 f   GuPCMContactPlaneConvex.obj
 0001:0013c690       ?pcmContactSphereBox@Gu@physx@@YA_NAEBVPxGeometry@2@0AEBUPxTransformPadded@2@1AEBUNarrowPhaseParams@12@AEAUCache@12@AEAVPxContactBuffer@2@PEAVPxRenderOutput@2@@Z 000000018013d690 f   GuPCMContactSphereBox.obj
 0001:0013caf0       ?pcmContactSphereCapsule@Gu@physx@@YA_NAEBVPxGeometry@2@0AEBUPxTransformPadded@2@1AEBUNarrowPhaseParams@12@AEAUCache@12@AEAVPxContactBuffer@2@PEAVPxRenderOutput@2@@Z 000000018013daf0 f   GuPCMContactSphereCapsule.obj
 0001:0013cf60       ?pcmContactSphereConvex@Gu@physx@@YA_NAEBVPxGeometry@2@0AEBUPxTransformPadded@2@1AEBUNarrowPhaseParams@12@AEAUCache@12@AEAVPxContactBuffer@2@PEAVPxRenderOutput@2@@Z 000000018013df60 f   GuPCMContactSphereConvex.obj
 0001:0013dc30       ??1?$PxArray@USortedTriangle@Gu@physx@@V?$PxInlineAllocator@$0IAA@V?$PxReflectionAllocator@USortedTriangle@Gu@physx@@@physx@@@3@@physx@@QEAA@XZ 000000018013ec30 f i GuPCMContactSphereHeightField.obj
 0001:0013dca0       ??_EPCMSphereVsHeightfieldContactGenerationCallback@physx@@UEAAPEAXI@Z 000000018013eca0 f i GuPCMContactSphereHeightField.obj
 0001:0013dca0       ??_GPCMSphereVsHeightfieldContactGenerationCallback@physx@@UEAAPEAXI@Z 000000018013eca0 f i GuPCMContactSphereHeightField.obj
 0001:0013dcf0       ?pcmContactSphereHeightField@Gu@physx@@YA_NAEBVPxGeometry@2@0AEBUPxTransformPadded@2@1AEBUNarrowPhaseParams@12@AEAUCache@12@AEAVPxContactBuffer@2@PEAVPxRenderOutput@2@@Z 000000018013ecf0 f   GuPCMContactSphereHeightField.obj
 0001:0013e7b0       ?reportTouchedTris@?$PCMHeightfieldContactGenerationCallback@UPCMSphereVsHeightfieldContactGenerationCallback@physx@@@Gu@physx@@UEAA_NIPEBI@Z 000000018013f7b0 f i GuPCMContactSphereHeightField.obj
 0001:0013ed60       ??$PxSort@USortedTriangle@Gu@physx@@U?$PxLess@USortedTriangle@Gu@physx@@@3@V?$PxReflectionAllocator@USortedTriangle@Gu@physx@@@3@@physx@@YAXPEAUSortedTriangle@Gu@0@IAEBU?$PxLess@USortedTriangle@Gu@physx@@@0@AEBV?$PxReflectionAllocator@USortedTriangle@Gu@physx@@@0@I@Z 000000018013fd60 f i GuPCMContactSphereMesh.obj
 0001:0013f280       ??$processTriangleCache@$0BA@VPCMSphereVsMeshContactGeneration@Gu@physx@@@PCMMeshContactGeneration@Gu@physx@@QEAA_NAEAU?$TriangleCache@$0BA@@12@@Z 0000000180140280 f i GuPCMContactSphereMesh.obj
 0001:0013f750       ?addToPatch@PCMSphereVsMeshContactGeneration@Gu@physx@@QEAAXAEBT__m128@@0T4@I@Z 0000000180140750 f   GuPCMContactSphereMesh.obj
 0001:0013fe10       ?allocate@?$PxArray@IV?$PxInlineAllocator@$0PAA@V?$PxReflectionAllocator@I@physx@@@physx@@@physx@@IEAAPEAII@Z 0000000180140e10 f i GuPCMContactSphereMesh.obj
 0001:0013fed0       ?allocate@?$PxArray@USortedTriangle@Gu@physx@@V?$PxInlineAllocator@$0IAA@V?$PxReflectionAllocator@USortedTriangle@Gu@physx@@@physx@@@3@@physx@@IEAAPEAUSortedTriangle@Gu@2@I@Z 0000000180140ed0 f i GuPCMContactSphereMesh.obj
 0001:0013ff90       ?generateLastContacts@PCMSphereVsMeshContactGeneration@Gu@physx@@QEAAXXZ 0000000180140f90 f   GuPCMContactSphereMesh.obj
 0001:001405c0       ?growAndPushBack@?$PxArray@USortedTriangle@Gu@physx@@V?$PxInlineAllocator@$0IAA@V?$PxReflectionAllocator@USortedTriangle@Gu@physx@@@physx@@@3@@physx@@IEAAAEAUSortedTriangle@Gu@2@AEBU342@@Z 00000001801415c0 f i GuPCMContactSphereMesh.obj
 0001:001406d0       ?pcmContactSphereMesh@Gu@physx@@YA_NAEBVPxGeometry@2@0AEBUPxTransformPadded@2@1AEBUNarrowPhaseParams@12@AEAUCache@12@AEAVPxContactBuffer@2@PEAVPxRenderOutput@2@@Z 00000001801416d0 f   GuPCMContactSphereMesh.obj
 0001:00141c40       ?processTriangle@PCMSphereVsMeshContactGeneration@Gu@physx@@QEAA_NPEBV?$PxVec3T@M@3@IEPEBI@Z 0000000180142c40 f   GuPCMContactSphereMesh.obj
 0001:00142030       ?recreate@?$PxArray@IV?$PxInlineAllocator@$0PAA@V?$PxReflectionAllocator@I@physx@@@physx@@@physx@@IEAAXI@Z 0000000180143030 f i GuPCMContactSphereMesh.obj
 0001:001420f0       ?pcmContactSpherePlane@Gu@physx@@YA_NAEBVPxGeometry@2@0AEBUPxTransformPadded@2@1AEBUNarrowPhaseParams@12@AEAUCache@12@AEAVPxContactBuffer@2@PEAVPxRenderOutput@2@@Z 00000001801430f0 f   GuPCMContactSpherePlane.obj
 0001:00142270       ?pcmContactSphereSphere@Gu@physx@@YA_NAEBVPxGeometry@2@0AEBUPxTransformPadded@2@1AEBUNarrowPhaseParams@12@AEAUCache@12@AEAVPxContactBuffer@2@PEAVPxRenderOutput@2@@Z 0000000180143270 f   GuPCMContactSphereSphere.obj
 0001:00142b40       ?pcmContactGeometryCustomGeometry@Gu@physx@@YA_NAEBVPxGeometry@2@0AEBUPxTransformPadded@2@1AEBUNarrowPhaseParams@12@AEAUCache@12@AEAVPxContactBuffer@2@PEAVPxRenderOutput@2@@Z 0000000180143b40 f   GuPCMContactCustomGeometry.obj
 0001:00142bf0       ?getPCMConvexData@Gu@physx@@YAXAEBVConvexHullV@12@_NAEAUPolygonalData@12@@Z 0000000180143bf0 f   GuPCMShapeConvex.obj
 0001:00142c30       ?getPCMConvexData@Gu@physx@@YA_NAEBVPxConvexMeshGeometry@2@AEAVFastVertex2ShapeScaling@Cm@2@AEAVPxBounds3@2@AEAUPolygonalData@12@@Z 0000000180143c30 f   GuPCMShapeConvex.obj
 0001:00143190       ?getPolygonalData@PCMPolygonalBox@Gu@physx@@QEBAXPEIAUPolygonalData@23@@Z 0000000180144190 f   GuPCMShapeConvex.obj
 0001:00143210       ?generatePolyDataContactManifold@PCMConvexVsMeshContactGeneration@Gu@physx@@QEAA_NAEBVTriangleV@23@IIEPEAVMeshPersistentContact@23@AEAIAEBT__m128@@AEAT6@@Z 0000000180144210 f   GuPCMTriangleContactGen.obj
 0001:00143330       ?generateTriangleFullContactManifold@PCMConvexVsMeshContactGeneration@Gu@physx@@QEAA_NAEBVTriangleV@23@IPEBIEAEBUPolygonalData@23@PEBV?$SupportLocalImpl@VTriangleV@Gu@physx@@@23@PEBVSupportLocal@23@PEAVMeshPersistentContact@23@AEAIAEBT__m128@@AEAT9@@Z 0000000180144330 f   GuPCMTriangleContactGen.obj
 0001:00143860       ?generateTriangleFullContactManifold@PCMConvexVsMeshContactGeneration@Gu@physx@@SA_NAEBVTriangleV@23@IEAEBUPolygonalData@23@PEBV?$SupportLocalImpl@VTriangleV@Gu@physx@@@23@PEBVSupportLocal@23@PEAVMeshPersistentContact@23@AEAIAEBT__m128@@AEAT9@PEAVPxRenderOutput@3@@Z 0000000180144860 f   GuPCMTriangleContactGen.obj
 0001:001458f0       ?addBatchManifoldContacts2@PersistentContactManifold@Gu@physx@@QEAAXPEBVPersistentContact@23@I@Z 00000001801468f0 f   GuPersistentContactManifold.obj
 0001:00145960       ?addBatchManifoldContacts@PersistentContactManifold@Gu@physx@@QEAAXPEBVPersistentContact@23@IM@Z 0000000180146960 f   GuPersistentContactManifold.obj
 0001:001459e0       ?addBatchManifoldContactsCluster@PersistentContactManifold@Gu@physx@@QEAAXPEBVPersistentContact@23@I@Z 00000001801469e0 f   GuPersistentContactManifold.obj
 0001:00145c60       ?addManifoldContactPoints@MultiplePersistentContactManifold@Gu@physx@@QEAAXPEAVMeshPersistentContact@23@IPEAPEAUPCMContactPatch@23@IAEBT__m128@@2E@Z 0000000180146c60 f   GuPersistentContactManifold.obj
 0001:00146050       ?addManifoldContactsToContactBuffer@MultiplePersistentContactManifold@Gu@physx@@QEAA_NAEAVPxContactBuffer@3@AEBVPxTransformV@aos@3@1AEBT__m128@@@Z 0000000180147050 f   GuPersistentContactManifold.obj
 0001:00146300       ?addManifoldContactsToContactBuffer@MultiplePersistentContactManifold@Gu@physx@@QEAA_NAEAVPxContactBuffer@3@AEBVPxTransformV@aos@3@@Z 0000000180147300 f   GuPersistentContactManifold.obj
 0001:00146580       ?addManifoldContactsToContactBuffer@PersistentContactManifold@Gu@physx@@QEAAXAEAVPxContactBuffer@3@AEBT__m128@@1AEBVPxTransformV@aos@3@11@Z 0000000180147580 f   GuPersistentContactManifold.obj
 0001:00146710       ?addManifoldContactsToContactBuffer@PersistentContactManifold@Gu@physx@@QEAAXAEAVPxContactBuffer@3@AEBT__m128@@AEBVPxMatTransformV@aos@3@@Z 0000000180147710 f   GuPersistentContactManifold.obj
 0001:001467c0       ?addManifoldContactsToContactBuffer@PersistentContactManifold@Gu@physx@@QEAAXAEAVPxContactBuffer@3@AEBT__m128@@AEBVPxTransformV@aos@3@1@Z 00000001801477c0 f   GuPersistentContactManifold.obj
 0001:00146920       ?addManifoldPoint2@PersistentContactManifold@Gu@physx@@QEAAIAEBT__m128@@000@Z 0000000180147920 f   GuPersistentContactManifold.obj
 0001:00146a50       ?addManifoldPoint@Gu@physx@@YAXPEAVPersistentContact@12@AEAVPersistentContactManifold@12@AEAUGjkOutput@12@AEBVPxMatTransformV@aos@2@T__m128@@@Z 0000000180147a50 f   GuPersistentContactManifold.obj
 0001:00146c00       ?addManifoldPoint@PersistentContactManifold@Gu@physx@@QEAAIAEBT__m128@@000@Z 0000000180147c00 f   GuPersistentContactManifold.obj
 0001:00147040       ?drawLine@MultiplePersistentContactManifold@Gu@physx@@SAXAEAVPxRenderOutput@3@AEBT__m128@@1I@Z 0000000180148040 f   GuPersistentContactManifold.obj
 0001:001470f0       ?drawLine@MultiplePersistentContactManifold@Gu@physx@@SAXAEAVPxRenderOutput@3@V?$PxVec3T@M@3@1I@Z 00000001801480f0 f   GuPersistentContactManifold.obj
 0001:00147160       ?drawManifold@MultiplePersistentContactManifold@Gu@physx@@QEAAXAEAVPxRenderOutput@3@AEBVPxTransformV@aos@3@1@Z 0000000180148160 f   GuPersistentContactManifold.obj
 0001:001471e0       ?drawManifold@SinglePersistentContactManifold@Gu@physx@@QEAAXAEAVPxRenderOutput@3@AEBVPxTransformV@aos@3@1@Z 00000001801481e0 f   GuPersistentContactManifold.obj
 0001:00147810       ?drawPoint@MultiplePersistentContactManifold@Gu@physx@@SAXAEAVPxRenderOutput@3@AEBT__m128@@MI@Z 0000000180148810 f   GuPersistentContactManifold.obj
 0001:00147a20       ?drawPolygon@MultiplePersistentContactManifold@Gu@physx@@SAXAEAVPxRenderOutput@3@AEBVPxTransformV@aos@3@PEAT__m128@@II@Z 0000000180148a20 f   GuPersistentContactManifold.obj
 0001:00147ca0       ?findRotationMatrixFromZAxis@Gu@physx@@YA?AUMat33V@aos@2@AEBT__m128@@@Z 0000000180148ca0 f   GuPersistentContactManifold.obj
 0001:00147f20       ?fromBuffer@MultiplePersistentContactManifold@Gu@physx@@QEAAXPEIAE@Z 0000000180148f20 f   GuPersistentContactManifold.obj
 0001:00148080       ?reduceBatchContacts2@PersistentContactManifold@Gu@physx@@QEAAXPEBVPersistentContact@23@I@Z 0000000180149080 f   GuPersistentContactManifold.obj
 0001:00148280       ?reduceBatchContacts@PersistentContactManifold@Gu@physx@@QEAAXPEBVPersistentContact@23@IM@Z 0000000180149280 f   GuPersistentContactManifold.obj
 0001:00148740       ?reduceBatchContactsCapsule@SinglePersistentContactManifold@Gu@physx@@QEAA?AT__m128@@PEBVMeshPersistentContact@23@IAEAUPCMContactPatch@23@@Z 0000000180149740 f   GuPersistentContactManifold.obj
 0001:001489d0       ?reduceBatchContactsCluster@PersistentContactManifold@Gu@physx@@QEAAXPEBVPersistentContact@23@I@Z 00000001801499d0 f   GuPersistentContactManifold.obj
 0001:00148e60       ?reduceBatchContactsConvex@SinglePersistentContactManifold@Gu@physx@@QEAA?AT__m128@@PEBVMeshPersistentContact@23@IAEAUPCMContactPatch@23@@Z 0000000180149e60 f   GuPersistentContactManifold.obj
 0001:00149450       ?reduceContacts@SinglePersistentContactManifold@Gu@physx@@SAIPEAVMeshPersistentContact@23@I@Z 000000018014a450 f   GuPersistentContactManifold.obj
 0001:001499d0       ?reduceContactsForPCM@PersistentContactManifold@Gu@physx@@QEAAIAEBT__m128@@00@Z 000000018014a9d0 f   GuPersistentContactManifold.obj
 0001:00149f70       ?refreshContactPoints@SinglePersistentContactManifold@Gu@physx@@QEAA?AT__m128@@AEBVPxMatTransformV@aos@3@AEBT4@1@Z 000000018014af70 f   GuPersistentContactManifold.obj
 0001:0014a0c0       ?replaceManifoldPoint@PersistentContactManifold@Gu@physx@@QEAA_NAEBT__m128@@000@Z 000000018014b0c0 f   GuPersistentContactManifold.obj
 0001:0014a180       ?contains@Gu@physx@@YA_NPEAT__m128@@IAEBT3@11@Z 000000018014b180 f   GuPCMContactGenUtil.obj
 0001:0014a340       ?getPolygonIndex@Gu@physx@@YAHAEBUPolygonalData@12@PEBVSupportLocal@12@AEBT__m128@@AEAH@Z 000000018014b340 f   GuPCMContactGenUtil.obj
 0001:0014a5e0       ?getWitnessPolygonIndex@Gu@physx@@YAIAEBUPolygonalData@12@PEBVSupportLocal@12@AEBT__m128@@2M@Z 000000018014b5e0 f   GuPCMContactGenUtil.obj
 0001:0014ab30       ?sweepBoxBox@Gu@physx@@YA_NAEBVBox@12@0AEBV?$PxVec3T@M@2@MV?$PxFlags@W4Enum@PxHitFlag@physx@@G@2@AEAUPxGeomSweepHit@2@@Z 000000018014bb30 f   GuSweepBoxBox.obj
 0001:0014c170       ?sweepBoxSphere@Gu@physx@@YA_NAEBVBox@12@MAEBV?$PxVec3T@M@2@1MAEAMAEAV42@V?$PxFlags@W4Enum@PxHitFlag@physx@@G@2@@Z 000000018014d170 f   GuSweepBoxSphere.obj
 0001:0014ce20       ?sweepBoxTriangle@Gu@physx@@YA_NAEBVPxTriangle@2@AEBVPxBounds3@2@AEBV?$PxVec3T@M@2@2AEAV52@3AEAM_N@Z 000000018014de20 f   GuSweepBoxTriangle_FeatureBased.obj
 0001:0014e540       ?triBoxSweepTestBoxSpace@Gu@physx@@YAHAEBVPxTriangle@2@AEBV?$PxVec3T@M@2@11MAEAM_N@Z 000000018014f540 f   GuSweepBoxTriangle_SAT.obj
 0001:0014fe50       ?sweepCapsuleBox@Gu@physx@@YA_NAEBVCapsule@12@AEBV?$PxTransformT@M@2@AEBV?$PxVec3T@M@2@2MAEAV52@AEAM3V?$PxFlags@W4Enum@PxHitFlag@physx@@G@2@@Z 0000000180150e50 f   GuSweepCapsuleBox.obj
 0001:001501a0       ?distancePointSegmentSquared@Gu@physx@@YAMAEBVSegment@12@AEBV?$PxVec3T@M@2@PEAM@Z 00000001801511a0 f i GuSweepCapsuleCapsule.obj
 0001:00150520       ?sweepCapsuleCapsule@Gu@physx@@YA_NAEBVCapsule@12@0AEBV?$PxVec3T@M@2@MAEAMAEAV42@3IAEAG@Z 0000000180151520 f   GuSweepCapsuleCapsule.obj
 0001:00151330       ?sweepCapsuleTriangles_Precise@Gu@physx@@YA_NIPEIBVPxTriangle@2@AEBVCapsule@12@AEBV?$PxVec3T@M@2@MPEIBIAEAUPxGeomSweepHit@2@AEAV52@V?$PxFlags@W4Enum@PxHitFlag@physx@@G@2@_NPEBVBoxPadded@12@@Z 0000000180152330 f   GuSweepCapsuleTriangle.obj
 0001:001534a0       ?sweepSphereCapsule@Gu@physx@@YA_NAEBVSphere@12@AEBVCapsule@12@AEBV?$PxVec3T@M@2@MAEAMAEAV52@4V?$PxFlags@W4Enum@PxHitFlag@physx@@G@2@@Z 00000001801544a0 f   GuSweepSphereCapsule.obj
 0001:00153b40       ?sweepSphereSphere@Gu@physx@@YA_NAEBV?$PxVec3T@M@2@M0M0AEAMAEAV32@@Z 0000000180154b40 f   GuSweepSphereSphere.obj
 0001:00153db0       ?sweepSphereTriangles@Gu@physx@@YA_NIPEIBVPxTriangle@2@AEBV?$PxVec3T@M@2@M1MPEIBIAEAUPxGeomSweepHit@2@AEAV42@_N555@Z 0000000180154db0 f   GuSweepSphereTriangle.obj
 0001:00154680       ?sweepSphereVSQuad@Gu@physx@@YA_NPEIBV?$PxVec3T@M@2@AEBV32@1M1AEAM@Z 0000000180155680 f   GuSweepSphereTriangle.obj
 0001:00155660       ?sweepSphereVSTri@Gu@physx@@YA_NPEIBV?$PxVec3T@M@2@AEBV32@1M1AEAMAEA_N_N@Z 0000000180156660 f   GuSweepSphereTriangle.obj
 0001:00156380       ??$gjk@U?$LocalConvex@VTriangleV@Gu@physx@@@Gu@physx@@U?$LocalConvex@VBoxV@Gu@physx@@@23@@Gu@physx@@YA?AW4GjkStatus@01@AEBU?$LocalConvex@VTriangleV@Gu@physx@@@01@AEBU?$LocalConvex@VBoxV@Gu@physx@@@01@AEBT__m128@@2AEAT5@333@Z 0000000180157380 f i GuSweepTriangleUtils.obj
 0001:00157060       ?computeBoxTriImpactData@Gu@physx@@YAXAEAV?$PxVec3T@M@2@0AEBV32@1AEBVPxTriangle@2@M@Z 0000000180158060 f   GuSweepTriangleUtils.obj
 0001:001572e0       ?computeEdgeEdgeNormal@Gu@physx@@YAXAEAV?$PxVec3T@M@2@AEBV32@1111M@Z 00000001801582e0 f   GuSweepTriangleUtils.obj
 0001:001575a0       ?computeSphereTriImpactData@Gu@physx@@YAXAEAV?$PxVec3T@M@2@0AEBV32@1MAEBVPxTriangle@2@@Z 00000001801585a0 f   GuSweepTriangleUtils.obj
 0001:00157a80       ??0ShapeData@Gu@physx@@QEAA@AEBVPxGeometry@2@AEBV?$PxTransformT@M@2@M@Z 0000000180158a80 f   GuBounds.obj
 0001:00157ff0       ?computeBounds@Gu@physx@@YAXAEAVPxBounds3@2@AEBVPxGeometry@2@AEBV?$PxTransformT@M@2@MM@Z 0000000180158ff0 f   GuBounds.obj
 0001:00158cc0       ?computeBoundsAroundVertices@Gu@physx@@YAXAEAVPxBounds3@2@IPEIBV?$PxVec3T@M@2@@Z 0000000180159cc0 f   GuBounds.obj
 0001:00158d70       ?computeGlobalBox@Gu@physx@@YAXAEAVPxBounds3@2@IPEIBV32@PEIBI@Z 0000000180159d70 f   GuBounds.obj
 0001:00158e00       ?computeLocalBoundsAndGeomEpsilon@Gu@physx@@YAXPEBV?$PxVec3T@M@2@IAEAVPxBounds3@2@AEAM@Z 0000000180159e00 f   GuBounds.obj
 0001:0015a1c0       ??0AABBTree@Gu@physx@@QEAA@XZ 000000018015b1c0 f   GuAABBTree.obj
 0001:0015a1f0       ??0BVHPartialRefitData@Gu@physx@@QEAA@XZ 000000018015b1f0 f   GuAABBTree.obj
 0001:0015a220       ??0NodeAllocator@Gu@physx@@QEAA@XZ 000000018015b220 f   GuAABBTree.obj
 0001:0015a240       ??1AABBTree@Gu@physx@@QEAA@XZ 000000018015b240 f   GuAABBTree.obj
 0001:0015a260       ??1BVHPartialRefitData@Gu@physx@@QEAA@XZ 000000018015b260 f   GuAABBTree.obj
 0001:0015a300       ??1NodeAllocator@Gu@physx@@QEAA@XZ 000000018015b300 f   GuAABBTree.obj
 0001:0015a350       ?_buildHierarchy@AABBTreeBuildNode@Gu@physx@@QEAAXAEBVAABBTreeBuildParams@23@AEAUBuildStats@23@AEAVNodeAllocator@23@QEAI@Z 000000018015b350 f   GuAABBTree.obj
 0001:0015a3e0       ?_buildHierarchySAH@AABBTreeBuildNode@Gu@physx@@QEAAXAEBVAABBTreeBuildParams@23@AEAUSAH_Buffers@23@AEAUBuildStats@23@AEAVNodeAllocator@23@QEAI@Z 000000018015b3e0 f   GuAABBTree.obj
 0001:0015a490       ?addRuntimeChilds@AABBTree@Gu@physx@@AEAAXAEAIAEBVAABBTreeMergeData@23@@Z 000000018015b490 f   GuAABBTree.obj
 0001:0015a590       ?build@AABBTree@Gu@physx@@QEAA_NAEBVAABBTreeBuildParams@23@AEAVNodeAllocator@23@@Z 000000018015b590 f   GuAABBTree.obj
 0001:0015a7b0       ?buildAABBTree@Gu@physx@@YAPEAIAEBVAABBTreeBuildParams@12@AEAVNodeAllocator@12@AEAUBuildStats@12@@Z 000000018015b7b0 f   GuAABBTree.obj
 0001:0015a850       ?buildAABBTree@Gu@physx@@YAXIAEBVAABBTreeBounds@12@AEAV?$PxArray@UBVHNode@Gu@physx@@V?$PxReflectionAllocator@UBVHNode@Gu@physx@@@3@@2@@Z 000000018015b850 f   GuAABBTree.obj
 0001:0015ac20       ?buildEnd@AABBTree@Gu@physx@@AEAAXAEBVAABBTreeBuildParams@23@AEAVNodeAllocator@23@AEBUBuildStats@23@@Z 000000018015bc20 f   GuAABBTree.obj
 0001:0015ae40       ?createUpdateMap@BVHPartialRefitData@Gu@physx@@QEAAXI@Z 000000018015be40 f   GuAABBTree.obj
 0001:0015af60       ?flattenTree@Gu@physx@@YAXAEBVNodeAllocator@12@PEAUBVHNode@12@PEBI@Z 000000018015bf60 f   GuAABBTree.obj
 0001:0015b150       ?fullRefit@BVHCoreData@Gu@physx@@QEAAXPEBVPxBounds3@3@@Z 000000018015c150 f   GuAABBTree.obj
 0001:0015b310       ?getBiNode@NodeAllocator@Gu@physx@@QEAAPEAVAABBTreeBuildNode@23@XZ 000000018015c310 f   GuAABBTree.obj
 0001:0015b440       ?getParentIndices@BVHPartialRefitData@Gu@physx@@IEAAPEAIXZ 000000018015c440 f   GuAABBTree.obj
 0001:0015b4d0       ?growAndPushBack@?$PxArray@PEAVAABBTreeBuildNode@Gu@physx@@V?$PxReflectionAllocator@PEAVAABBTreeBuildNode@Gu@physx@@@3@@physx@@IEAAAEAPEAVAABBTreeBuildNode@Gu@2@AEBQEAV342@@Z 000000018015c4d0 f i GuAABBTree.obj
 0001:0015b5f0       ?growAndPushBack@?$PxArray@USlab@NodeAllocator@Gu@physx@@V?$PxReflectionAllocator@USlab@NodeAllocator@Gu@physx@@@4@@physx@@IEAAAEAUSlab@NodeAllocator@Gu@2@AEBU3452@@Z 000000018015c5f0 f i GuAABBTree.obj
 0001:0015b6b0       ?init@AABBTreeBounds@Gu@physx@@QEAAXIPEBVPxBounds3@3@@Z 000000018015c6b0 f   GuAABBTree.obj
 0001:0015b770       ?init@NodeAllocator@Gu@physx@@QEAAXII@Z 000000018015c770 f   GuAABBTree.obj
 0001:0015bab0       ?initTree@AABBTree@Gu@physx@@QEAAXAEBVAABBTreeMergeData@23@@Z 000000018015cab0 f   GuAABBTree.obj
 0001:0015bbe0       ?markNodeForRefit@BVHPartialRefitData@Gu@physx@@QEAAXI@Z 000000018015cbe0 f   GuAABBTree.obj
 0001:0015bcf0       ?mergeRuntimeLeaf@AABBTree@Gu@physx@@AEAAXAEAUBVHNode@23@AEBVAABBTreeMergeData@23@I@Z 000000018015ccf0 f   GuAABBTree.obj
 0001:0015bf40       ?mergeRuntimeNode@AABBTree@Gu@physx@@AEAAXAEAUBVHNode@23@AEBVAABBTreeMergeData@23@I@Z 000000018015cf40 f   GuAABBTree.obj
 0001:0015c260       ?mergeTree@AABBTree@Gu@physx@@QEAAXAEBVAABBTreeMergeData@23@@Z 000000018015d260 f   GuAABBTree.obj
 0001:0015c4f0       ?progressiveBuild@AABBTree@Gu@physx@@QEAAIAEBVAABBTreeBuildParams@23@AEAVNodeAllocator@23@AEAUBuildStats@23@II@Z 000000018015d4f0 f   GuAABBTree.obj
 0001:0015c7a0       ?refitMarkedNodes@BVHPartialRefitData@Gu@physx@@QEAAXPEBVPxBounds3@3@@Z 000000018015d7a0 f   GuAABBTree.obj
 0001:0015c910       ?release@AABBTree@Gu@physx@@QEAAX_N@Z 000000018015d910 f   GuAABBTree.obj
 0001:0015ca00       ?release@AABBTreeBounds@Gu@physx@@QEAAXXZ 000000018015da00 f   GuAABBTree.obj
 0001:0015ca50       ?release@NodeAllocator@Gu@physx@@QEAAXXZ 000000018015da50 f   GuAABBTree.obj
 0001:0015cb00       ?releasePartialRefitData@BVHPartialRefitData@Gu@physx@@QEAAX_N@Z 000000018015db00 f   GuAABBTree.obj
 0001:0015cb90       ?reshuffle@Gu@physx@@YAIIQEIAIPEIBV?$PxVec3T@M@2@MI@Z 000000018015db90 f   GuAABBTree.obj
 0001:0015ccd0       ?resize@?$PxArray@USlab@NodeAllocator@Gu@physx@@V?$PxReflectionAllocator@USlab@NodeAllocator@Gu@physx@@@4@@physx@@QEAAXIAEBUSlab@NodeAllocator@Gu@2@@Z 000000018015dcd0 f i GuAABBTree.obj
 0001:0015cd50       ?resize@AABBTreeBounds@Gu@physx@@QEAAXII@Z 000000018015dd50 f   GuAABBTree.obj
 0001:0015cdf0       ?shiftIndices@AABBTree@Gu@physx@@QEAAXI@Z 000000018015ddf0 f   GuAABBTree.obj
 0001:0015ce10       ?shiftOrigin@AABBTree@Gu@physx@@QEAAXAEBV?$PxVec3T@M@3@@Z 000000018015de10 f   GuAABBTree.obj
 0001:0015d180       ?subdivide@AABBTreeBuildNode@Gu@physx@@QEAAXAEBVAABBTreeBuildParams@23@AEAUBuildStats@23@AEAVNodeAllocator@23@QEAI@Z 000000018015e180 f   GuAABBTree.obj
 0001:0015d380       ?subdivideSAH@AABBTreeBuildNode@Gu@physx@@QEAAXAEBVAABBTreeBuildParams@23@AEAUSAH_Buffers@23@AEAUBuildStats@23@AEAVNodeAllocator@23@QEAI@Z 000000018015e380 f   GuAABBTree.obj
 0001:0015d470       ?traverseRuntimeNode@AABBTree@Gu@physx@@AEAAXAEAUBVHNode@23@AEBVAABBTreeMergeData@23@I@Z 000000018015e470 f   GuAABBTree.obj
 0001:0015d5b0       ?initMap@AABBTreeUpdateMap@Gu@physx@@QEAAXIAEBVAABBTree@23@@Z 000000018015e5b0 f   GuAABBTreeUpdateMap.obj
 0001:0015d740       ?invalidate@AABBTreeUpdateMap@Gu@physx@@QEAAXIIAEAVAABBTree@23@@Z 000000018015e740 f   GuAABBTreeUpdateMap.obj
 0001:0015d9e0       ?visualizeTree@@YAXAEAVPxRenderOutput@physx@@IPEBVAABBTree@Gu@2@@Z 000000018015e9e0 f   GuSqInternal.obj
 0001:0015da50       ?visualizeTree@@YAXAEAVPxRenderOutput@physx@@IPEBVBVH@Gu@2@@Z 000000018015ea50 f   GuSqInternal.obj
 0001:0015dac0       ?visualizeTree@@YAXAEAVPxRenderOutput@physx@@IPEBVIncrementalAABBTree@Gu@2@PEAVDebugVizCallback@2@@Z 000000018015eac0 f   GuSqInternal.obj
 0001:0015db40       ??$PxSort@PEAXU?$PxLess@PEAX@physx@@V?$PxReflectionAllocator@UAABBTreeIndices@Gu@physx@@@2@@physx@@YAXPEAPEAXIAEBU?$PxLess@PEAX@0@AEBV?$PxReflectionAllocator@UAABBTreeIndices@Gu@physx@@@0@I@Z 000000018015eb40 f i GuIncrementalAABBTree.obj
 0001:0015dfa0       ??$PxSort@PEAXU?$PxLess@PEAX@physx@@V?$PxReflectionAllocator@UIncrementalAABBTreeNodePair@Gu@physx@@@2@@physx@@YAXPEAPEAXIAEBU?$PxLess@PEAX@0@AEBV?$PxReflectionAllocator@UIncrementalAABBTreeNodePair@Gu@physx@@@0@I@Z 000000018015efa0 f i GuIncrementalAABBTree.obj
 0001:0015e400       ??0IncrementalAABBTree@Gu@physx@@QEAA@XZ 000000018015f400 f   GuIncrementalAABBTree.obj
 0001:0015e480       ??1?$PxPoolBase@UAABBTreeIndices@Gu@physx@@V?$PxReflectionAllocator@UAABBTreeIndices@Gu@physx@@@3@@physx@@QEAA@XZ 000000018015f480 f i GuIncrementalAABBTree.obj
 0001:0015e5e0       ??1?$PxPoolBase@UIncrementalAABBTreeNodePair@Gu@physx@@V?$PxReflectionAllocator@UIncrementalAABBTreeNodePair@Gu@physx@@@3@@physx@@QEAA@XZ 000000018015f5e0 f i GuIncrementalAABBTree.obj
 0001:0015e740       ??1IncrementalAABBTree@Gu@physx@@QEAA@XZ 000000018015f740 f   GuIncrementalAABBTree.obj
 0001:0015e780       ?allocate@?$PxArray@PEAXV?$PxReflectionAllocator@UAABBTreeIndices@Gu@physx@@@physx@@@physx@@IEAAPEAPEAXI@Z 000000018015f780 f i GuIncrementalAABBTree.obj
 0001:0015e810       ?allocate@?$PxArray@PEAXV?$PxReflectionAllocator@UIncrementalAABBTreeNodePair@Gu@physx@@@physx@@@physx@@IEAAPEAPEAXI@Z 000000018015f810 f i GuIncrementalAABBTree.obj
 0001:0015e8a0       ?allocate@?$PxPoolBase@UAABBTreeIndices@Gu@physx@@V?$PxReflectionAllocator@UAABBTreeIndices@Gu@physx@@@3@@physx@@QEAAPEAUAABBTreeIndices@Gu@2@XZ 000000018015f8a0 f i GuIncrementalAABBTree.obj
 0001:0015e990       ?allocate@?$PxPoolBase@UIncrementalAABBTreeNodePair@Gu@physx@@V?$PxReflectionAllocator@UIncrementalAABBTreeNodePair@Gu@physx@@@3@@physx@@QEAAPEAUIncrementalAABBTreeNodePair@Gu@2@XZ 000000018015f990 f i GuIncrementalAABBTree.obj
 0001:0015ea80       ?build@IncrementalAABBTree@Gu@physx@@QEAA_NAEBVAABBTreeBuildParams@23@AEAV?$PxArray@PEAVIncrementalAABBTreeNode@Gu@physx@@V?$PxReflectionAllocator@PEAVIncrementalAABBTreeNode@Gu@physx@@@3@@3@@Z 000000018015fa80 f   GuIncrementalAABBTree.obj
 0001:0015ec60       ?clone@IncrementalAABBTree@Gu@physx@@AEAAXAEAV?$PxArray@PEAVIncrementalAABBTreeNode@Gu@physx@@V?$PxReflectionAllocator@PEAVIncrementalAABBTreeNode@Gu@physx@@@3@@3@PEBIPEAPEAVIncrementalAABBTreeNode@23@@Z 000000018015fc60 f   GuIncrementalAABBTree.obj
 0001:0015f150       ?copy@IncrementalAABBTree@Gu@physx@@QEAAXAEBVBVH@23@AEAV?$PxArray@PEAVIncrementalAABBTreeNode@Gu@physx@@V?$PxReflectionAllocator@PEAVIncrementalAABBTreeNode@Gu@physx@@@3@@3@@Z 0000000180160150 f   GuIncrementalAABBTree.obj
 0001:0015f200       ?copyNode@IncrementalAABBTree@Gu@physx@@AEAAXAEAVIncrementalAABBTreeNode@23@AEBUBVHNode@23@PEBU523@PEAV423@PEBIAEAV?$PxArray@PEAVIncrementalAABBTreeNode@Gu@physx@@V?$PxReflectionAllocator@PEAVIncrementalAABBTreeNode@Gu@physx@@@3@@3@@Z 0000000180160200 f   GuIncrementalAABBTree.obj
 0001:0015f3c0       ?fixupTreeIndices@IncrementalAABBTree@Gu@physx@@QEAAXPEAVIncrementalAABBTreeNode@23@II@Z 00000001801603c0 f   GuIncrementalAABBTree.obj
 0001:0015f3f0       ?getTreeLeafDepth@IncrementalAABBTree@Gu@physx@@QEAAIPEAVIncrementalAABBTreeNode@23@@Z 00000001801603f0 f   GuIncrementalAABBTree.obj
 0001:0015f410       ?growAndPushBack@?$PxArray@PEAVIncrementalAABBTreeNode@Gu@physx@@V?$PxReflectionAllocator@PEAVIncrementalAABBTreeNode@Gu@physx@@@3@@physx@@IEAAAEAPEAVIncrementalAABBTreeNode@Gu@2@AEBQEAV342@@Z 0000000180160410 f i GuIncrementalAABBTree.obj
 0001:0015f530       ?growAndPushBack@?$PxArray@PEAXV?$PxReflectionAllocator@UAABBTreeIndices@Gu@physx@@@physx@@@physx@@IEAAAEAPEAXAEBQEAX@Z 0000000180160530 f i GuIncrementalAABBTree.obj
 0001:0015f5f0       ?growAndPushBack@?$PxArray@PEAXV?$PxReflectionAllocator@UIncrementalAABBTreeNodePair@Gu@physx@@@physx@@@physx@@IEAAAEAPEAXAEBQEAX@Z 00000001801605f0 f i GuIncrementalAABBTree.obj
 0001:0015f6b0       ?hierarchyCheck@IncrementalAABBTree@Gu@physx@@QEAAXIPEBVPxBounds3@3@@Z 00000001801606b0 f   GuIncrementalAABBTree.obj
 0001:0015f800       ?hierarchyCheck@IncrementalAABBTree@Gu@physx@@QEAAXPEBVPxBounds3@3@@Z 0000000180160800 f   GuIncrementalAABBTree.obj
 0001:0015f970       ?insert@IncrementalAABBTree@Gu@physx@@QEAAPEAVIncrementalAABBTreeNode@23@IPEBVPxBounds3@3@AEAV?$PxArray@PEAVIncrementalAABBTreeNode@Gu@physx@@V?$PxReflectionAllocator@PEAVIncrementalAABBTreeNode@Gu@physx@@@3@@3@@Z 0000000180160970 f   GuIncrementalAABBTree.obj
 0001:00160050       ?recreate@?$PxArray@PEAXV?$PxReflectionAllocator@UAABBTreeIndices@Gu@physx@@@physx@@@physx@@IEAAXI@Z 0000000180161050 f i GuIncrementalAABBTree.obj
 0001:001600f0       ?recreate@?$PxArray@PEAXV?$PxReflectionAllocator@UIncrementalAABBTreeNodePair@Gu@physx@@@physx@@@physx@@IEAAXI@Z 00000001801610f0 f i GuIncrementalAABBTree.obj
 0001:00160190       ?release@IncrementalAABBTree@Gu@physx@@QEAAXXZ 0000000180161190 f   GuIncrementalAABBTree.obj
 0001:001601c0       ?releaseNode@IncrementalAABBTree@Gu@physx@@AEAAXPEAVIncrementalAABBTreeNode@23@@Z 00000001801611c0 f   GuIncrementalAABBTree.obj
 0001:00160250       ?remove@IncrementalAABBTree@Gu@physx@@QEAAPEAVIncrementalAABBTreeNode@23@PEAV423@IPEBVPxBounds3@3@@Z 0000000180161250 f   GuIncrementalAABBTree.obj
 0001:00160570       ?rotateTree@IncrementalAABBTree@Gu@physx@@AEAAXPEAVIncrementalAABBTreeNode@23@AEAV?$PxArray@PEAVIncrementalAABBTreeNode@Gu@physx@@V?$PxReflectionAllocator@PEAVIncrementalAABBTreeNode@Gu@physx@@@3@@3@IPEBVPxBounds3@3@_N@Z 0000000180161570 f   GuIncrementalAABBTree.obj
 0001:00160ed0       ?shiftOrigin@IncrementalAABBTree@Gu@physx@@QEAAXAEBV?$PxVec3T@M@3@@Z 0000000180161ed0 f   GuIncrementalAABBTree.obj
 0001:00160f30       ?splitLeafNode@IncrementalAABBTree@Gu@physx@@AEAAPEAVIncrementalAABBTreeNode@23@PEAV423@IAEBT__m128@@1PEBVPxBounds3@3@@Z 0000000180161f30 f   GuIncrementalAABBTree.obj
 0001:00161220       ?update@IncrementalAABBTree@Gu@physx@@QEAAPEAVIncrementalAABBTreeNode@23@PEAV423@IPEBVPxBounds3@3@AEAV?$PxArray@PEAVIncrementalAABBTreeNode@Gu@physx@@V?$PxReflectionAllocator@PEAVIncrementalAABBTreeNode@Gu@physx@@@3@@3@@Z 0000000180162220 f   GuIncrementalAABBTree.obj
 0001:001612e0       ?updateFast@IncrementalAABBTree@Gu@physx@@QEAAPEAVIncrementalAABBTreeNode@23@PEAV423@IPEBVPxBounds3@3@AEAV?$PxArray@PEAVIncrementalAABBTreeNode@Gu@physx@@V?$PxReflectionAllocator@PEAVIncrementalAABBTreeNode@Gu@physx@@@3@@3@@Z 00000001801622e0 f   GuIncrementalAABBTree.obj
 0001:00161500       ??0SAH_Buffers@Gu@physx@@QEAA@I@Z 0000000180162500 f   GuSAH.obj
 0001:00161610       ??1SAH_Buffers@Gu@physx@@QEAA@XZ 0000000180162610 f   GuSAH.obj
 0001:001616e0       ?split@SAH_Buffers@Gu@physx@@QEAA_NAEAIIPEIBIPEIBVPxBounds3@3@PEIBV?$PxVec3T@M@3@@Z 00000001801626e0 f   GuSAH.obj
 0001:00161dc0       ??0BVH@Gu@physx@@QEAA@AEBUPxBVHInternalData@2@@Z 0000000180162dc0 f   GuBVH.obj
 0001:00161e80       ??0BVH@Gu@physx@@QEAA@PEAVMeshFactory@12@@Z 0000000180162e80 f   GuBVH.obj
 0001:00161ef0       ??0BVH@Gu@physx@@QEAA@PEAVMeshFactory@12@AEAVBVHData@12@@Z 0000000180162ef0 f   GuBVH.obj
 0001:00161fa0       ??1BVHData@Gu@physx@@QEAA@XZ 0000000180162fa0 f i GuBVH.obj
 0001:00165790       ??_EBVH@Gu@physx@@WBA@EAAPEAXI@Z 0000000180166790 f i GuBVH.obj
 0001:001657a0       ??_EBVH@Gu@physx@@UEAAPEAXI@Z 00000001801667a0 f i GuBVH.obj
 0001:001657a0       ??_GBVH@Gu@physx@@UEAAPEAXI@Z 00000001801667a0 f i GuBVH.obj
 0001:00165830       ??_ERefCountable@Cm@physx@@UEAAPEAXI@Z 0000000180166830 f i GuBVH.obj
 0001:00165830       ??_GRefCountable@Cm@physx@@UEAAPEAXI@Z 0000000180166830 f i GuBVH.obj
 0001:00165a60       ?allocate@?$PxArray@PEBUBVHNode@Gu@physx@@V?$PxInlineAllocator@$0IAA@V?$PxReflectionAllocator@PEBUBVHNode@Gu@physx@@@physx@@@3@@physx@@IEAAPEAPEBUBVHNode@Gu@2@I@Z 0000000180166a60 f i GuBVH.obj
 0001:00165b20       ?build@BVHData@Gu@physx@@QEAA_NIPEBXIMIW4BVHBuildStrategy@23@@Z 0000000180166b20 f   GuBVH.obj
 0001:00165f20       ?cull@BVH@Gu@physx@@UEBA_NIPEBVPxPlane@3@AEAUOverlapCallback@PxBVH@3@V?$PxFlags@W4Enum@PxGeometryQueryFlag@physx@@I@3@@Z 0000000180166f20 f   GuBVH.obj
 0001:00166860       ?getConcreteTypeName@PxBVH@physx@@UEBAPEBDXZ 0000000180167860 f i GuBVH.obj
 0001:00166870       ?init@BVH@Gu@physx@@QEAA_NIPEAVAABBTreeBounds@23@PEBXIW4BVHBuildStrategy@23@IM@Z 0000000180167870 f   GuBVH.obj
 0001:00166c80       ?isKindOf@PxBVH@physx@@MEBA_NPEBD@Z 0000000180167c80 f i GuBVH.obj
 0001:00166cd0       ?load@BVH@Gu@physx@@QEAA_NAEAVPxInputStream@3@@Z 0000000180167cd0 f   GuBVH.obj
 0001:00166e60       ?onRefCountZero@BVH@Gu@physx@@UEAAXXZ 0000000180167e60 f   GuBVH.obj
 0001:00166f40       ?onRefCountZero@RefCountable@Cm@physx@@UEAAXXZ 0000000180167f40 f i GuBVH.obj
 0001:00166f60       ?overlap@BVH@Gu@physx@@QEBA_NAEBVShapeData@23@AEAUOverlapCallback@PxBVH@3@V?$PxFlags@W4Enum@PxGeometryQueryFlag@physx@@I@3@@Z 0000000180167f60 f   GuBVH.obj
 0001:00167790       ?overlap@BVH@Gu@physx@@UEBA_NAEBVPxGeometry@3@AEBV?$PxTransformT@M@3@AEAUOverlapCallback@PxBVH@3@V?$PxFlags@W4Enum@PxGeometryQueryFlag@physx@@I@3@@Z 0000000180168790 f   GuBVH.obj
 0001:001677f0       ?partialRefit@BVH@Gu@physx@@UEAAXXZ 00000001801687f0 f   GuBVH.obj
 0001:00167800       ?raycast@BVH@Gu@physx@@UEBA_NAEBV?$PxVec3T@M@3@0MAEAURaycastCallback@PxBVH@3@V?$PxFlags@W4Enum@PxGeometryQueryFlag@physx@@I@3@@Z 0000000180168800 f   GuBVH.obj
 0001:00167930       ?recreate@?$PxArray@PEBUBVHNode@Gu@physx@@V?$PxInlineAllocator@$0IAA@V?$PxReflectionAllocator@PEBUBVHNode@Gu@physx@@@physx@@@3@@physx@@IEAAXI@Z 0000000180168930 f i GuBVH.obj
 0001:001679f0       ?refit@BVH@Gu@physx@@UEAAXXZ 00000001801689f0 f   GuBVH.obj
 0001:00167a00       ?release@BVH@Gu@physx@@UEAAXXZ 0000000180168a00 f   GuBVH.obj
 0001:00167a30       ?resizeUninitialized@?$PxArray@PEBUBVHNode@Gu@physx@@V?$PxInlineAllocator@$0IAA@V?$PxReflectionAllocator@PEBUBVHNode@Gu@physx@@@physx@@@3@@physx@@QEAAXI@Z 0000000180168a30 f i GuBVH.obj
 0001:00167a80       ?save@BVHData@Gu@physx@@QEBA_NAEAVPxOutputStream@3@_N@Z 0000000180168a80 f   GuBVH.obj
 0001:00167bf0       ?sweep@BVH@Gu@physx@@QEBA_NAEBVShapeData@23@AEBV?$PxVec3T@M@3@MAEAURaycastCallback@PxBVH@3@V?$PxFlags@W4Enum@PxGeometryQueryFlag@physx@@I@3@@Z 0000000180168bf0 f   GuBVH.obj
 0001:00167de0       ?sweep@BVH@Gu@physx@@UEBA_NAEBVPxGeometry@3@AEBV?$PxTransformT@M@3@AEBV?$PxVec3T@M@3@MAEAURaycastCallback@PxBVH@3@V?$PxFlags@W4Enum@PxGeometryQueryFlag@physx@@I@3@@Z 0000000180168de0 f   GuBVH.obj
 0001:00167e60       ?traverse@BVH@Gu@physx@@UEBA_NAEAUTraversalCallback@PxBVH@3@@Z 0000000180168e60 f   GuBVH.obj
 0001:00167fd0       ?updateBounds@BVH@Gu@physx@@UEAA_NIAEBVPxBounds3@3@@Z 0000000180168fd0 f   GuBVH.obj
 0001:00168080       ?updateBoundsInternal@BVH@Gu@physx@@QEAA_NIAEBVPxBounds3@3@@Z 0000000180169080 f   GuBVH.obj
 0001:00168130       PxFindOverlap              0000000180169130 f   GuBVH.obj
 0001:00168220       PxGetBVHInternalData       0000000180169220 f   GuBVH.obj
 0001:00168260       ??0IncrementalAABBPrunerCore@Gu@physx@@QEAA@PEBVPruningPool@12@@Z 0000000180169260 f   GuIncrementalAABBPrunerCore.obj
 0001:00168370       ??1IncrementalAABBPrunerCore@Gu@physx@@QEAA@XZ 0000000180169370 f   GuIncrementalAABBPrunerCore.obj
 0001:001684e0       ??R?$AABBTreeOverlap@$00U?$OBBAABBTests@$00@Gu@physx@@VIncrementalAABBTree@23@VIncrementalAABBTreeNode@23@UOverlapCallbackAdapter@23@@Gu@physx@@QEAA_NAEBVAABBTreeBounds@12@AEBVIncrementalAABBTree@12@AEBU?$OBBAABBTests@$00@12@AEAUOverlapCallbackAdapter@12@@Z 00000001801694e0 f i GuIncrementalAABBPrunerCore.obj
 0001:00168a80       ??R?$AABBTreeOverlap@$00UAABBAABBTest@Gu@physx@@VIncrementalAABBTree@23@VIncrementalAABBTreeNode@23@UOverlapCallbackAdapter@23@@Gu@physx@@QEAA_NAEBVAABBTreeBounds@12@AEBVIncrementalAABBTree@12@AEBUAABBAABBTest@12@AEAUOverlapCallbackAdapter@12@@Z 0000000180169a80 f i GuIncrementalAABBPrunerCore.obj
 0001:00168ce0       ??R?$AABBTreeOverlap@$00UCapsuleAABBTest@Gu@physx@@VIncrementalAABBTree@23@VIncrementalAABBTreeNode@23@UOverlapCallbackAdapter@23@@Gu@physx@@QEAA_NAEBVAABBTreeBounds@12@AEBVIncrementalAABBTree@12@AEBUCapsuleAABBTest@12@AEAUOverlapCallbackAdapter@12@@Z 0000000180169ce0 f i GuIncrementalAABBPrunerCore.obj
 0001:00169020       ??R?$AABBTreeRaycast@$00$00VIncrementalAABBTree@Gu@physx@@VIncrementalAABBTreeNode@23@URaycastCallbackAdapter@23@@Gu@physx@@QEAA_NAEBVAABBTreeBounds@12@AEBVIncrementalAABBTree@12@AEBV?$PxVec3T@M@2@2AEAM2AEAURaycastCallbackAdapter@12@@Z 000000018016a020 f i GuIncrementalAABBPrunerCore.obj
 0001:001696e0       ??R?$AABBTreeRaycast@$0A@$00VIncrementalAABBTree@Gu@physx@@VIncrementalAABBTreeNode@23@URaycastCallbackAdapter@23@@Gu@physx@@QEAA_NAEBVAABBTreeBounds@12@AEBVIncrementalAABBTree@12@AEBV?$PxVec3T@M@2@2AEAM2AEAURaycastCallbackAdapter@12@@Z 000000018016a6e0 f i GuIncrementalAABBPrunerCore.obj
 0001:00169d30       ?addObject@IncrementalAABBPrunerCore@Gu@physx@@QEAA_NII@Z 000000018016ad30 f   GuIncrementalAABBPrunerCore.obj
 0001:00169e20       ?allocate@?$PxArray@PEBVIncrementalAABBTreeNode@Gu@physx@@V?$PxInlineAllocator@$0IAA@V?$PxReflectionAllocator@PEBVIncrementalAABBTreeNode@Gu@physx@@@physx@@@3@@physx@@IEAAPEAPEBVIncrementalAABBTreeNode@Gu@2@I@Z 000000018016ae20 f i GuIncrementalAABBPrunerCore.obj
 0001:00169ee0       ?clear@?$PxHashMapBase@IPEAVIncrementalAABBTreeNode@Gu@physx@@U?$PxHash@I@3@VPxAllocator@3@@physx@@QEAAXXZ 000000018016aee0 f i GuIncrementalAABBPrunerCore.obj
 0001:00169ee0       ?clear@?$PxHashMapBase@UPrunerPayload@Gu@physx@@UExtendedBucketPrunerData@23@UExtendedBucketPrunerHash@23@VPxAllocator@3@@physx@@QEAAXXZ 000000018016aee0 f i GuExtendedBucketPruner.obj
 0001:00169f70       ?create@?$PxHashBase@V?$PxPair@$$CBIPEAVIncrementalAABBTreeNode@Gu@physx@@@physx@@IU?$PxHash@I@2@UGetKey@?$PxHashMapBase@IPEAVIncrementalAABBTreeNode@Gu@physx@@U?$PxHash@I@3@VPxAllocator@3@@2@VPxAllocator@2@$00@physx@@QEAAPEAV?$PxPair@$$CBIPEAVIncrementalAABBTreeNode@Gu@physx@@@2@AEBIAEA_N@Z 000000018016af70 f i GuIncrementalAABBPrunerCore.obj
 0001:0016a0c0       ?erase@?$PxHashBase@V?$PxPair@$$CBIPEAVIncrementalAABBTreeNode@Gu@physx@@@physx@@IU?$PxHash@I@2@UGetKey@?$PxHashMapBase@IPEAVIncrementalAABBTreeNode@Gu@physx@@U?$PxHash@I@3@VPxAllocator@3@@2@VPxAllocator@2@$00@physx@@QEAA_NAEBIAEAV?$PxPair@$$CBIPEAVIncrementalAABBTreeNode@Gu@physx@@@2@@Z 000000018016b0c0 f i GuIncrementalAABBPrunerCore.obj
 0001:0016a230       ?getCurrentWorldBoxes@PruningPool@Gu@physx@@QEAAPEAVPxBounds3@3@XZ 000000018016b230 f i GuIncrementalAABBPrunerCore.obj
 0001:0016a230       ?getCurrentWorldBoxes@PruningPool@Gu@physx@@QEBAPEBVPxBounds3@3@XZ 000000018016b230 f i GuIncrementalAABBPrunerCore.obj
 0001:0016a230       ?getMesh@CollisionTetrahedronMeshData@Gu@physx@@UEAAPEAVPxTetrahedronMeshData@3@XZ 000000018016b230 f i GuCookingTetrahedronMesh.obj
 0001:0016a230       ?getMesh@CollisionTetrahedronMeshData@Gu@physx@@UEBAPEBVPxTetrahedronMeshData@3@XZ 000000018016b230 f i GuCookingTetrahedronMesh.obj
 0001:0016a230       ?getMesh@SimulationTetrahedronMeshData@Gu@physx@@UEAAPEAVPxTetrahedronMeshData@3@XZ 000000018016b230 f i GuCookingTetrahedronMesh.obj
 0001:0016a240       ?getGlobalBounds@IncrementalAABBPrunerCore@Gu@physx@@QEBAXAEAVPxBounds3@3@@Z 000000018016b240 f   GuIncrementalAABBPrunerCore.obj
 0001:0016a370       ?getIndex@PruningPool@Gu@physx@@QEBAII@Z 000000018016b370 f i GuIncrementalAABBPrunerCore.obj
 0001:0016a380       ?getPayloadData@PruningPool@Gu@physx@@QEBAAEBUPrunerPayload@23@IPEAUPrunerPayloadData@23@@Z 000000018016b380 f i GuIncrementalAABBPrunerCore.obj
 0001:0016a3d0       ?overlap@IncrementalAABBPrunerCore@Gu@physx@@QEBA_NAEBVShapeData@23@AEAUPrunerOverlapCallback@23@@Z 000000018016b3d0 f   GuIncrementalAABBPrunerCore.obj
 0001:0016af20       ?raycast@IncrementalAABBPrunerCore@Gu@physx@@QEBA_NAEBV?$PxVec3T@M@3@0AEAMAEAUPrunerRaycastCallback@23@@Z 000000018016bf20 f   GuIncrementalAABBPrunerCore.obj
 0001:0016b000       ?recreate@?$PxArray@PEAVIncrementalAABBTreeNode@Gu@physx@@V?$PxReflectionAllocator@PEAVIncrementalAABBTreeNode@Gu@physx@@@3@@physx@@IEAAXI@Z 000000018016c000 f i GuIncrementalAABBPrunerCore.obj
 0001:0016b0f0       ?recreate@?$PxArray@PEBVIncrementalAABBTreeNode@Gu@physx@@V?$PxInlineAllocator@$0IAA@V?$PxReflectionAllocator@PEBVIncrementalAABBTreeNode@Gu@physx@@@physx@@@3@@physx@@IEAAXI@Z 000000018016c0f0 f i GuIncrementalAABBPrunerCore.obj
 0001:0016b1b0       ?release@IncrementalAABBPrunerCore@Gu@physx@@QEAAXXZ 000000018016c1b0 f   GuIncrementalAABBPrunerCore.obj
 0001:0016b2b0       ?removeMarkedObjects@IncrementalAABBPrunerCore@Gu@physx@@QEAAII@Z 000000018016c2b0 f   GuIncrementalAABBPrunerCore.obj
 0001:0016b310       ?removeObject@IncrementalAABBPrunerCore@Gu@physx@@QEAA_NIIAEAI@Z 000000018016c310 f   GuIncrementalAABBPrunerCore.obj
 0001:0016b520       ?reserveInternal@?$PxHashBase@V?$PxPair@$$CBIPEAVIncrementalAABBTreeNode@Gu@physx@@@physx@@IU?$PxHash@I@2@UGetKey@?$PxHashMapBase@IPEAVIncrementalAABBTreeNode@Gu@physx@@U?$PxHash@I@3@VPxAllocator@3@@2@VPxAllocator@2@$00@physx@@AEAAXI@Z 000000018016c520 f i GuIncrementalAABBPrunerCore.obj
 0001:0016b6e0       ?resizeUninitialized@?$PxArray@PEBVIncrementalAABBTreeNode@Gu@physx@@V?$PxInlineAllocator@$0IAA@V?$PxReflectionAllocator@PEBVIncrementalAABBTreeNode@Gu@physx@@@physx@@@3@@physx@@QEAAXI@Z 000000018016c6e0 f i GuIncrementalAABBPrunerCore.obj
 0001:0016b730       ?setTransform@PruningPool@Gu@physx@@QEAA_NIAEBV?$PxTransformT@M@3@@Z 000000018016c730 f i GuIncrementalAABBPrunerCore.obj
 0001:0016b790       ?shiftOrigin@IncrementalAABBPrunerCore@Gu@physx@@QEAAXAEBV?$PxVec3T@M@3@@Z 000000018016c790 f   GuIncrementalAABBPrunerCore.obj
 0001:0016b7e0       ?swapIndex@IncrementalAABBPrunerCore@Gu@physx@@QEAAXII@Z 000000018016c7e0 f   GuIncrementalAABBPrunerCore.obj
 0001:0016b8c0       ?sweep@IncrementalAABBPrunerCore@Gu@physx@@QEBA_NAEBVShapeData@23@AEBV?$PxVec3T@M@3@AEAMAEAUPrunerRaycastCallback@23@@Z 000000018016c8c0 f   GuIncrementalAABBPrunerCore.obj
 0001:0016ba70       ?updateMapping@IncrementalAABBPrunerCore@Gu@physx@@AEAAXAEAV?$PxHashMap@IPEAVIncrementalAABBTreeNode@Gu@physx@@U?$PxHash@I@3@VPxAllocator@3@@3@IPEAVIncrementalAABBTreeNode@23@@Z 000000018016ca70 f   GuIncrementalAABBPrunerCore.obj
 0001:0016bbc0       ?updateObject@IncrementalAABBPrunerCore@Gu@physx@@QEAA_NI@Z 000000018016cbc0 f   GuIncrementalAABBPrunerCore.obj
 0001:0016bd60       ?visualize@IncrementalAABBPrunerCore@Gu@physx@@QEBAXAEAVPxRenderOutput@3@I@Z 000000018016cd60 f   GuIncrementalAABBPrunerCore.obj
 0001:0016bdc0       ??0IncrementalAABBPruner@Gu@physx@@QEAA@I_K@Z 000000018016cdc0 f   GuIncrementalAABBPruner.obj
 0001:0016be70       ??R?$AABBTreeOverlap@$00USphereAABBTest@Gu@physx@@VIncrementalAABBTree@23@VIncrementalAABBTreeNode@23@UOverlapCallbackAdapter@23@@Gu@physx@@QEAA_NAEBVAABBTreeBounds@12@AEBVIncrementalAABBTree@12@AEBUSphereAABBTest@12@AEAUOverlapCallbackAdapter@12@@Z 000000018016ce70 f i GuIncrementalAABBPruner.obj
 0001:0016c140       ??_EBasePruner@Gu@physx@@UEAAPEAXI@Z 000000018016d140 f i GuIncrementalAABBPruner.obj
 0001:0016c140       ??_GBasePruner@Gu@physx@@UEAAPEAXI@Z 000000018016d140 f i GuIncrementalAABBPruner.obj
 0001:0016c190       ??_EIncrementalAABBPruner@Gu@physx@@UEAAPEAXI@Z 000000018016d190 f i GuIncrementalAABBPruner.obj
 0001:0016c190       ??_GIncrementalAABBPruner@Gu@physx@@UEAAPEAXI@Z 000000018016d190 f i GuIncrementalAABBPruner.obj
 0001:0016c2a0       ?addObjects@IncrementalAABBPruner@Gu@physx@@UEAA_NPEAIPEBVPxBounds3@3@PEBUPrunerPayload@23@PEBV?$PxTransformT@M@3@I_N@Z 000000018016d2a0 f   GuIncrementalAABBPruner.obj
 0001:0016c440       ?commit@IncrementalAABBPruner@Gu@physx@@UEAAXXZ 000000018016d440 f   GuIncrementalAABBPruner.obj
 0001:0016c590       ?getGlobalBounds@IncrementalAABBPruner@Gu@physx@@UEBAXAEAVPxBounds3@3@@Z 000000018016d590 f   GuIncrementalAABBPruner.obj
 0001:0016c600       ?getPayloadData@IncrementalAABBPruner@Gu@physx@@UEBAAEBUPrunerPayload@23@IPEAUPrunerPayloadData@23@@Z 000000018016d600 f i GuIncrementalAABBPruner.obj
 0001:0016c650       ?overlap@IncrementalAABBPruner@Gu@physx@@UEBA_NAEBVShapeData@23@AEAUPrunerOverlapCallback@23@@Z 000000018016d650 f   GuIncrementalAABBPruner.obj
 0001:0016cd60       ?preallocate@IncrementalAABBPruner@Gu@physx@@UEAAXI@Z 000000018016dd60 f i GuIncrementalAABBPruner.obj
 0001:0016cd70       ?purge@IncrementalAABBPruner@Gu@physx@@UEAAXXZ 000000018016dd70 f   GuIncrementalAABBPruner.obj
 0001:0016cdc0       ?raycast@IncrementalAABBPruner@Gu@physx@@UEBA_NAEBV?$PxVec3T@M@3@0AEAMAEAUPrunerRaycastCallback@23@@Z 000000018016ddc0 f   GuIncrementalAABBPruner.obj
 0001:0016ce40       ?removeObjects@IncrementalAABBPruner@Gu@physx@@UEAAXPEBIIPEAUPrunerPayloadRemovalCallback@23@@Z 000000018016de40 f   GuIncrementalAABBPruner.obj
 0001:0016cf90       ?resize@?$PxArray@PEAVIncrementalAABBTreeNode@Gu@physx@@V?$PxReflectionAllocator@PEAVIncrementalAABBTreeNode@Gu@physx@@@3@@physx@@QEAAXIAEBQEAVIncrementalAABBTreeNode@Gu@2@@Z 000000018016df90 f i GuIncrementalAABBPruner.obj
 0001:0016d050       ?resizeUninitialized@?$PxArray@PEAVIncrementalAABBTreeNode@Gu@physx@@V?$PxReflectionAllocator@PEAVIncrementalAABBTreeNode@Gu@physx@@@3@@physx@@QEAAXI@Z 000000018016e050 f i GuIncrementalAABBPruner.obj
 0001:0016d090       ?setTransform@IncrementalAABBPruner@Gu@physx@@UEAA_NIAEBV?$PxTransformT@M@3@@Z 000000018016e090 f i GuIncrementalAABBPruner.obj
 0001:0016d0f0       ?shiftOrigin@IncrementalAABBPruner@Gu@physx@@UEAAXAEBV?$PxVec3T@M@3@@Z 000000018016e0f0 f   GuIncrementalAABBPruner.obj
 0001:0016d130       ?sweep@IncrementalAABBPruner@Gu@physx@@UEBA_NAEBVShapeData@23@AEBV?$PxVec3T@M@3@AEAMAEAUPrunerRaycastCallback@23@@Z 000000018016e130 f   GuIncrementalAABBPruner.obj
 0001:0016d250       ?updateObjects@IncrementalAABBPruner@Gu@physx@@UEAAXPEBIIM0PEBVPxBounds3@3@PEBUPxTransformPadded@3@@Z 000000018016e250 f   GuIncrementalAABBPruner.obj
 0001:0016d420       ?visualize@IncrementalAABBPruner@Gu@physx@@UEBAXAEAVPxRenderOutput@3@II@Z 000000018016e420 f   GuIncrementalAABBPruner.obj
 0001:0016d610       ??0PruningPool@Gu@physx@@QEAA@_KW4TransformCacheMode@12@@Z 000000018016e610 f   GuPruningPool.obj
 0001:0016d640       ??1PruningPool@Gu@physx@@QEAA@XZ 000000018016e640 f   GuPruningPool.obj
 0001:0016d710       ?addObjects@PruningPool@Gu@physx@@QEAAIPEAIPEBVPxBounds3@3@PEBUPrunerPayload@23@PEBV?$PxTransformT@M@3@I@Z 000000018016e710 f   GuPruningPool.obj
 0001:0016d8c0       ?preallocate@PruningPool@Gu@physx@@QEAAXI@Z 000000018016e8c0 f   GuPruningPool.obj
 0001:0016d8d0       ?removeObject@PruningPool@Gu@physx@@QEAAIIPEAUPrunerPayloadRemovalCallback@23@@Z 000000018016e8d0 f   GuPruningPool.obj
 0001:0016da10       ?resize@PruningPool@Gu@physx@@QEAA_NI@Z 000000018016ea10 f   GuPruningPool.obj
 0001:0016dcf0       ?shiftOrigin@PruningPool@Gu@physx@@QEAAXAEBV?$PxVec3T@M@3@@Z 000000018016ecf0 f   GuPruningPool.obj
 0001:0016e0c0       ?updateAndInflateBounds@PruningPool@Gu@physx@@QEAAXPEBI0PEBVPxBounds3@3@PEBUPxTransformPadded@3@IM@Z 000000018016f0c0 f   GuPruningPool.obj
 0001:0016fae0       ??0BucketPruner@Gu@physx@@QEAA@_K@Z 0000000180170ae0 f   GuBucketPruner.obj
 0001:0016fb30       ??0BucketPrunerCore@Gu@physx@@QEAA@_N@Z 0000000180170b30 f   GuBucketPruner.obj
 0001:0016feb0       ??1BucketPrunerCore@Gu@physx@@QEAA@XZ 0000000180170eb0 f   GuBucketPruner.obj
 0001:0016fed0       ??R?$BucketPrunerOverlapTraversal@UBucketPrunerAABBAABBTest@@$00@@QEBA_NAEBVBucketPrunerCore@Gu@physx@@AEBUBucketPrunerAABBAABBTest@@AEAUPrunerOverlapCallback@23@AEBVPxBounds3@3@@Z 0000000180170ed0 f i GuBucketPruner.obj
 0001:00170490       ??R?$BucketPrunerOverlapTraversal@UOBBAABBTest_SIMD@@$0A@@@QEBA_NAEBVBucketPrunerCore@Gu@physx@@AEBUOBBAABBTest_SIMD@@AEAUPrunerOverlapCallback@23@AEBVPxBounds3@3@@Z 0000000180171490 f i GuBucketPruner.obj
 0001:00170d10       ??R?$BucketPrunerOverlapTraversal@USphereAABBTest_SIMD@@$00@@QEBA_NAEBVBucketPrunerCore@Gu@physx@@AEBUSphereAABBTest_SIMD@@AEAUPrunerOverlapCallback@23@AEBVPxBounds3@3@@Z 0000000180171d10 f i GuBucketPruner.obj
 0001:001712f0       ??_FBucketPrunerCore@Gu@physx@@QEAAXXZ 00000001801722f0 f i GuBucketPruner.obj
 0001:00171300       ??_EBucketPruner@Gu@physx@@UEAAPEAXI@Z 0000000180172300 f i GuBucketPruner.obj
 0001:00171300       ??_GBucketPruner@Gu@physx@@UEAAPEAXI@Z 0000000180172300 f i GuBucketPruner.obj
 0001:001713a0       ?addObject@BucketPrunerCore@Gu@physx@@QEAA_NAEBUPrunerPayload@23@AEBVPxBounds3@3@AEBV?$PxTransformT@M@3@I@Z 00000001801723a0 f   GuBucketPruner.obj
 0001:001716b0       ?addObjects@BucketPruner@Gu@physx@@UEAA_NPEAIPEBVPxBounds3@3@PEBUPrunerPayload@23@PEBV?$PxTransformT@M@3@I_N@Z 00000001801726b0 f   GuBucketPruner.obj
 0001:00171740       ?addPair@BucketPrunerMap@Gu@physx@@QEAAPEAUBucketPrunerPair@23@AEBUPrunerPayload@23@II@Z 0000000180172740 f   GuBucketPruner.obj
 0001:00171940       ?allocateSortedMemory@BucketPrunerCore@Gu@physx@@AEAAXI@Z 0000000180172940 f   GuBucketPruner.obj
 0001:00171b00       ?classifyBoxes@BucketPrunerCore@Gu@physx@@AEAAXXZ 0000000180172b00 f   GuBucketPruner.obj
 0001:001722f0       ?classifyBoxes@BucketPrunerNode@Gu@physx@@QEAAXMMIPEIAUBucketBox@23@PEIBUPrunerPayload@23@PEIBV?$PxTransformT@M@3@0PEIAU523@PEIAV63@_NI@Z 00000001801732f0 f   GuBucketPruner.obj
 0001:00172b70       ?build@CompanionPrunerBucket@@UEAAXXZ 0000000180173b70 f   GuSecondaryPruner.obj
 0001:00172b70       ?commit@BucketPruner@Gu@physx@@UEAAXXZ 0000000180173b70 f   GuBucketPruner.obj
 0001:00172b80       ?findPair@BucketPrunerMap@Gu@physx@@QEBAPEBUBucketPrunerPair@23@AEBUPrunerPayload@23@@Z 0000000180173b80 f   GuBucketPruner.obj
 0001:00172f70       ?getGlobalBounds@BucketPruner@Gu@physx@@UEBAXAEAVPxBounds3@3@@Z 0000000180173f70 f   GuBucketPruner.obj
 0001:00172ff0       ?getGlobalBounds@BucketPrunerCore@Gu@physx@@QEBAXAEAVPxBounds3@3@@Z 0000000180173ff0 f   GuBucketPruner.obj
 0001:00173070       ?getPayloadData@BucketPruner@Gu@physx@@UEBAAEBUPrunerPayload@23@IPEAUPrunerPayloadData@23@@Z 0000000180174070 f i GuBucketPruner.obj
 0001:001730d0       ?overlap@BucketPruner@Gu@physx@@UEBA_NAEBVShapeData@23@AEAUPrunerOverlapCallback@23@@Z 00000001801740d0 f   GuBucketPruner.obj
 0001:001730f0       ?overlap@BucketPrunerCore@Gu@physx@@QEBA_NAEBVShapeData@23@AEAUPrunerOverlapCallback@23@@Z 00000001801740f0 f   GuBucketPruner.obj
 0001:001733d0       ?preallocate@BucketPruner@Gu@physx@@UEAAXI@Z 00000001801743d0 f i GuBucketPruner.obj
 0001:001735b0       ?purge@BucketPrunerMap@Gu@physx@@QEAAXXZ 00000001801745b0 f   GuBucketPruner.obj
 0001:00173640       ?raycast@BucketPruner@Gu@physx@@UEBA_NAEBV?$PxVec3T@M@3@0AEAMAEAUPrunerRaycastCallback@23@@Z 0000000180174640 f   GuBucketPruner.obj
 0001:00173690       ?raycast@BucketPrunerCore@Gu@physx@@QEBA_NAEBV?$PxVec3T@M@3@0AEAMAEAUPrunerRaycastCallback@23@@Z 0000000180174690 f   GuBucketPruner.obj
 0001:001736d0       ?reallocPairs@BucketPrunerMap@Gu@physx@@QEAAXXZ 00000001801746d0 f   GuBucketPruner.obj
 0001:00173910       ?release@BucketPrunerCore@Gu@physx@@QEAAXXZ 0000000180174910 f   GuBucketPruner.obj
 0001:00173a50       ?removeMarkedObjects@BucketPrunerCore@Gu@physx@@QEAAII@Z 0000000180174a50 f   GuBucketPruner.obj
 0001:00173e20       ?removeObject@BucketPrunerCore@Gu@physx@@QEAA_NAEBUPrunerPayload@23@AEAI@Z 0000000180174e20 f   GuBucketPruner.obj
 0001:001740e0       ?removeObjects@BucketPruner@Gu@physx@@UEAAXPEBIIPEAUPrunerPayloadRemovalCallback@23@@Z 00000001801750e0 f   GuBucketPruner.obj
 0001:00174190       ?removePair@BucketPrunerMap@Gu@physx@@QEAA_NAEBUPrunerPayload@23@AEAI1@Z 0000000180175190 f   GuBucketPruner.obj
 0001:00174310       ?removePairInternal@BucketPrunerMap@Gu@physx@@QEAAXAEBUPrunerPayload@23@II@Z 0000000180175310 f   GuBucketPruner.obj
 0001:001744a0       ?resizeCore@BucketPrunerCore@Gu@physx@@AEAAXXZ 00000001801754a0 f   GuBucketPruner.obj
 0001:001746f0       ?setTransform@BucketPruner@Gu@physx@@UEAA_NIAEBV?$PxTransformT@M@3@@Z 00000001801756f0 f i GuBucketPruner.obj
 0001:00174750       ?shiftOrigin@BucketPruner@Gu@physx@@UEAAXAEBV?$PxVec3T@M@3@@Z 0000000180175750 f   GuBucketPruner.obj
 0001:00174750       ?shiftOrigin@CompanionPrunerBucket@@UEAAXAEBV?$PxVec3T@M@physx@@@Z 0000000180175750 f   GuSecondaryPruner.obj
 0001:00174760       ?shiftOrigin@BucketPrunerCore@Gu@physx@@QEAAXAEBV?$PxVec3T@M@3@@Z 0000000180175760 f   GuBucketPruner.obj
 0001:00175590       ?sweep@BucketPruner@Gu@physx@@UEBA_NAEBVShapeData@23@AEBV?$PxVec3T@M@3@AEAMAEAUPrunerRaycastCallback@23@@Z 0000000180176590 f   GuBucketPruner.obj
 0001:001755b0       ?sweep@BucketPrunerCore@Gu@physx@@QEBA_NAEBVShapeData@23@AEBV?$PxVec3T@M@3@AEAMAEAUPrunerRaycastCallback@23@@Z 00000001801765b0 f   GuBucketPruner.obj
 0001:00175680       ?updateObject@BucketPrunerCore@Gu@physx@@QEAA_NAEBVPxBounds3@3@AEBUPrunerPayload@23@AEBV?$PxTransformT@M@3@@Z 0000000180176680 f   GuBucketPruner.obj
 0001:001756e0       ?updateObjects@BucketPruner@Gu@physx@@UEAAXPEBIIM0PEBVPxBounds3@3@PEBUPxTransformPadded@3@@Z 00000001801766e0 f   GuBucketPruner.obj
 0001:001757f0       ?visualize@BucketPruner@Gu@physx@@UEBAXAEAVPxRenderOutput@3@II@Z 00000001801767f0 f   GuBucketPruner.obj
 0001:001757f0       ?visualize@CompanionPrunerBucket@@UEBAXAEAVPxRenderOutput@physx@@I@Z 00000001801767f0 f   GuSecondaryPruner.obj
 0001:00175800       ?visualize@BucketPrunerCore@Gu@physx@@QEBAXAEAVPxRenderOutput@3@I@Z 0000000180176800 f   GuBucketPruner.obj
 0001:00175b20       ?addObject@MaverickNode@Gu@physx@@QEAA_NAEBUPrunerPayload@23@IAEBVPxBounds3@3@AEBV?$PxTransformT@M@3@I@Z 0000000180176b20 f   GuMaverickNode.obj
 0001:00175c00       ?removeMarkedObjects@MaverickNode@Gu@physx@@QEAAII@Z 0000000180176c00 f   GuMaverickNode.obj
 0001:00175d90       ?removeObject@MaverickNode@Gu@physx@@QEAA_NIAEAI@Z 0000000180176d90 f   GuMaverickNode.obj
 0001:00175f20       ?shiftOrigin@MaverickNode@Gu@physx@@QEAAXAEBV?$PxVec3T@M@3@@Z 0000000180176f20 f   GuMaverickNode.obj
 0001:00176010       ?updateObject@MaverickNode@Gu@physx@@QEAA_NIAEBVPxBounds3@3@AEBV?$PxTransformT@M@3@@Z 0000000180177010 f   GuMaverickNode.obj
 0001:001760f0       ??0ExtendedBucketPruner@Gu@physx@@QEAA@_KW4CompanionPrunerType@12@PEBVPruningPool@12@@Z 00000001801770f0 f   GuExtendedBucketPruner.obj
 0001:00176320       ??1ExtendedBucketPruner@Gu@physx@@QEAA@XZ 0000000180177320 f   GuExtendedBucketPruner.obj
 0001:00176490       ??R?$AABBTreeOverlap@$00U?$OBBAABBTests@$00@Gu@physx@@VAABBTree@23@UBVHNode@23@U?$MainTreeOverlapPrunerCallback@U?$OBBAABBTests@$00@Gu@physx@@@@@Gu@physx@@QEAA_NAEBVAABBTreeBounds@12@AEBVAABBTree@12@AEBU?$OBBAABBTests@$00@12@AEAU?$MainTreeOverlapPrunerCallback@U?$OBBAABBTests@$00@Gu@physx@@@@@Z 0000000180177490 f i GuExtendedBucketPruner.obj
 0001:00176a70       ??R?$AABBTreeOverlap@$00U?$OBBAABBTests@$00@Gu@physx@@VAABBTree@23@UBVHNode@23@UOverlapCallbackAdapter@23@@Gu@physx@@QEAA_NAEBVAABBTreeBounds@12@AEBVAABBTree@12@AEBU?$OBBAABBTests@$00@12@AEAUOverlapCallbackAdapter@12@@Z 0000000180177a70 f i GuExtendedBucketPruner.obj
 0001:00177030       ??R?$AABBTreeOverlap@$00UAABBAABBTest@Gu@physx@@VAABBTree@23@UBVHNode@23@U?$MainTreeOverlapPrunerCallback@UAABBAABBTest@Gu@physx@@@@@Gu@physx@@QEAA_NAEBVAABBTreeBounds@12@AEBVAABBTree@12@AEBUAABBAABBTest@12@AEAU?$MainTreeOverlapPrunerCallback@UAABBAABBTest@Gu@physx@@@@@Z 0000000180178030 f i GuExtendedBucketPruner.obj
 0001:001772d0       ??R?$AABBTreeOverlap@$00UAABBAABBTest@Gu@physx@@VAABBTree@23@UBVHNode@23@UOverlapCallbackAdapter@23@@Gu@physx@@QEAA_NAEBVAABBTreeBounds@12@AEBVAABBTree@12@AEBUAABBAABBTest@12@AEAUOverlapCallbackAdapter@12@@Z 00000001801782d0 f i GuExtendedBucketPruner.obj
 0001:00177560       ??R?$AABBTreeOverlap@$00UCapsuleAABBTest@Gu@physx@@VAABBTree@23@UBVHNode@23@U?$MainTreeOverlapPrunerCallback@UCapsuleAABBTest@Gu@physx@@@@@Gu@physx@@QEAA_NAEBVAABBTreeBounds@12@AEBVAABBTree@12@AEBUCapsuleAABBTest@12@AEAU?$MainTreeOverlapPrunerCallback@UCapsuleAABBTest@Gu@physx@@@@@Z 0000000180178560 f i GuExtendedBucketPruner.obj
 0001:00177900       ??R?$AABBTreeOverlap@$00UCapsuleAABBTest@Gu@physx@@VAABBTree@23@UBVHNode@23@UOverlapCallbackAdapter@23@@Gu@physx@@QEAA_NAEBVAABBTreeBounds@12@AEBVAABBTree@12@AEBUCapsuleAABBTest@12@AEAUOverlapCallbackAdapter@12@@Z 0000000180178900 f i GuExtendedBucketPruner.obj
 0001:00177c90       ??R?$AABBTreeOverlap@$00USphereAABBTest@Gu@physx@@VAABBTree@23@UBVHNode@23@U?$MainTreeOverlapPrunerCallback@USphereAABBTest@Gu@physx@@@@@Gu@physx@@QEAA_NAEBVAABBTreeBounds@12@AEBVAABBTree@12@AEBUSphereAABBTest@12@AEAU?$MainTreeOverlapPrunerCallback@USphereAABBTest@Gu@physx@@@@@Z 0000000180178c90 f i GuExtendedBucketPruner.obj
 0001:00177fa0       ??R?$AABBTreeOverlap@$00USphereAABBTest@Gu@physx@@VAABBTree@23@UBVHNode@23@UOverlapCallbackAdapter@23@@Gu@physx@@QEAA_NAEBVAABBTreeBounds@12@AEBVAABBTree@12@AEBUSphereAABBTest@12@AEAUOverlapCallbackAdapter@12@@Z 0000000180178fa0 f i GuExtendedBucketPruner.obj
 0001:00178290       ??R?$AABBTreeRaycast@$00$00VAABBTree@Gu@physx@@UBVHNode@23@U?$MainTreeRaycastPrunerCallback@$00@@@Gu@physx@@QEAA_NAEBVAABBTreeBounds@12@AEBVAABBTree@12@AEBV?$PxVec3T@M@2@2AEAM2AEAU?$MainTreeRaycastPrunerCallback@$00@@@Z 0000000180179290 f i GuExtendedBucketPruner.obj
 0001:001789b0       ??R?$AABBTreeRaycast@$00$00VAABBTree@Gu@physx@@UBVHNode@23@URaycastCallbackAdapter@23@@Gu@physx@@QEAA_NAEBVAABBTreeBounds@12@AEBVAABBTree@12@AEBV?$PxVec3T@M@2@2AEAM2AEAURaycastCallbackAdapter@12@@Z 00000001801799b0 f i GuExtendedBucketPruner.obj
 0001:00179090       ??R?$AABBTreeRaycast@$0A@$00VAABBTree@Gu@physx@@UBVHNode@23@U?$MainTreeRaycastPrunerCallback@$0A@@@@Gu@physx@@QEAA_NAEBVAABBTreeBounds@12@AEBVAABBTree@12@AEBV?$PxVec3T@M@2@2AEAM2AEAU?$MainTreeRaycastPrunerCallback@$0A@@@@Z 000000018017a090 f i GuExtendedBucketPruner.obj
 0001:00179750       ??R?$AABBTreeRaycast@$0A@$00VAABBTree@Gu@physx@@UBVHNode@23@URaycastCallbackAdapter@23@@Gu@physx@@QEAA_NAEBVAABBTreeBounds@12@AEBVAABBTree@12@AEBV?$PxVec3T@M@2@2AEAM2AEAURaycastCallbackAdapter@12@@Z 000000018017a750 f i GuExtendedBucketPruner.obj
 0001:00179dd0       ?addTree@ExtendedBucketPruner@Gu@physx@@QEAAXAEBVAABBTreeMergeData@23@I@Z 000000018017add0 f   GuExtendedBucketPruner.obj
 0001:0017a0a0       ?buildMainAABBTree@ExtendedBucketPruner@Gu@physx@@AEAAXXZ 000000018017b0a0 f   GuExtendedBucketPruner.obj
 0001:0017a150       ?create@?$PxHashBase@V?$PxPair@$$CBUPrunerPayload@Gu@physx@@UExtendedBucketPrunerData@23@@physx@@UPrunerPayload@Gu@2@UExtendedBucketPrunerHash@42@UGetKey@?$PxHashMapBase@UPrunerPayload@Gu@physx@@UExtendedBucketPrunerData@23@UExtendedBucketPrunerHash@23@VPxAllocator@3@@2@VPxAllocator@2@$00@physx@@QEAAPEAV?$PxPair@$$CBUPrunerPayload@Gu@physx@@UExtendedBucketPrunerData@23@@2@AEBUPrunerPayload@Gu@2@AEA_N@Z 000000018017b150 f i GuExtendedBucketPruner.obj
 0001:0017a320       ?eraseInternal@?$PxHashBase@V?$PxPair@$$CBUPrunerPayload@Gu@physx@@UExtendedBucketPrunerData@23@@physx@@UPrunerPayload@Gu@2@UExtendedBucketPrunerHash@42@UGetKey@?$PxHashMapBase@UPrunerPayload@Gu@physx@@UExtendedBucketPrunerData@23@UExtendedBucketPrunerHash@23@VPxAllocator@3@@2@VPxAllocator@2@$00@physx@@AEAA_NPEAI@Z 000000018017b320 f i GuExtendedBucketPruner.obj
 0001:0017a440       ?find@?$PxHashMapBase@UPrunerPayload@Gu@physx@@UExtendedBucketPrunerData@23@UExtendedBucketPrunerHash@23@VPxAllocator@3@@physx@@QEBAPEBV?$PxPair@$$CBUPrunerPayload@Gu@physx@@UExtendedBucketPrunerData@23@@2@AEBUPrunerPayload@Gu@2@@Z 000000018017b440 f i GuExtendedBucketPruner.obj
 0001:0017a530       ?getGlobalBounds@ExtendedBucketPruner@Gu@physx@@QEBAXAEAVPxBounds3@3@@Z 000000018017b530 f   GuExtendedBucketPruner.obj
 0001:0017a600       ?invalidateObject@ExtendedBucketPruner@Gu@physx@@AEAAXAEBUExtendedBucketPrunerData@23@IAEBUPrunerPayload@23@I@Z 000000018017b600 f   GuExtendedBucketPruner.obj
 0001:0017a740       ?overlap@ExtendedBucketPruner@Gu@physx@@QEBA_NAEBVShapeData@23@AEAUPrunerOverlapCallback@23@@Z 000000018017b740 f   GuExtendedBucketPruner.obj
 0001:0017af20       ?raycast@ExtendedBucketPruner@Gu@physx@@QEBA_NAEBV?$PxVec3T@M@3@0AEAMAEAUPrunerRaycastCallback@23@@Z 000000018017bf20 f   GuExtendedBucketPruner.obj
 0001:0017b000       ?refitMarkedNodes@ExtendedBucketPruner@Gu@physx@@QEAAXPEBVPxBounds3@3@@Z 000000018017c000 f   GuExtendedBucketPruner.obj
 0001:0017b580       ?release@ExtendedBucketPruner@Gu@physx@@QEAAXXZ 000000018017c580 f   GuExtendedBucketPruner.obj
 0001:0017b650       ?removeMarkedObjects@ExtendedBucketPruner@Gu@physx@@QEAAII@Z 000000018017c650 f   GuExtendedBucketPruner.obj
 0001:0017b970       ?removeObject@ExtendedBucketPruner@Gu@physx@@QEAA_NAEBUPrunerPayload@23@II0I@Z 000000018017c970 f   GuExtendedBucketPruner.obj
 0001:0017bb60       ?reserveInternal@?$PxHashBase@V?$PxPair@$$CBUPrunerPayload@Gu@physx@@UExtendedBucketPrunerData@23@@physx@@UPrunerPayload@Gu@2@UExtendedBucketPrunerHash@42@UGetKey@?$PxHashMapBase@UPrunerPayload@Gu@physx@@UExtendedBucketPrunerData@23@UExtendedBucketPrunerHash@23@VPxAllocator@3@@2@VPxAllocator@2@$00@physx@@AEAAXI@Z 000000018017cb60 f i GuExtendedBucketPruner.obj
 0001:0017bd60       ?shiftOrigin@ExtendedBucketPruner@Gu@physx@@QEAAXAEBV?$PxVec3T@M@3@@Z 000000018017cd60 f   GuExtendedBucketPruner.obj
 0001:0017bde0       ?swapIndex@ExtendedBucketPruner@Gu@physx@@QEAAXIAEBUPrunerPayload@23@I_N@Z 000000018017cde0 f   GuExtendedBucketPruner.obj
 0001:0017beb0       ?sweep@ExtendedBucketPruner@Gu@physx@@QEBA_NAEBVShapeData@23@AEBV?$PxVec3T@M@3@AEAMAEAUPrunerRaycastCallback@23@@Z 000000018017ceb0 f   GuExtendedBucketPruner.obj
 0001:0017c040       ?updateObject@ExtendedBucketPruner@Gu@physx@@QEAA_NAEBVPxBounds3@3@AEBV?$PxTransformT@M@3@AEBUPrunerPayload@23@II@Z 000000018017d040 f   GuExtendedBucketPruner.obj
 0001:0017c110       ?visualize@ExtendedBucketPruner@Gu@physx@@QEBAXAEAVPxRenderOutput@3@I@Z 000000018017d110 f   GuExtendedBucketPruner.obj
 0001:0017c1a0       ??0?$OBBAABBTests@$00@Gu@physx@@QEAA@AEBV?$PxVec3T@M@2@AEBV?$PxMat33T@M@2@0@Z 000000018017d1a0 f i GuSecondaryPruner.obj
 0001:0017e0f0       ??_ECompanionPruner@Gu@physx@@UEAAPEAXI@Z 000000018017f0f0 f i GuSecondaryPruner.obj
 0001:0017e0f0       ??_GCompanionPruner@Gu@physx@@UEAAPEAXI@Z 000000018017f0f0 f i GuSecondaryPruner.obj
 0001:0017e140       ??_ECompanionPrunerAABBTree@@UEAAPEAXI@Z 000000018017f140 f i GuSecondaryPruner.obj
 0001:0017e140       ??_GCompanionPrunerAABBTree@@UEAAPEAXI@Z 000000018017f140 f i GuSecondaryPruner.obj
 0001:0017e1f0       ??_ECompanionPrunerBucket@@UEAAPEAXI@Z 000000018017f1f0 f i GuSecondaryPruner.obj
 0001:0017e1f0       ??_GCompanionPrunerBucket@@UEAAPEAXI@Z 000000018017f1f0 f i GuSecondaryPruner.obj
 0001:0017e270       ??_ECompanionPrunerIncremental@@UEAAPEAXI@Z 000000018017f270 f i GuSecondaryPruner.obj
 0001:0017e270       ??_GCompanionPrunerIncremental@@UEAAPEAXI@Z 000000018017f270 f i GuSecondaryPruner.obj
 0001:0017e2f0       ?addObject@CompanionPrunerAABBTree@@UEAA_NAEBUPrunerPayload@Gu@physx@@IAEBVPxBounds3@4@AEBV?$PxTransformT@M@4@II@Z 000000018017f2f0 f   GuSecondaryPruner.obj
 0001:0017e530       ?addObject@CompanionPrunerBucket@@UEAA_NAEBUPrunerPayload@Gu@physx@@IAEBVPxBounds3@4@AEBV?$PxTransformT@M@4@II@Z 000000018017f530 f i GuSecondaryPruner.obj
 0001:0017e550       ?addObject@CompanionPrunerIncremental@@UEAA_NAEBUPrunerPayload@Gu@physx@@IAEBVPxBounds3@4@AEBV?$PxTransformT@M@4@II@Z 000000018017f550 f i GuSecondaryPruner.obj
 0001:0017e570       ?addObjectInternal@CompanionPrunerAABBTree@@QEAA_NII@Z 000000018017f570 f   GuSecondaryPruner.obj
 0001:0017e710       ?build@CompanionPrunerAABBTree@@UEAAXXZ 000000018017f710 f   GuSecondaryPruner.obj
 0001:0017ebe0       ?createCompanionPruner@Gu@physx@@YAPEAVCompanionPruner@12@_KW4CompanionPrunerType@12@PEBVPruningPool@12@@Z 000000018017fbe0 f   GuSecondaryPruner.obj
 0001:0017ede0       ?getGlobalBounds@CompanionPrunerAABBTree@@UEBAXAEAVPxBounds3@physx@@@Z 000000018017fde0 f   GuSecondaryPruner.obj
 0001:0017eef0       ?getGlobalBounds@CompanionPrunerBucket@@UEBAXAEAVPxBounds3@physx@@@Z 000000018017fef0 f i GuSecondaryPruner.obj
 0001:0017ef00       ?getGlobalBounds@CompanionPrunerIncremental@@UEBAXAEAVPxBounds3@physx@@@Z 000000018017ff00 f i GuSecondaryPruner.obj
 0001:0017ef10       ?getNbObjects@CompanionPrunerAABBTree@@UEBAIXZ 000000018017ff10 f   GuSecondaryPruner.obj
 0001:0017ef20       ?getNbObjects@CompanionPrunerBucket@@UEBAIXZ 000000018017ff20 f i GuSecondaryPruner.obj
 0001:0017ef30       ?getNbObjects@CompanionPrunerIncremental@@UEBAIXZ 000000018017ff30 f i GuSecondaryPruner.obj
 0001:0017ef40       ?growAndPushBack@?$PxArray@ULocalData@CompanionPrunerAABBTree@@V?$PxReflectionAllocator@ULocalData@CompanionPrunerAABBTree@@@physx@@@physx@@IEAAAEAULocalData@CompanionPrunerAABBTree@@AEBU34@@Z 000000018017ff40 f i GuSecondaryPruner.obj
 0001:0017f060       ?overlap@CompanionPrunerAABBTree@@UEBA_NAEBVShapeData@Gu@physx@@AEAUPrunerOverlapCallback@34@@Z 0000000180180060 f   GuSecondaryPruner.obj
 0001:0017fff0       ?overlap@CompanionPrunerBucket@@UEBA_NAEBVShapeData@Gu@physx@@AEAUPrunerOverlapCallback@34@@Z 0000000180180ff0 f i GuSecondaryPruner.obj
 0001:00180010       ?overlap@CompanionPrunerIncremental@@UEBA_NAEBVShapeData@Gu@physx@@AEAUPrunerOverlapCallback@34@@Z 0000000180181010 f i GuSecondaryPruner.obj
 0001:00180030       ?raycast@CompanionPrunerAABBTree@@UEBA_NAEBV?$PxVec3T@M@physx@@0AEAMAEAUPrunerRaycastCallback@Gu@3@@Z 0000000180181030 f   GuSecondaryPruner.obj
 0001:00180420       ?raycast@CompanionPrunerBucket@@UEBA_NAEBV?$PxVec3T@M@physx@@0AEAMAEAUPrunerRaycastCallback@Gu@3@@Z 0000000180181420 f i GuSecondaryPruner.obj
 0001:00180440       ?raycast@CompanionPrunerIncremental@@UEBA_NAEBV?$PxVec3T@M@physx@@0AEAMAEAUPrunerRaycastCallback@Gu@3@@Z 0000000180181440 f i GuSecondaryPruner.obj
 0001:00180460       ?release@CompanionPrunerAABBTree@@UEAAXXZ 0000000180181460 f   GuSecondaryPruner.obj
 0001:00180470       ?release@CompanionPrunerBucket@@UEAAXXZ 0000000180181470 f i GuSecondaryPruner.obj
 0001:00180480       ?release@CompanionPrunerIncremental@@UEAAXXZ 0000000180181480 f i GuSecondaryPruner.obj
 0001:00180490       ?releaseInternal@CompanionPrunerAABBTree@@QEAAXXZ 0000000180181490 f   GuSecondaryPruner.obj
 0001:00180510       ?removeMarkedObjects@CompanionPrunerAABBTree@@UEAAII@Z 0000000180181510 f   GuSecondaryPruner.obj
 0001:00180530       ?removeMarkedObjects@CompanionPrunerBucket@@UEAAII@Z 0000000180181530 f i GuSecondaryPruner.obj
 0001:00180540       ?removeMarkedObjects@CompanionPrunerIncremental@@UEAAII@Z 0000000180181540 f i GuSecondaryPruner.obj
 0001:00180550       ?removeObject@CompanionPrunerAABBTree@@UEAA_NAEBUPrunerPayload@Gu@physx@@III@Z 0000000180181550 f   GuSecondaryPruner.obj
 0001:001805f0       ?removeObject@CompanionPrunerBucket@@UEAA_NAEBUPrunerPayload@Gu@physx@@III@Z 00000001801815f0 f i GuSecondaryPruner.obj
 0001:00180610       ?removeObject@CompanionPrunerIncremental@@UEAA_NAEBUPrunerPayload@Gu@physx@@III@Z 0000000180181610 f i GuSecondaryPruner.obj
 0001:00180630       ?shiftOrigin@CompanionPrunerAABBTree@@UEAAXAEBV?$PxVec3T@M@physx@@@Z 0000000180181630 f   GuSecondaryPruner.obj
 0001:00180760       ?shiftOrigin@CompanionPrunerIncremental@@UEAAXAEBV?$PxVec3T@M@physx@@@Z 0000000180181760 f i GuSecondaryPruner.obj
 0001:00180770       ?swapIndex@CompanionPrunerIncremental@@UEAAXII@Z 0000000180181770 f i GuSecondaryPruner.obj
 0001:00180780       ?sweep@CompanionPrunerAABBTree@@UEBA_NAEBVShapeData@Gu@physx@@AEBV?$PxVec3T@M@4@AEAMAEAUPrunerRaycastCallback@34@@Z 0000000180181780 f   GuSecondaryPruner.obj
 0001:00180cb0       ?sweep@CompanionPrunerBucket@@UEBA_NAEBVShapeData@Gu@physx@@AEBV?$PxVec3T@M@4@AEAMAEAUPrunerRaycastCallback@34@@Z 0000000180181cb0 f i GuSecondaryPruner.obj
 0001:00180cd0       ?sweep@CompanionPrunerIncremental@@UEBA_NAEBVShapeData@Gu@physx@@AEBV?$PxVec3T@M@4@AEAMAEAUPrunerRaycastCallback@34@@Z 0000000180181cd0 f i GuSecondaryPruner.obj
 0001:00180cf0       ?timeStampChange@CompanionPrunerIncremental@@UEAAXXZ 0000000180181cf0 f i GuSecondaryPruner.obj
 0001:00180d10       ?updateObject@CompanionPrunerAABBTree@@UEAA_NAEBUPrunerPayload@Gu@physx@@IAEBVPxBounds3@4@AEBV?$PxTransformT@M@4@I@Z 0000000180181d10 f   GuSecondaryPruner.obj
 0001:00180d90       ?updateObject@CompanionPrunerBucket@@UEAA_NAEBUPrunerPayload@Gu@physx@@IAEBVPxBounds3@4@AEBV?$PxTransformT@M@4@I@Z 0000000180181d90 f i GuSecondaryPruner.obj
 0001:00180db0       ?updateObject@CompanionPrunerIncremental@@UEAA_NAEBUPrunerPayload@Gu@physx@@IAEBVPxBounds3@4@AEBV?$PxTransformT@M@4@I@Z 0000000180181db0 f i GuSecondaryPruner.obj
 0001:00180dc0       ?visualize@CompanionPrunerAABBTree@@UEBAXAEAVPxRenderOutput@physx@@I@Z 0000000180181dc0 f   GuSecondaryPruner.obj
 0001:00180de0       ?visualize@CompanionPrunerIncremental@@UEBAXAEAVPxRenderOutput@physx@@I@Z 0000000180181de0 f i GuSecondaryPruner.obj
 0001:00180df0       ??0AABBPruner@Gu@physx@@QEAA@_N_KW4CompanionPrunerType@12@W4BVHBuildStrategy@12@I@Z 0000000180181df0 f   GuAABBPruner.obj
 0001:00180f20       ??1AABBPruner@Gu@physx@@UEAA@XZ 0000000180181f20 f   GuAABBPruner.obj
 0001:00181080       ??_EAABBPruner@Gu@physx@@UEAAPEAXI@Z 0000000180182080 f i GuAABBPruner.obj
 0001:00181080       ??_GAABBPruner@Gu@physx@@UEAAPEAXI@Z 0000000180182080 f i GuAABBPruner.obj
 0001:001810f0       ?addObjects@AABBPruner@Gu@physx@@UEAA_NPEAIPEBVPxBounds3@3@PEBUPrunerPayload@23@PEBV?$PxTransformT@M@3@I_N@Z 00000001801820f0 f   GuAABBPruner.obj
 0001:00181250       ?buildStep@AABBPruner@Gu@physx@@UEAA_N_N@Z 0000000180182250 f   GuAABBPruner.obj
 0001:00181480       ?commit@AABBPruner@Gu@physx@@UEAAXXZ 0000000180182480 f   GuAABBPruner.obj
 0001:00181840       ?getGlobalBounds@AABBPruner@Gu@physx@@UEBAXAEAVPxBounds3@3@@Z 0000000180182840 f   GuAABBPruner.obj
 0001:00181980       ?getPayloadData@AABBPruner@Gu@physx@@UEBAAEBUPrunerPayload@23@IPEAUPrunerPayloadData@23@@Z 0000000180182980 f i GuAABBPruner.obj
 0001:001819e0       ?growAndPushBack@?$PxArray@UNewTreeFixup@AABBPruner@Gu@physx@@V?$PxReflectionAllocator@UNewTreeFixup@AABBPruner@Gu@physx@@@4@@physx@@IEAAAEAUNewTreeFixup@AABBPruner@Gu@2@AEBU3452@@Z 00000001801829e0 f i GuAABBPruner.obj
 0001:00181b00       ?isDynamic@AABBPruner@Gu@physx@@UEBA_NXZ 0000000180182b00 f i GuAABBPruner.obj
 0001:00181b10       ?merge@AABBPruner@Gu@physx@@UEAAXPEBX@Z 0000000180182b10 f   GuAABBPruner.obj
 0001:00181b90       ?overlap@AABBPruner@Gu@physx@@UEBA_NAEBVShapeData@23@AEAUPrunerOverlapCallback@23@@Z 0000000180182b90 f   GuAABBPruner.obj
 0001:00182160       ?preallocate@AABBPruner@Gu@physx@@UEAAXI@Z 0000000180183160 f i GuAABBPruner.obj
 0001:00182170       ?prepareBuild@AABBPruner@Gu@physx@@UEAA_NXZ 0000000180183170 f   GuAABBPruner.obj
 0001:00182300       ?purge@AABBPruner@Gu@physx@@UEAAXXZ 0000000180183300 f   GuAABBPruner.obj
 0001:00182320       ?raycast@AABBPruner@Gu@physx@@UEBA_NAEBV?$PxVec3T@M@3@0AEAMAEAUPrunerRaycastCallback@23@@Z 0000000180183320 f   GuAABBPruner.obj
 0001:00182410       ?release@AABBPruner@Gu@physx@@QEAAXXZ 0000000180183410 f   GuAABBPruner.obj
 0001:00182540       ?removeObjects@AABBPruner@Gu@physx@@UEAAXPEBIIPEAUPrunerPayloadRemovalCallback@23@@Z 0000000180183540 f   GuAABBPruner.obj
 0001:00182730       ?setRebuildRateHint@AABBPruner@Gu@physx@@UEAAXI@Z 0000000180183730 f   GuAABBPruner.obj
 0001:00182750       ?setTransform@AABBPruner@Gu@physx@@UEAA_NIAEBV?$PxTransformT@M@3@@Z 0000000180183750 f i GuAABBPruner.obj
 0001:001827b0       ?shiftOrigin@AABBPruner@Gu@physx@@UEAAXAEBV?$PxVec3T@M@3@@Z 00000001801837b0 f   GuAABBPruner.obj
 0001:00182820       ?sweep@AABBPruner@Gu@physx@@UEBA_NAEBVShapeData@23@AEBV?$PxVec3T@M@3@AEAMAEAUPrunerRaycastCallback@23@@Z 0000000180183820 f   GuAABBPruner.obj
 0001:001829b0       ?updateObjects@AABBPruner@Gu@physx@@UEAAXPEBIIM0PEBVPxBounds3@3@PEBUPxTransformPadded@3@@Z 00000001801839b0 f   GuAABBPruner.obj
 0001:00182b50       ?visualize@AABBPruner@Gu@physx@@UEBAXAEAVPxRenderOutput@3@II@Z 0000000180183b50 f   GuAABBPruner.obj
 0001:00182c00       ??0ActorShapeMap@Gu@physx@@QEAA@XZ 0000000180183c00 f   GuActorShapeMap.obj
 0001:00182c60       ??1ActorShapeMap@Gu@physx@@QEAA@XZ 0000000180183c60 f   GuActorShapeMap.obj
 0001:00182cc0       ?add@ActorShapeMap@Gu@physx@@QEAA_NIPEBX0_K@Z 0000000180183cc0 f   GuActorShapeMap.obj
 0001:00182e60       ?create@?$PxHashBase@V?$PxPair@$$CBUActorShape@ActorShapeMap@Gu@physx@@_K@physx@@UActorShape@ActorShapeMap@Gu@2@U?$PxHash@UActorShape@ActorShapeMap@Gu@physx@@@2@UGetKey@?$PxHashMapBase@UActorShape@ActorShapeMap@Gu@physx@@_KU?$PxHash@UActorShape@ActorShapeMap@Gu@physx@@@4@VPxAllocator@4@@2@VPxAllocator@2@$00@physx@@QEAAPEAV?$PxPair@$$CBUActorShape@ActorShapeMap@Gu@physx@@_K@2@AEBUActorShape@ActorShapeMap@Gu@2@AEA_N@Z 0000000180183e60 f i GuActorShapeMap.obj
 0001:00183050       ?eraseInternal@?$PxHashBase@V?$PxPair@$$CBUActorShape@ActorShapeMap@Gu@physx@@_K@physx@@UActorShape@ActorShapeMap@Gu@2@U?$PxHash@UActorShape@ActorShapeMap@Gu@physx@@@2@UGetKey@?$PxHashMapBase@UActorShape@ActorShapeMap@Gu@physx@@_KU?$PxHash@UActorShape@ActorShapeMap@Gu@physx@@@4@VPxAllocator@4@@2@VPxAllocator@2@$00@physx@@AEAA_NPEAI@Z 0000000180184050 f i GuActorShapeMap.obj
 0001:00183160       ?find@ActorShapeMap@Gu@physx@@QEBA_KIPEBX0@Z 0000000180184160 f   GuActorShapeMap.obj
 0001:00183250       ?remove@ActorShapeMap@Gu@physx@@QEAA_NIPEBX0PEA_K@Z 0000000180184250 f   GuActorShapeMap.obj
 0001:001833a0       ?reserveInternal@?$PxHashBase@V?$PxPair@$$CBUActorShape@ActorShapeMap@Gu@physx@@_K@physx@@UActorShape@ActorShapeMap@Gu@2@U?$PxHash@UActorShape@ActorShapeMap@Gu@physx@@@2@UGetKey@?$PxHashMapBase@UActorShape@ActorShapeMap@Gu@physx@@_KU?$PxHash@UActorShape@ActorShapeMap@Gu@physx@@@4@VPxAllocator@4@@2@VPxAllocator@2@$00@physx@@AEAAXI@Z 00000001801843a0 f i GuActorShapeMap.obj
 0001:001835b0       ??0QuerySystem@Gu@physx@@QEAA@_KMAEBVAdapter@12@_N@Z 00000001801845b0 f   GuQuerySystem.obj
 0001:00183680       ??1QuerySystem@Gu@physx@@QEAA@XZ 0000000180184680 f   GuQuerySystem.obj
 0001:001838d0       ??_GPrunerExt@QuerySystem@Gu@physx@@QEAAPEAXI@Z 00000001801848d0 f i GuQuerySystem.obj
 0001:001839e0       ?addPruner@QuerySystem@Gu@physx@@QEAAIPEAVPruner@23@I@Z 00000001801849e0 f   GuQuerySystem.obj
 0001:00183b00       ?addPrunerShape@QuerySystem@Gu@physx@@QEAA_KAEBUPrunerPayload@23@I_NAEBV?$PxTransformT@M@3@PEBVPxBounds3@3@@Z 0000000180184b00 f   GuQuerySystem.obj
 0001:00183c40       ?addToDirtyList@PrunerExt@QuerySystem@Gu@physx@@QEAAXIIAEBV?$PxTransformT@M@4@PEBVPxBounds3@4@@Z 0000000180184c40 f   GuQuerySystem.obj
 0001:00183e90       ?commitUpdates@QuerySystem@Gu@physx@@QEAAXXZ 0000000180184e90 f   GuQuerySystem.obj
 0001:00183f40       ?createTreeOfPruners@QuerySystem@Gu@physx@@QEAAXXZ 0000000180184f40 f   GuQuerySystem.obj
 0001:001840a0       ?flushMemory@QuerySystem@Gu@physx@@QEAAXXZ 00000001801850a0 f   GuQuerySystem.obj
 0001:00184130       ?getPayloadData@QuerySystem@Gu@physx@@QEBAAEBUPrunerPayload@23@_KPEAUPrunerPayloadData@23@@Z 0000000180185130 f   GuQuerySystem.obj
 0001:00184150       ?growAndPushBack@?$PxArray@PEAUPrunerExt@QuerySystem@Gu@physx@@V?$PxReflectionAllocator@PEAUPrunerExt@QuerySystem@Gu@physx@@@4@@physx@@IEAAAEAPEAUPrunerExt@QuerySystem@Gu@2@AEBQEAU3452@@Z 0000000180185150 f i GuQuerySystem.obj
 0001:00184270       ?overlap@QuerySystem@Gu@physx@@QEBAXAEBVShapeData@23@AEAUPrunerOverlapCallback@23@PEBVPrunerFilter@23@@Z 0000000180185270 f   GuQuerySystem.obj
 0001:00184370       ?processDirtyLists@QuerySystem@Gu@physx@@AEAAXXZ 0000000180185370 f   GuQuerySystem.obj
 0001:00184650       ?raycast@QuerySystem@Gu@physx@@QEBAXAEBV?$PxVec3T@M@3@0AEAMAEAUPrunerRaycastCallback@23@PEBVPrunerFilter@23@@Z 0000000180185650 f   GuQuerySystem.obj
 0001:00184790       ?recreate@?$PxArray@UData@PrunerExt@QuerySystem@Gu@physx@@V?$PxReflectionAllocator@UData@PrunerExt@QuerySystem@Gu@physx@@@5@@physx@@IEAAXI@Z 0000000180185790 f i GuQuerySystem.obj
 0001:00184a80       ?removePruner@QuerySystem@Gu@physx@@QEAAXI@Z 0000000180185a80 f   GuQuerySystem.obj
 0001:00184b60       ?removePrunerShape@QuerySystem@Gu@physx@@QEAAX_KPEAUPrunerPayloadRemovalCallback@23@@Z 0000000180185b60 f   GuQuerySystem.obj
 0001:00184d90       ?sweep@QuerySystem@Gu@physx@@QEBAXAEBVShapeData@23@AEBV?$PxVec3T@M@3@AEAMAEAUPrunerRaycastCallback@23@PEBVPrunerFilter@23@@Z 0000000180185d90 f   GuQuerySystem.obj
 0001:00184ec0       ?sync@QuerySystem@Gu@physx@@QEAAXIPEBI0PEBVPxBounds3@3@PEBUPxTransformPadded@3@I@Z 0000000180185ec0 f   GuQuerySystem.obj
 0001:00184f70       ?update@QuerySystem@Gu@physx@@QEAAX_N0@Z 0000000180185f70 f   GuQuerySystem.obj
 0001:00185040       ?updatePrunerShape@QuerySystem@Gu@physx@@QEAAX_K_NAEBV?$PxTransformT@M@3@PEBVPxBounds3@3@@Z 0000000180186040 f   GuQuerySystem.obj
 0001:00185230       createAABBPruner           0000000180186230 f   GuFactory.obj
 0001:001852f0       createBucketPruner         00000001801862f0 f   GuFactory.obj
 0001:00185380       createIncrementalPruner    0000000180186380 f   GuFactory.obj
 0001:00185410       ??$PxSmallSort@I$$CBUSortBoundsPredicate@physx@@@physx@@YAXPEAIHHAEBUSortBoundsPredicate@0@@Z 0000000180186410 f i GuRTreeCooking.obj
 0001:001856b0       ??$PxSort@IU?$PxLess@I@physx@@V?$PxReflectionAllocator@I@2@@physx@@YAXPEAIIAEBU?$PxLess@I@0@AEBV?$PxReflectionAllocator@I@0@I@Z 00000001801866b0 f i GuRTreeCooking.obj
 0001:00185b00       ??$PxSort@IUSortBoundsPredicate@physx@@V?$PxReflectionAllocator@I@2@@physx@@YAXPEAIIAEBUSortBoundsPredicate@0@AEBV?$PxReflectionAllocator@I@0@I@Z 0000000180186b00 f i GuRTreeCooking.obj
 0001:00185fb0       ??$quickSelectFirstK@UBoundsLTE@physx@@@quickSelect@physx@@YAXPEIAIIIIAEBUBoundsLTE@1@@Z 0000000180186fb0 f i GuRTreeCooking.obj
 0001:00186190       ?allocate@?$PxArray@UInterval@physx@@V?$PxInlineAllocator@$0CAAA@V?$PxReflectionAllocator@UInterval@physx@@@physx@@@2@@physx@@IEAAPEAUInterval@2@I@Z 0000000180187190 f i GuRTreeCooking.obj
 0001:00186250       ?allocate@?$PxArray@UPxBounds3V@physx@@V?$PxReflectionAllocator@UPxBounds3V@physx@@@2@@physx@@IEAAPEAUPxBounds3V@2@I@Z 0000000180187250 f i GuRTreeCooking.obj
 0001:001862e0       ?allocate@?$PxArray@URTreeNodeNQ@physx@@V?$PxReflectionAllocator@URTreeNodeNQ@physx@@@2@@physx@@IEAAPEAURTreeNodeNQ@2@I@Z 00000001801872e0 f i GuRTreeCooking.obj
 0001:00186370       ?allocate@?$PxArray@URTreeNodeQ@Gu@physx@@V?$PxReflectionAllocator@URTreeNodeQ@Gu@physx@@@3@@physx@@IEAAPEAURTreeNodeQ@Gu@2@I@Z 0000000180187370 f i GuRTreeCooking.obj
 0001:00187080       ?buildFromTriangles@RTreeCooker@physx@@SAXAEAURTree@Gu@2@PEBV?$PxVec3T@M@2@IPEBGPEBIIAEAV?$PxArray@IV?$PxReflectionAllocator@I@physx@@@2@PEAURemapCallback@12@MW4Enum@PxMeshCookingHint@2@@Z 0000000180188080 f   GuRTreeCooking.obj
 0001:00187340       ?copy@?$PxArray@URTreeNodeNQ@physx@@V?$PxReflectionAllocator@URTreeNodeNQ@physx@@@2@@physx@@KAXPEAURTreeNodeNQ@2@0PEBU32@@Z 0000000180188340 f i GuRTreeCooking.obj
 0001:00187500       ?growAndPushBack@?$PxArray@UInterval@physx@@V?$PxInlineAllocator@$0CAAA@V?$PxReflectionAllocator@UInterval@physx@@@physx@@@2@@physx@@IEAAAEAUInterval@2@AEBU32@@Z 0000000180188500 f i GuRTreeCooking.obj
 0001:001875e0       ?growAndPushBack@?$PxArray@UPxBounds3V@physx@@V?$PxReflectionAllocator@UPxBounds3V@physx@@@2@@physx@@IEAAAEAUPxBounds3V@2@AEBU32@@Z 00000001801885e0 f i GuRTreeCooking.obj
 0001:001876c0       ?growAndPushBack@?$PxArray@URTreeNodeNQ@physx@@V?$PxReflectionAllocator@URTreeNodeNQ@physx@@@2@@physx@@IEAAAEAURTreeNodeNQ@2@AEBU32@@Z 00000001801886c0 f i GuRTreeCooking.obj
 0001:001877a0       ?growAndPushBack@?$PxArray@URTreeNodeQ@Gu@physx@@V?$PxReflectionAllocator@URTreeNodeQ@Gu@physx@@@3@@physx@@IEAAAEAURTreeNodeQ@Gu@2@AEBU342@@Z 00000001801887a0 f i GuRTreeCooking.obj
 0001:00187890       ?recreate@?$PxArray@UPxBounds3V@physx@@V?$PxReflectionAllocator@UPxBounds3V@physx@@@2@@physx@@IEAAXI@Z 0000000180188890 f i GuRTreeCooking.obj
 0001:00187940       ?recreate@?$PxArray@URTreeNodeNQ@physx@@V?$PxReflectionAllocator@URTreeNodeNQ@physx@@@2@@physx@@IEAAXI@Z 0000000180188940 f i GuRTreeCooking.obj
 0001:001879d0       ?recreate@?$PxArray@URTreeNodeQ@Gu@physx@@V?$PxReflectionAllocator@URTreeNodeQ@Gu@physx@@@3@@physx@@IEAAXI@Z 00000001801889d0 f i GuRTreeCooking.obj
 0001:00187a90       ?resizeUninitialized@?$PxArray@URTreeNodeNQ@physx@@V?$PxReflectionAllocator@URTreeNodeNQ@physx@@@2@@physx@@QEAAXI@Z 0000000180188a90 f i GuRTreeCooking.obj
 0001:00187ad0       ?sort4@SubSortQuick@physx@@QEAAXPEIAIIAEAV?$PxArray@URTreeNodeNQ@physx@@V?$PxReflectionAllocator@URTreeNodeNQ@physx@@@2@@2@AEAIAEAUPxBounds3V@2@I@Z 0000000180188ad0 f i GuRTreeCooking.obj
 0001:00187e60       ?sort4@SubSortSAH@physx@@QEAAXPEAIIAEAV?$PxArray@URTreeNodeNQ@physx@@V?$PxReflectionAllocator@URTreeNodeNQ@physx@@@2@@2@AEAIIPEAURTreeNodeNQ@2@@Z 0000000180188e60 f i GuRTreeCooking.obj
 0001:001886a0       ?split@SubSortSAH@physx@@QEAAIPEAII@Z 00000001801896a0 f i GuRTreeCooking.obj
 0001:00189110       cookBVH                    000000018018a110 f   GuCookingBVH.obj
 0001:001892a0       createBVH                  000000018018a2a0 f   GuCookingBVH.obj
 0001:00189430       cookHeightField            000000018018a430 f   GuCookingHF.obj
 0001:00189540       createHeightField          000000018018a540 f   GuCookingHF.obj
 0001:00189b70       ?isFinite@?$PxVec3T@M@physx@@QEBA_NXZ 000000018018ab70 f i GuCookingConvexMesh.obj
 0001:00189bd0       computeHullPolygons        000000018018abd0 f   GuCookingConvexMesh.obj
 0001:00189db0       cookConvexMesh             000000018018adb0 f   GuCookingConvexMesh.obj
 0001:00189f20       createConvexMesh           000000018018af20 f   GuCookingConvexMesh.obj
 0001:0018a0c0       validateConvexMesh         000000018018b0c0 f   GuCookingConvexMesh.obj
 0001:0018a1e0       ??1BV4TriangleMeshBuilder@physx@@UEAA@XZ 000000018018b1e0 f   GuCookingTriangleMesh.obj
 0001:0018a270       ??1RTreeTriangleMeshBuilder@physx@@UEAA@XZ 000000018018b270 f   GuCookingTriangleMesh.obj
 0001:0018a2e0       ??_EBV4TriangleMeshBuilder@physx@@UEAAPEAXI@Z 000000018018b2e0 f i GuCookingTriangleMesh.obj
 0001:0018a2e0       ??_GBV4TriangleMeshBuilder@physx@@UEAAPEAXI@Z 000000018018b2e0 f i GuCookingTriangleMesh.obj
 0001:0018a320       ??_ERTreeTriangleMeshBuilder@physx@@UEAAPEAXI@Z 000000018018b320 f i GuCookingTriangleMesh.obj
 0001:0018a320       ??_GRTreeTriangleMeshBuilder@physx@@UEAAPEAXI@Z 000000018018b320 f i GuCookingTriangleMesh.obj
 0001:0018a360       ??_ETriangleMeshBuilder@physx@@UEAAPEAXI@Z 000000018018b360 f i GuCookingTriangleMesh.obj
 0001:0018a360       ??_GTriangleMeshBuilder@physx@@UEAAPEAXI@Z 000000018018b360 f i GuCookingTriangleMesh.obj
 0001:0018ad10       ?buildInertiaTensor@TriangleMeshBuilder@physx@@IEAAX_N@Z 000000018018bd10 f   GuCookingTriangleMesh.obj
 0001:0018ae70       ?buildInertiaTensorFromSDF@TriangleMeshBuilder@physx@@IEAAXXZ 000000018018be70 f   GuCookingTriangleMesh.obj
 0001:0018b0b0       ?cleanMesh@TriangleMeshBuilder@physx@@QEAA_N_NPEAW4Enum@PxTriangleMeshCookingResult@2@@Z 000000018018c0b0 f   GuCookingTriangleMesh.obj
 0001:0018b550       ?createGRBMidPhaseAndData@TriangleMeshBuilder@physx@@QEAAXI@Z 000000018018c550 f   GuCookingTriangleMesh.obj
 0001:0018b700       ?createMidPhaseStructure@BV32TriangleMeshBuilder@physx@@SAXAEBUPxCookingParams@2@AEAVTriangleMeshData@Gu@2@AEAVBV32Tree@52@@Z 000000018018c700 f   GuCookingTriangleMesh.obj
 0001:0018b940       ?createMidPhaseStructure@BV4TriangleMeshBuilder@physx@@UEAAXXZ 000000018018c940 f   GuCookingTriangleMesh.obj
 0001:0018bc00       ?createMidPhaseStructure@RTreeTriangleMeshBuilder@physx@@UEAAXXZ 000000018018cc00 f   GuCookingTriangleMesh.obj
 0001:0018bcf0       ?createSharedEdgeData@TriangleMeshBuilder@physx@@QEAAX_N0@Z 000000018018ccf0 f   GuCookingTriangleMesh.obj
 0001:0018c3a0       ?createVertMapping@TriangleMeshBuilder@physx@@QEAAXXZ 000000018018d3a0 f   GuCookingTriangleMesh.obj
 0001:0018c700       ?importMesh@TriangleMeshBuilder@physx@@IEAA_NAEBVPxTriangleMeshDesc@2@AEBUPxCookingParams@2@PEAW4Enum@PxTriangleMeshCookingResult@2@_N@Z 000000018018d700 f   GuCookingTriangleMesh.obj
 0001:0018cbf0       ?isValid@PxTriangleMeshDesc@physx@@QEBA_NXZ 000000018018dbf0 f i GuCookingTriangleMesh.obj
 0001:0018ccc0       ?loadFromDescInternal@TriangleMeshBuilder@physx@@IEAA_NAEAVPxTriangleMeshDesc@2@PEAW4Enum@PxTriangleMeshCookingResult@2@_N@Z 000000018018dcc0 f   GuCookingTriangleMesh.obj
 0001:0018cee0       ?onMeshIndexFormatChange@BV4TriangleMeshBuilder@physx@@UEAAXXZ 000000018018dee0 f   GuCookingTriangleMesh.obj
 0001:0018cf20       ?remap@RTreeCookerRemap@@UEAAXPEAIII@Z 000000018018df20 f i GuCookingTriangleMesh.obj
 0001:0018cf40       ?remapTopology@TriangleMeshBuilder@physx@@QEAAXPEBI@Z 000000018018df40 f   GuCookingTriangleMesh.obj
 0001:0018d1e0       ?save@TriangleMeshBuilder@physx@@QEBA_NAEAVPxOutputStream@2@_NAEBUPxCookingParams@2@@Z 000000018018e1e0 f   GuCookingTriangleMesh.obj
 0001:0018d990       ?saveMidPhaseStructure@BV32TriangleMeshBuilder@physx@@SAXPEAVBV32Tree@Gu@2@AEAVPxOutputStream@2@_N@Z 000000018018e990 f   GuCookingTriangleMesh.obj
 0001:0018db90       ?saveMidPhaseStructure@BV4TriangleMeshBuilder@physx@@UEBAXAEAVPxOutputStream@2@_N@Z 000000018018eb90 f   GuCookingTriangleMesh.obj
 0001:0018dd40       ?saveMidPhaseStructure@RTreeTriangleMeshBuilder@physx@@UEBAXAEAVPxOutputStream@2@_N@Z 000000018018ed40 f   GuCookingTriangleMesh.obj
 0001:0018df80       cookTriangleMesh           000000018018ef80 f   GuCookingTriangleMesh.obj
 0001:0018e290       createTriangleMesh         000000018018f290 f   GuCookingTriangleMesh.obj
 0001:0018e4b0       validateTriangleMesh       000000018018f4b0 f   GuCookingTriangleMesh.obj
 0001:0018e770       ??0SoftBodyCollisionData@Gu@physx@@QEAA@XZ 000000018018f770 f i GuCookingTetrahedronMesh.obj
 0001:0018e7d0       ??_ECollisionTetrahedronMeshData@Gu@physx@@UEAAPEAXI@Z 000000018018f7d0 f i GuCookingTetrahedronMesh.obj
 0001:0018e7d0       ??_GCollisionTetrahedronMeshData@Gu@physx@@UEAAPEAXI@Z 000000018018f7d0 f i GuCookingTetrahedronMesh.obj
 0001:0018e8a0       ??_EPxCollisionTetrahedronMeshData@physx@@UEAAPEAXI@Z 000000018018f8a0 f i GuCookingTetrahedronMesh.obj
 0001:0018e8a0       ??_GPxCollisionTetrahedronMeshData@physx@@UEAAPEAXI@Z 000000018018f8a0 f i GuCookingTetrahedronMesh.obj
 0001:0018e8f0       ??_EPxSimulationTetrahedronMeshData@physx@@UEAAPEAXI@Z 000000018018f8f0 f i GuCookingTetrahedronMesh.obj
 0001:0018e8f0       ??_GPxSimulationTetrahedronMeshData@physx@@UEAAPEAXI@Z 000000018018f8f0 f i GuCookingTetrahedronMesh.obj
 0001:0018e940       ??_ESimulationTetrahedronMeshData@Gu@physx@@UEAAPEAXI@Z 000000018018f940 f i GuCookingTetrahedronMesh.obj
 0001:0018e940       ??_GSimulationTetrahedronMeshData@Gu@physx@@UEAAPEAXI@Z 000000018018f940 f i GuCookingTetrahedronMesh.obj
 0001:0018ea10       ?combineGridModelPartitions@@YAXAEBVTetrahedronMeshData@Gu@physx@@AEAVSoftBodySimulationData@23@PEAPEAI@Z 000000018018fa10 f   GuCookingTetrahedronMesh.obj
 0001:0018f260       ?combineGridModelPartitionsHexMesh@@YAXAEBVTetrahedronMeshData@Gu@physx@@AEAVSoftBodySimulationData@23@PEAPEAI@Z 0000000180190260 f   GuCookingTetrahedronMesh.obj
 0001:0018fba0       ?computeCollisionData@TetrahedronMeshBuilder@physx@@SA_NAEBVPxTetrahedronMeshDesc@2@AEAVTetrahedronMeshData@Gu@2@AEAVSoftBodyCollisionData@52@AEBUPxCookingParams@2@_N@Z 0000000180190ba0 f   GuCookingTetrahedronMesh.obj
 0001:0018fdd0       ?computeGridModelTetrahedronPartitions@@YAPEAIAEBVTetrahedronMeshData@Gu@physx@@AEAVSoftBodySimulationData@23@@Z 0000000180190dd0 f   GuCookingTetrahedronMesh.obj
 0001:00190270       ?computeModelsMapping@TetrahedronMeshBuilder@physx@@SAXAEAVTetrahedronMeshData@Gu@2@AEBV342@AEBVSoftBodyCollisionData@42@AEAVCollisionMeshMappingData@42@_NPEBUPxBoundedData@2@@Z 0000000180191270 f   GuCookingTetrahedronMesh.obj
 0001:00190e80       ?computeRestPoseAndPointMass@@YAXPEAU?$TetrahedronT@I@Gu@physx@@IPEBV?$PxVec3T@M@3@PEAMPEAV?$PxMat33T@M@3@@Z 0000000180191e80 f   GuCookingTetrahedronMesh.obj
 0001:001913d0       ?computeSimData@TetrahedronMeshBuilder@physx@@SAXAEBVPxTetrahedronMeshDesc@2@AEAVTetrahedronMeshData@Gu@2@AEAVSoftBodySimulationData@52@AEBUPxCookingParams@2@@Z 00000001801923d0 f   GuCookingTetrahedronMesh.obj
 0001:00191aa0       ?computeTetData@TetrahedronMeshBuilder@physx@@SAXAEBVPxTetrahedronMeshDesc@2@AEAVTetrahedronMeshData@Gu@2@@Z 0000000180192aa0 f   GuCookingTetrahedronMesh.obj
 0001:00191b90       ?computeTetrahedronPartition@@YAIPEBU?$TetrahedronT@I@Gu@physx@@IPEAII@Z 0000000180192b90 f   GuCookingTetrahedronMesh.obj
 0001:00191c80       ?createCollisionModelMapping@TetrahedronMeshBuilder@physx@@SAXAEBVTetrahedronMeshData@Gu@2@AEBVSoftBodyCollisionData@42@AEAVCollisionMeshMappingData@42@@Z 0000000180192c80 f   GuCookingTetrahedronMesh.obj
 0001:00192260       ?createGRBMidPhaseAndData@TetrahedronMeshBuilder@physx@@SAXIAEAVTetrahedronMeshData@Gu@2@AEAVSoftBodyCollisionData@42@AEBUPxCookingParams@2@@Z 0000000180193260 f   GuCookingTetrahedronMesh.obj
 0001:00192f90       ?createMidPhaseStructure@BV32TetrahedronMeshBuilder@physx@@SAXAEBUPxCookingParams@2@AEAVTetrahedronMeshData@Gu@2@AEAVBV32Tree@52@AEAVSoftBodyCollisionData@52@@Z 0000000180193f90 f   GuCookingTetrahedronMesh.obj
 0001:00193260       ?createMidPhaseStructure@TetrahedronMeshBuilder@physx@@SAXAEAVTetrahedronMeshData@Gu@2@AEAVSoftBodyCollisionData@42@AEBUPxCookingParams@2@@Z 0000000180194260 f   GuCookingTetrahedronMesh.obj
 0001:00193f30       ?getData@CollisionTetrahedronMeshData@Gu@physx@@UEAAPEAVPxSoftBodyCollisionData@3@XZ 0000000180194f30 f i GuCookingTetrahedronMesh.obj
 0001:00193f30       ?getData@CollisionTetrahedronMeshData@Gu@physx@@UEBAPEBVPxSoftBodyCollisionData@3@XZ 0000000180194f30 f i GuCookingTetrahedronMesh.obj
 0001:00193f30       ?getData@SimulationTetrahedronMeshData@Gu@physx@@UEAAPEAVPxSoftBodySimulationData@3@XZ 0000000180194f30 f i GuCookingTetrahedronMesh.obj
 0001:00193f50       ?importMesh@TetrahedronMeshBuilder@physx@@SA_NAEBVPxTetrahedronMeshDesc@2@AEBUPxCookingParams@2@AEAVTetrahedronMeshData@Gu@2@AEAVSoftBodyCollisionData@62@_N@Z 0000000180194f50 f   GuCookingTetrahedronMesh.obj
 0001:00194250       ?isValid@PxTetrahedronMeshDesc@physx@@QEBA_NXZ 0000000180195250 f i GuCookingTetrahedronMesh.obj
 0001:001942c0       ?loadFromDesc@TetrahedronMeshBuilder@physx@@SA_NAEBVPxTetrahedronMeshDesc@2@0VPxSoftBodySimulationDataDesc@2@AEAVTetrahedronMeshData@Gu@2@AEAVSoftBodySimulationData@62@2AEAVSoftBodyCollisionData@62@AEAVCollisionMeshMappingData@62@AEBUPxCookingParams@2@_N@Z 00000001801952c0 f   GuCookingTetrahedronMesh.obj
 0001:00194430       ?release@CollisionTetrahedronMeshData@Gu@physx@@UEAAXXZ 0000000180195430 f i GuCookingTetrahedronMesh.obj
 0001:00194450       ?reserveInternal@?$PxHashBase@V?$PxPair@$$CBVSortedTriangleInds@@I@physx@@VSortedTriangleInds@@USortedTriangleIndsHash@@UGetKey@?$PxHashMapBase@VSortedTriangleInds@@IUSortedTriangleIndsHash@@VPxAllocator@physx@@@2@VPxAllocator@2@$00@physx@@AEAAXI@Z 0000000180195450 f i GuCookingTetrahedronMesh.obj
 0001:00194690       ?saveSoftBodyMeshData@TetrahedronMeshBuilder@physx@@SA_NAEAVPxOutputStream@2@_NAEBUPxCookingParams@2@AEBVTetrahedronMeshData@Gu@2@AEBVSoftBodySimulationData@62@3AEBVSoftBodyCollisionData@62@AEBVCollisionMeshMappingData@62@@Z 0000000180195690 f   GuCookingTetrahedronMesh.obj
 0001:00194da0       ?saveTetrahedronMeshData@TetrahedronMeshBuilder@physx@@SA_NAEAVPxOutputStream@2@_NAEBUPxCookingParams@2@AEBVTetrahedronMeshData@Gu@2@@Z 0000000180195da0 f   GuCookingTetrahedronMesh.obj
 0001:00194f50       ?smoothMassRatiosWhilePreservingTotalMass@@YAXPEAMIPEBIHMM@Z 0000000180195f50 f   GuCookingTetrahedronMesh.obj
 0001:001953f0       ?support@?$LocalConvex@VTetrahedronV@Gu@physx@@@Gu@physx@@UEBA?AT__m128@@AEBT4@@Z 00000001801963f0 f i GuCookingTetrahedronMesh.obj
 0001:001954b0       ?support@?$LocalConvex@VTetrahedronV@Gu@physx@@@Gu@physx@@UEBA?AT__m128@@AEBT4@AEAH@Z 00000001801964b0 f i GuCookingTetrahedronMesh.obj
 0001:00195660       assembleSoftBodyMesh       0000000180196660 f   GuCookingTetrahedronMesh.obj
 0001:001956c0       assembleSoftBodyMesh_Sim   00000001801966c0 f   GuCookingTetrahedronMesh.obj
 0001:00195770       computeCollisionData       0000000180196770 f   GuCookingTetrahedronMesh.obj
 0001:00195970       computeModelsMapping       0000000180196970 f   GuCookingTetrahedronMesh.obj
 0001:00195a70       computeSimulationData      0000000180196a70 f   GuCookingTetrahedronMesh.obj
 0001:00195c40       cookSoftBodyMesh           0000000180196c40 f   GuCookingTetrahedronMesh.obj
 0001:00196260       cookTetrahedronMesh        0000000180197260 f   GuCookingTetrahedronMesh.obj
 0001:00196350       createSoftBodyMesh         0000000180197350 f   GuCookingTetrahedronMesh.obj
 0001:001969f0       createTetrahedronMesh      00000001801979f0 f   GuCookingTetrahedronMesh.obj
 0001:001986d0       ?computeVolumeIntegrals@physx@@YA_NAEBVPxSimpleTriangleMesh@1@MAEAUPxIntegrals@1@@Z 00000001801996d0 f   GuCookingVolumeIntegration.obj
 0001:00198710       ?computeVolumeIntegralsEberly@physx@@YA_NAEBVPxConvexMeshDesc@1@MAEAUPxIntegrals@1@AEBV?$PxVec3T@M@1@_N@Z 0000000180199710 f   GuCookingVolumeIntegration.obj
 0001:00198d70       ??0QuickHull@local@@QEAA@AEBUPxCookingParams@physx@@AEBVPxConvexMeshDesc@3@@Z 0000000180199d70 f   GuCookingQuickHullConvexHullLib.obj
 0001:00198e20       ??0QuickHullConvexHullLib@physx@@QEAA@AEBVPxConvexMeshDesc@1@AEBUPxCookingParams@1@@Z 0000000180199e20 f   GuCookingQuickHullConvexHullLib.obj
 0001:00198f00       ??1?$MemBlock@UQuickHullFace@local@@$00@local@@QEAA@XZ 0000000180199f00 f i GuCookingQuickHullConvexHullLib.obj
 0001:00198f00       ??1?$MemBlock@UQuickHullHalfEdge@local@@$0A@@local@@QEAA@XZ 0000000180199f00 f i GuCookingQuickHullConvexHullLib.obj
 0001:00198fc0       ??1QuickHull@local@@QEAA@XZ 0000000180199fc0 f   GuCookingQuickHullConvexHullLib.obj
 0001:00199120       ??_GConvexHull@physx@@QEAAPEAXI@Z 000000018019a120 f i GuCookingQuickHullConvexHullLib.obj
 0001:00199210       ??_EConvexHullLib@physx@@UEAAPEAXI@Z 000000018019a210 f i GuCookingQuickHullConvexHullLib.obj
 0001:00199210       ??_GConvexHullLib@physx@@UEAAPEAXI@Z 000000018019a210 f i GuCookingQuickHullConvexHullLib.obj
 0001:00199250       ??_EQuickHullConvexHullLib@physx@@UEAAPEAXI@Z 000000018019a250 f i GuCookingQuickHullConvexHullLib.obj
 0001:00199250       ??_GQuickHullConvexHullLib@physx@@UEAAPEAXI@Z 000000018019a250 f i GuCookingQuickHullConvexHullLib.obj
 0001:00199370       ?addPointToHull@QuickHull@local@@IEAA_NPEBUQuickHullVertex@2@AEAUQuickHullFace@2@AEA_N@Z 000000018019a370 f   GuCookingQuickHullConvexHullLib.obj
 0001:00199640       ?addSimplex@QuickHull@local@@IEAAXPEAUQuickHullVertex@2@_N@Z 000000018019a640 f   GuCookingQuickHullConvexHullLib.obj
 0001:00199b10       ?allocate@?$PxArray@PEAUQuickHullFace@local@@V?$PxReflectionAllocator@PEAUQuickHullFace@local@@@physx@@@physx@@IEAAPEAPEAUQuickHullFace@local@@I@Z 000000018019ab10 f i GuCookingQuickHullConvexHullLib.obj
 0001:00199ba0       ?allocate@?$PxArray@PEAUQuickHullHalfEdge@local@@V?$PxReflectionAllocator@PEAUQuickHullHalfEdge@local@@@physx@@@physx@@IEAAPEAPEAUQuickHullHalfEdge@local@@I@Z 000000018019aba0 f i GuCookingQuickHullConvexHullLib.obj
 0001:00199c30       ?allocate@?$PxArray@PEAUQuickHullVertex@local@@V?$PxReflectionAllocator@PEAUQuickHullVertex@local@@@physx@@@physx@@IEAAPEAPEAUQuickHullVertex@local@@I@Z 000000018019ac30 f i GuCookingQuickHullConvexHullLib.obj
 0001:00199cc0       ?allocate@?$PxArray@UExpandPoint@local@@V?$PxReflectionAllocator@UExpandPoint@local@@@physx@@@physx@@IEAAPEAUExpandPoint@local@@I@Z 000000018019acc0 f i GuCookingQuickHullConvexHullLib.obj
 0001:00199d50       ?allocate@?$PxArray@VPxPlane@physx@@V?$PxReflectionAllocator@VPxPlane@physx@@@2@@physx@@IEAAPEAVPxPlane@2@I@Z 000000018019ad50 f i GuCookingQuickHullConvexHullLib.obj
 0001:00199de0       ?buildHull@QuickHull@local@@QEAA?AW4Enum@QuickHullResult@2@XZ 000000018019ade0 f   GuCookingQuickHullConvexHullLib.obj
 0001:0019a030       ?calculateHorizon@QuickHull@local@@IEAAXAEBV?$PxVec3T@M@physx@@PEAUQuickHullHalfEdge@2@AEAUQuickHullFace@2@AEAV?$PxArray@PEAUQuickHullHalfEdge@local@@V?$PxReflectionAllocator@PEAUQuickHullHalfEdge@local@@@physx@@@4@AEAV?$PxArray@PEAUQuickHullFace@local@@V?$PxReflectionAllocator@PEAUQuickHullFace@local@@@physx@@@4@@Z 000000018019b030 f   GuCookingQuickHullConvexHullLib.obj
 0001:0019a1e0       ?canMergeFaces@QuickHull@local@@IEAA_NAEBUQuickHullHalfEdge@2@@Z 000000018019b1e0 f   GuCookingQuickHullConvexHullLib.obj
 0001:0019aa10       ?cleanupForSimplex@QuickHullConvexHullLib@physx@@IEAA_NPEAV?$PxVec3T@M@2@IPEAUQuickHullVertex@local@@1AEAM2@Z 000000018019ba10 f   GuCookingQuickHullConvexHullLib.obj
 0001:0019b630       ?computeMinMaxVerts@QuickHull@local@@IEAAXXZ 000000018019c630 f   GuCookingQuickHullConvexHullLib.obj
 0001:0019ba00       ?connectHalfEdges@QuickHullFace@local@@AEAAPEAU12@PEAUQuickHullHalfEdge@2@0@Z 000000018019ca00 f   GuCookingQuickHullConvexHullLib.obj
 0001:0019bd70       ?copy@?$PxArray@UExpandPoint@local@@V?$PxReflectionAllocator@UExpandPoint@local@@@physx@@@physx@@KAXPEAUExpandPoint@local@@0PEBU34@@Z 000000018019cd70 f i GuCookingQuickHullConvexHullLib.obj
 0001:0019be20       ?copy@?$PxArray@VPxPlane@physx@@V?$PxReflectionAllocator@VPxPlane@physx@@@2@@physx@@KAXPEAVPxPlane@2@0PEBV32@@Z 000000018019ce20 f i GuCookingQuickHullConvexHullLib.obj
 0001:0019bf20       ?createConvexHull@QuickHullConvexHullLib@physx@@UEAA?AW4Enum@PxConvexMeshCookingResult@2@XZ 000000018019cf20 f   GuCookingQuickHullConvexHullLib.obj
 0001:0019c330       ?createEdgeList@QuickHullConvexHullLib@physx@@UEAA_NIPEBEPEAPEAEPEAPEAG2@Z 000000018019d330 f   GuCookingQuickHullConvexHullLib.obj
 0001:0019c550       ?createTriangle@QuickHull@local@@IEAAPEAUQuickHullFace@2@AEBUQuickHullVertex@2@00@Z 000000018019d550 f   GuCookingQuickHullConvexHullLib.obj
 0001:0019c940       ?doAdjacentMerge@QuickHull@local@@IEAA_NAEAUQuickHullFace@2@_NAEA_N@Z 000000018019d940 f   GuCookingQuickHullConvexHullLib.obj
 0001:0019cc90       ?expandHull@QuickHullConvexHullLib@physx@@IEAA?AW4Enum@PxConvexMeshCookingResult@2@XZ 000000018019dc90 f   GuCookingQuickHullConvexHullLib.obj
 0001:0019d5d0       ?expandHullOBB@QuickHullConvexHullLib@physx@@IEAA?AW4Enum@PxConvexMeshCookingResult@2@XZ 000000018019e5d0 f   GuCookingQuickHullConvexHullLib.obj
 0001:0019da10       ?fillConvexMeshDesc@QuickHullConvexHullLib@physx@@UEAAXAEAVPxConvexMeshDesc@2@@Z 000000018019ea10 f   GuCookingQuickHullConvexHullLib.obj
 0001:0019da60       ?fillConvexMeshDescFromCroppedHull@QuickHullConvexHullLib@physx@@IEAAXAEAVPxConvexMeshDesc@2@@Z 000000018019ea60 f   GuCookingQuickHullConvexHullLib.obj
 0001:0019dc50       ?fillConvexMeshDescFromQuickHull@QuickHullConvexHullLib@physx@@IEAAXAEAVPxConvexMeshDesc@2@@Z 000000018019ec50 f   GuCookingQuickHullConvexHullLib.obj
 0001:0019dfd0       ?findSimplex@QuickHull@local@@IEAA_NXZ 000000018019efd0 f   GuCookingQuickHullConvexHullLib.obj
 0001:0019ec50       ?getFreeItem@?$MemBlock@UQuickHullFace@local@@$00@local@@QEAAPEAUQuickHullFace@2@XZ 000000018019fc50 f i GuCookingQuickHullConvexHullLib.obj
 0001:0019ed80       ?getFreeItem@?$MemBlock@UQuickHullHalfEdge@local@@$0A@@local@@QEAAPEAUQuickHullHalfEdge@2@XZ 000000018019fd80 f i GuCookingQuickHullConvexHullLib.obj
 0001:0019ee50       ?growAndPushBack@?$PxArray@PEAUQuickHullFace@local@@V?$PxReflectionAllocator@PEAUQuickHullFace@local@@@physx@@@physx@@IEAAAEAPEAUQuickHullFace@local@@AEBQEAU34@@Z 000000018019fe50 f i GuCookingQuickHullConvexHullLib.obj
 0001:0019ef10       ?growAndPushBack@?$PxArray@PEAUQuickHullHalfEdge@local@@V?$PxReflectionAllocator@PEAUQuickHullHalfEdge@local@@@physx@@@physx@@IEAAAEAPEAUQuickHullHalfEdge@local@@AEBQEAU34@@Z 000000018019ff10 f i GuCookingQuickHullConvexHullLib.obj
 0001:0019efd0       ?growAndPushBack@?$PxArray@PEAUQuickHullVertex@local@@V?$PxReflectionAllocator@PEAUQuickHullVertex@local@@@physx@@@physx@@IEAAAEAPEAUQuickHullVertex@local@@AEBQEAU34@@Z 000000018019ffd0 f i GuCookingQuickHullConvexHullLib.obj
 0001:0019f090       ?growAndPushBack@?$PxArray@UExpandPoint@local@@V?$PxReflectionAllocator@UExpandPoint@local@@@physx@@@physx@@IEAAAEAUExpandPoint@local@@AEBU34@@Z 00000001801a0090 f i GuCookingQuickHullConvexHullLib.obj
 0001:0019f190       ?growAndPushBack@?$PxArray@VPxPlane@physx@@V?$PxReflectionAllocator@VPxPlane@physx@@@2@@physx@@IEAAAEAVPxPlane@2@AEBV32@@Z 00000001801a0190 f i GuCookingQuickHullConvexHullLib.obj
 0001:0019f250       ?init@?$MemBlock@UQuickHullFace@local@@$00@local@@QEAAXI@Z 00000001801a0250 f i GuCookingQuickHullConvexHullLib.obj
 0001:0019f350       ?init@?$MemBlock@UQuickHullHalfEdge@local@@$0A@@local@@QEAAXI@Z 00000001801a0350 f i GuCookingQuickHullConvexHullLib.obj
 0001:0019f3f0       ?mergeAdjacentFace@QuickHullFace@local@@QEAA_NPEAUQuickHullHalfEdge@2@AEAV?$PxArray@PEAUQuickHullFace@local@@V?$PxReflectionAllocator@PEAUQuickHullFace@local@@@physx@@@physx@@@Z 00000001801a03f0 f   GuCookingQuickHullConvexHullLib.obj
 0001:0019f850       ?nextPointToAdd@QuickHull@local@@IEAAPEAUQuickHullVertex@2@AEAPEAUQuickHullFace@2@@Z 00000001801a0850 f   GuCookingQuickHullConvexHullLib.obj
 0001:0019f9d0       ?parseInputVertices@QuickHull@local@@QEAAXPEBV?$PxVec3T@M@physx@@I@Z 00000001801a09d0 f   GuCookingQuickHullConvexHullLib.obj
 0001:0019fb50       ?postMergeHull@QuickHull@local@@IEAAXXZ 00000001801a0b50 f   GuCookingQuickHullConvexHullLib.obj
 0001:0019fdb0       ?preallocate@QuickHull@local@@QEAAXI@Z 00000001801a0db0 f   GuCookingQuickHullConvexHullLib.obj
 0001:0019fef0       ?recreate@?$PxArray@PEAUQuickHullFace@local@@V?$PxReflectionAllocator@PEAUQuickHullFace@local@@@physx@@@physx@@IEAAXI@Z 00000001801a0ef0 f i GuCookingQuickHullConvexHullLib.obj
 0001:0019ff90       ?recreate@?$PxArray@PEAUQuickHullHalfEdge@local@@V?$PxReflectionAllocator@PEAUQuickHullHalfEdge@local@@@physx@@@physx@@IEAAXI@Z 00000001801a0f90 f i GuCookingQuickHullConvexHullLib.obj
 0001:001a0030       ?recreate@?$PxArray@PEAUQuickHullVertex@local@@V?$PxReflectionAllocator@PEAUQuickHullVertex@local@@@physx@@@physx@@IEAAXI@Z 00000001801a1030 f i GuCookingQuickHullConvexHullLib.obj
 0001:001a00d0       ?recreate@?$PxArray@UExpandPoint@local@@V?$PxReflectionAllocator@UExpandPoint@local@@@physx@@@physx@@IEAAXI@Z 00000001801a10d0 f i GuCookingQuickHullConvexHullLib.obj
 0001:001a0160       ?recreate@?$PxArray@VPxPlane@physx@@V?$PxReflectionAllocator@VPxPlane@physx@@@2@@physx@@IEAAXI@Z 00000001801a1160 f i GuCookingQuickHullConvexHullLib.obj
 0001:001a01f0       ?resolveUnclaimedPoints@QuickHull@local@@IEAAXAEBV?$PxArray@PEAUQuickHullFace@local@@V?$PxReflectionAllocator@PEAUQuickHullFace@local@@@physx@@@physx@@@Z 00000001801a11f0 f   GuCookingQuickHullConvexHullLib.obj
 0001:001a0470       ??$copy@V?$PxReflectionAllocator@VPair@@@physx@@@?$PxArray@VPair@@V?$PxReflectionAllocator@VPair@@@physx@@@physx@@IEAAXAEBV01@@Z 00000001801a1470 f i GuCookingConvexPolygonsBuilder.obj
 0001:001a04f0       ??0ConvexPolygonsBuilder@physx@@QEAA@PEAUConvexHullData@Gu@1@_N@Z 00000001801a14f0 f   GuCookingConvexPolygonsBuilder.obj
 0001:001a0510       ??1ConvexPolygonsBuilder@physx@@QEAA@XZ 00000001801a1510 f   GuCookingConvexPolygonsBuilder.obj
 0001:001a0d60       ?allocate@?$PxArray@VPair@@V?$PxReflectionAllocator@VPair@@@physx@@@physx@@IEAAPEAVPair@@I@Z 00000001801a1d60 f i GuCookingConvexPolygonsBuilder.obj
 0001:001a1840       ?computeHullPolygons@ConvexPolygonsBuilder@physx@@QEAA_NAEBIPEBV?$PxVec3T@M@2@0PEBI@Z 00000001801a2840 f   GuCookingConvexPolygonsBuilder.obj
 0001:001a2b00       ?createPolygonData@ConvexPolygonsBuilder@physx@@AEAA_NXZ 00000001801a3b00 f   GuCookingConvexPolygonsBuilder.obj
 0001:001a3560       ?createTrianglesFromPolygons@ConvexPolygonsBuilder@physx@@AEAA_NXZ 00000001801a4560 f   GuCookingConvexPolygonsBuilder.obj
 0001:001a4be0       ?growAndPushBack@?$PxArray@VPair@@V?$PxReflectionAllocator@VPair@@@physx@@@physx@@IEAAAEAVPair@@AEBV3@@Z 00000001801a5be0 f i GuCookingConvexPolygonsBuilder.obj
 0001:001a4d70       ??0ConvexMeshBuilder@physx@@QEAA@_N@Z 00000001801a5d70 f   GuCookingConvexMeshBuilder.obj
 0001:001a4de0       ??1ConvexMeshBuilder@physx@@QEAA@XZ 00000001801a5de0 f   GuCookingConvexMeshBuilder.obj
 0001:001a5270       ?build@ConvexMeshBuilder@physx@@QEAA_NAEBVPxConvexMeshDesc@2@I_NPEAVConvexHullLib@2@@Z 00000001801a6270 f   GuCookingConvexMeshBuilder.obj
 0001:001a5600       ?computeHullPolygons@ConvexMeshBuilder@physx@@QEAA_NAEBIPEBV?$PxVec3T@M@2@0PEBIAEAVPxAllocatorCallback@2@AEAIAEAPEAV32@4AEAPEAI4AEAPEAUPxHullPolygon@2@@Z 00000001801a6600 f   GuCookingConvexMeshBuilder.obj
 0001:001a5810       ?computeMassInfo@ConvexMeshBuilder@physx@@QEAAX_N@Z 00000001801a6810 f   GuCookingConvexMeshBuilder.obj
 0001:001a5ba0       ?computeSDF@ConvexMeshBuilder@physx@@QEAAXAEBVPxConvexMeshDesc@2@@Z 00000001801a6ba0 f   GuCookingConvexMeshBuilder.obj
 0001:001a5fb0       ?copy@ConvexMeshBuilder@physx@@QEAA_NAEAUConvexHullInitData@Gu@2@@Z 00000001801a6fb0 f   GuCookingConvexMeshBuilder.obj
 0001:001a6110       ?loadConvexHull@ConvexMeshBuilder@physx@@QEAA_NAEBVPxConvexMeshDesc@2@PEAVConvexHullLib@2@@Z 00000001801a7110 f   GuCookingConvexMeshBuilder.obj
 0001:001a6360       ?save@ConvexMeshBuilder@physx@@QEBA_NAEAVPxOutputStream@2@_N@Z 00000001801a7360 f   GuCookingConvexMeshBuilder.obj
 0001:001a6780       ??0ConvexHull@physx@@QEAA@AEBV?$PxVec3T@M@1@AEBV?$PxTransformT@M@1@AEBV?$PxArray@VPxPlane@physx@@V?$PxReflectionAllocator@VPxPlane@physx@@@2@@1@@Z 00000001801a7780 f   GuCookingConvexHullUtils.obj
 0001:001a78a0       ?allocate@?$PxArray@VHalfEdge@ConvexHull@physx@@V?$PxReflectionAllocator@VHalfEdge@ConvexHull@physx@@@3@@physx@@IEAAPEAVHalfEdge@ConvexHull@2@I@Z 00000001801a88a0 f i GuCookingConvexHullUtils.obj
 0001:001a7930       ?assertIntact@ConvexHull@physx@@QEBA_NM@Z 00000001801a8930 f   GuCookingConvexHullUtils.obj
 0001:001a7c50       ?computeOBBFromConvex@physx@@YA_NAEBVPxConvexMeshDesc@1@AEAV?$PxVec3T@M@1@AEAV?$PxTransformT@M@1@@Z 00000001801a8c50 f   GuCookingConvexHullUtils.obj
 0001:001a82b0       ?computeOBBSIMD@local@@YAXIPEBT__m128@@AEAT2@AEBT2@1@Z 00000001801a92b0 f   GuCookingConvexHullUtils.obj
 0001:001a8660       ?convexHullCrop@physx@@YAPEAVConvexHull@1@AEBV21@AEBVPxPlane@1@M@Z 00000001801a9660 f   GuCookingConvexHullUtils.obj
 0001:001a9460       ?findCandidatePlane@ConvexHull@physx@@QEBAHMM@Z 00000001801aa460 f   GuCookingConvexHullUtils.obj
 0001:001a98b0       ?growAndPushBack@?$PxArray@VHalfEdge@ConvexHull@physx@@V?$PxReflectionAllocator@VHalfEdge@ConvexHull@physx@@@3@@physx@@IEAAAEAVHalfEdge@ConvexHull@2@AEBV342@@Z 00000001801aa8b0 f i GuCookingConvexHullUtils.obj
 0001:001a9970       ?maxNumVertsPerFace@ConvexHull@physx@@QEBAIXZ 00000001801aa970 f   GuCookingConvexHullUtils.obj
 0001:001a99e0       ?recreate@?$PxArray@VHalfEdge@ConvexHull@physx@@V?$PxReflectionAllocator@VHalfEdge@ConvexHull@physx@@@3@@physx@@IEAAXI@Z 00000001801aa9e0 f i GuCookingConvexHullUtils.obj
 0001:001a9a80       ?resize@?$PxArray@VHalfEdge@ConvexHull@physx@@V?$PxReflectionAllocator@VHalfEdge@ConvexHull@physx@@@3@@physx@@QEAAXIAEBVHalfEdge@ConvexHull@2@@Z 00000001801aaa80 f i GuCookingConvexHullUtils.obj
 0001:001a9b40       ?resize@?$PxArray@VPxPlane@physx@@V?$PxReflectionAllocator@VPxPlane@physx@@@2@@physx@@QEAAXIAEBVPxPlane@2@@Z 00000001801aab40 f i GuCookingConvexHullUtils.obj
 0001:001a9c60       ??1ConvexHullLib@physx@@UEAA@XZ 00000001801aac60 f   GuCookingConvexHullLib.obj
 0001:001aa250       ?cleanupVertices@ConvexHullLib@physx@@IEAA_NIPEBV?$PxVec3T@M@2@IAEAIPEAV32@@Z 00000001801ab250 f   GuCookingConvexHullLib.obj
 0001:001aa390       ?shiftAndcleanupVertices@ConvexHullLib@physx@@IEAA_NIPEBV?$PxVec3T@M@2@IAEAIPEAV32@@Z 00000001801ab390 f   GuCookingConvexHullLib.obj
 0001:001aa970       ?shiftConvexMeshDesc@ConvexHullLib@physx@@IEAAXAEAVPxConvexMeshDesc@2@@Z 00000001801ab970 f   GuCookingConvexHullLib.obj
 0001:001aaa30       ?swapLargestFace@ConvexHullLib@physx@@IEAAXAEAVPxConvexMeshDesc@2@@Z 00000001801aba30 f   GuCookingConvexHullLib.obj
 0001:001aac60       ??0ConvexHullBuilder@physx@@QEAA@PEAUConvexHullData@Gu@1@_N@Z 00000001801abc60 f   GuCookingConvexHullBuilder.obj
 0001:001aac90       ??1ConvexHullBuilder@physx@@QEAA@XZ 00000001801abc90 f   GuCookingConvexHullBuilder.obj
 0001:001aada0       ?calculateVertexMapTable@ConvexHullBuilder@physx@@QEAA_NI_N@Z 00000001801abda0 f   GuCookingConvexHullBuilder.obj
 0001:001aaf60       ?checkHullPolygons@ConvexHullBuilder@physx@@QEBA_NXZ 00000001801abf60 f   GuCookingConvexHullBuilder.obj
 0001:001ab520       ?copy@ConvexHullBuilder@physx@@QEAA_NAEAUConvexHullData@Gu@2@AEAI@Z 00000001801ac520 f   GuCookingConvexHullBuilder.obj
 0001:001ab790       ?createEdgeList@ConvexHullBuilder@physx@@QEAA_N_NI@Z 00000001801ac790 f   GuCookingConvexHullBuilder.obj
 0001:001abed0       ?init@ConvexHullBuilder@physx@@QEAA_NIPEBV?$PxVec3T@M@2@PEBIIIPEBUPxHullPolygon@2@_NPEAVConvexHullLib@2@@Z 00000001801aced0 f   GuCookingConvexHullBuilder.obj
 0001:001ac810       ?save@ConvexHullBuilder@physx@@QEBA_NAEAVPxOutputStream@2@_N@Z 00000001801ad810 f   GuCookingConvexHullBuilder.obj
 0001:001acb30       ??0BigConvexDataBuilder@physx@@QEAA@PEBUConvexHullData@Gu@1@PEAVBigConvexData@1@PEBV?$PxVec3T@M@1@@Z 00000001801adb30 f   GuCookingBigConvexDataBuilder.obj
 0001:001acb40       ?computeValencies@BigConvexDataBuilder@physx@@QEAA_NAEBVConvexHullBuilder@2@@Z 00000001801adb40 f   GuCookingBigConvexDataBuilder.obj
 0001:001acf30       ?precompute@BigConvexDataBuilder@physx@@QEAA_NI@Z 00000001801adf30 f   GuCookingBigConvexDataBuilder.obj
 0001:001adb20       ?save@BigConvexDataBuilder@physx@@QEBA_NAEAVPxOutputStream@2@_N@Z 00000001801aeb20 f   GuCookingBigConvexDataBuilder.obj
 0001:001add0e       __imp_load_PxGetFoundation 00000001801aed0e f   PhysXFoundation_64:PhysXFoundation_64.dll
 0001:001add1a       __tailMerge_physxfoundation_64_dll 00000001801aed1a     PhysXFoundation_64:PhysXFoundation_64.dll
 0001:001add93       __imp_load_PxGetBroadcastAllocator 00000001801aed93 f   PhysXFoundation_64:PhysXFoundation_64.dll
 0001:001add9f       __imp_load_?PxAtomicIncrement@physx@@YAHPECH@Z 00000001801aed9f f   PhysXFoundation_64:PhysXFoundation_64.dll
 0001:001addab       __imp_load_??0PxMutexImpl@physx@@QEAA@XZ 00000001801aedab f   PhysXFoundation_64:PhysXFoundation_64.dll
 0001:001addb7       __imp_load_??1PxMutexImpl@physx@@QEAA@XZ 00000001801aedb7 f   PhysXFoundation_64:PhysXFoundation_64.dll
 0001:001addc3       __imp_load_?lock@PxMutexImpl@physx@@QEAAXXZ 00000001801aedc3 f   PhysXFoundation_64:PhysXFoundation_64.dll
 0001:001addcf       __imp_load_?unlock@PxMutexImpl@physx@@QEAAXXZ 00000001801aedcf f   PhysXFoundation_64:PhysXFoundation_64.dll
 0001:001adddb       __imp_load_?getSize@PxMutexImpl@physx@@SAIXZ 00000001801aeddb f   PhysXFoundation_64:PhysXFoundation_64.dll
 0001:001adde7       __imp_load_?PxAtomicDecrement@physx@@YAHPECH@Z 00000001801aede7 f   PhysXFoundation_64:PhysXFoundation_64.dll
 0001:001addf3       __imp_load_?PxTransformFromSegment@physx@@YA?AV?$PxTransformT@M@1@AEBV?$PxVec3T@M@1@0PEAM@Z 00000001801aedf3 f   PhysXFoundation_64:PhysXFoundation_64.dll
 0001:001addff       __imp_load_?PxAtomicAdd@physx@@YAHPECHH@Z 00000001801aedff f   PhysXFoundation_64:PhysXFoundation_64.dll
 0001:001ade0b       __imp_load_?getDefaultStackSize@PxThreadImpl@physx@@SAIXZ 00000001801aee0b f   PhysXFoundation_64:PhysXFoundation_64.dll
 0001:001ade17       __imp_load_??0PxThreadImpl@physx@@QEAA@P6APEAXPEAX@Z0PEBD@Z 00000001801aee17 f   PhysXFoundation_64:PhysXFoundation_64.dll
 0001:001ade23       __imp_load_??1PxThreadImpl@physx@@QEAA@XZ 00000001801aee23 f   PhysXFoundation_64:PhysXFoundation_64.dll
 0001:001ade2f       __imp_load_?start@PxThreadImpl@physx@@QEAAXIPEAVPxRunnable@2@@Z 00000001801aee2f f   PhysXFoundation_64:PhysXFoundation_64.dll
 0001:001ade3b       __imp_load_?waitForQuit@PxThreadImpl@physx@@QEAA_NXZ 00000001801aee3b f   PhysXFoundation_64:PhysXFoundation_64.dll
 0001:001ade47       __imp_load_?getSize@PxThreadImpl@physx@@SAIXZ 00000001801aee47 f   PhysXFoundation_64:PhysXFoundation_64.dll
 0001:001ade53       __imp_load_?allocate@PxTempAllocator@physx@@QEAAPEAX_KPEBDH@Z 00000001801aee53 f   PhysXFoundation_64:PhysXFoundation_64.dll
 0001:001ade5f       __imp_load_?deallocate@PxTempAllocator@physx@@QEAAXPEAX@Z 00000001801aee5f f   PhysXFoundation_64:PhysXFoundation_64.dll
 0001:001ade6b       __imp_load_?PxOptimizeBoundingBox@physx@@YA?AV?$PxVec3T@M@1@AEAV?$PxMat33T@M@1@@Z 00000001801aee6b f   PhysXFoundation_64:PhysXFoundation_64.dll
 0001:001ade77       __imp_load_??0PxFPUGuard@physx@@QEAA@XZ 00000001801aee77 f   PhysXFoundation_64:PhysXFoundation_64.dll
 0001:001ade83       __imp_load_??1PxFPUGuard@physx@@QEAA@XZ 00000001801aee83 f   PhysXFoundation_64:PhysXFoundation_64.dll
 0001:001ade8f       __imp_load_?PxDiagonalize@physx@@YA?AV?$PxVec3T@M@1@AEBV?$PxMat33T@M@1@AEAV?$PxQuatT@M@1@@Z 00000001801aee8f f   PhysXFoundation_64:PhysXFoundation_64.dll
 0001:001ade9c       ?DloadAcquireSectionWriteAccess@@YAXXZ 00000001801aee9c f i Delayimp:delayhlp.obj
 0001:001adf48       ?DloadGetSRWLockFunctionPointers@@YAEXZ 00000001801aef48 f i Delayimp:delayhlp.obj
 0001:001adfe8       ?DloadMakePermanentImageCommit@@YAXPEAX_K@Z 00000001801aefe8 f i Delayimp:delayhlp.obj
 0001:001ae080       ?DloadObtainSection@@YAPEAXPEAK0@Z 00000001801af080 f i Delayimp:delayhlp.obj
 0001:001ae11c       ?DloadProtectSection@@YAXKPEAK@Z 00000001801af11c f i Delayimp:delayhlp.obj
 0001:001ae1ac       ?DloadReleaseSectionWriteAccess@@YAXXZ 00000001801af1ac f i Delayimp:delayhlp.obj
 0001:001ae240       __delayLoadHelper2         00000001801af240 f   Delayimp:delayhlp.obj
 0001:001ae518       ??3@YAXPEAX_K@Z            00000001801af518 f   LIBCMT:delete_scalar_size.obj
 0001:001ae518       ??_V@YAXPEAX@Z             00000001801af518 f   LIBCMT:delete_array.obj
 0001:001ae520       ??_Etype_info@@UEAAPEAXI@Z 00000001801af520 f i LIBCMT:std_type_info_static.obj
 0001:001ae520       ??_Gtype_info@@UEAAPEAXI@Z 00000001801af520 f i LIBCMT:std_type_info_static.obj
 0001:001ae54c       ?__scrt_initialize_type_info@@YAXXZ 00000001801af54c f   LIBCMT:tncleanup.obj
 0001:001ae55c       ?__scrt_uninitialize_type_info@@YAXXZ 00000001801af55c f   LIBCMT:tncleanup.obj
 0001:001ae580       __chkstk                   00000001801af580 f   LIBCMT:chkstk.obj
 0001:001ae580       _alloca_probe              00000001801af580 f   LIBCMT:chkstk.obj
 0001:001ae5d0       __vdecl_sinf4              00000001801af5d0 f   LIBCMT:svml_ssinf4_dispatch.obj
 0001:001ae5f0       __libm_sse2_sincosf_       00000001801af5f0 f   LIBCMT:svml_ssinf4_dispatch.obj
 0001:001ae633       __libm_sse2_sincosf4_      00000001801af633 f   LIBCMT:svml_ssinf4_dispatch.obj
 0001:001ae640       ??3@YAXPEAX@Z              00000001801af640 f   LIBCMT:delete_scalar.obj
 0001:001ae648       __scrt_acquire_startup_lock 00000001801af648 f   LIBCMT:utility.obj
 0001:001ae684       __scrt_dllmain_after_initialize_c 00000001801af684 f   LIBCMT:utility.obj
 0001:001ae6b8       __scrt_dllmain_before_initialize_c 00000001801af6b8 f   LIBCMT:utility.obj
 0001:001ae6d0       __scrt_dllmain_crt_thread_attach 00000001801af6d0 f   LIBCMT:utility.obj
 0001:001ae6f8       __scrt_dllmain_crt_thread_detach 00000001801af6f8 f   LIBCMT:utility.obj
 0001:001ae710       __scrt_dllmain_exception_filter 00000001801af710 f   LIBCMT:utility.obj
 0001:001ae770       __scrt_dllmain_uninitialize_c 00000001801af770 f   LIBCMT:utility.obj
 0001:001ae7a0       __scrt_dllmain_uninitialize_critical 00000001801af7a0 f   LIBCMT:utility.obj
 0001:001ae7b4       __scrt_initialize_crt      00000001801af7b4 f   LIBCMT:utility.obj
 0001:001ae800       __scrt_initialize_onexit_tables 00000001801af800 f   LIBCMT:utility.obj
 0001:001ae88c       __scrt_is_nonwritable_in_current_image 00000001801af88c f   LIBCMT:utility.obj
 0001:001ae924       __scrt_release_startup_lock 00000001801af924 f   LIBCMT:utility.obj
 0001:001ae948       __scrt_uninitialize_crt    00000001801af948 f   LIBCMT:utility.obj
 0001:001ae974       _onexit                    00000001801af974 f   LIBCMT:utility.obj
 0001:001ae9b0       atexit                     00000001801af9b0 f   LIBCMT:utility.obj
 0001:001ae9c8       __isa_available_init       00000001801af9c8 f   LIBCMT:cpu_disp.obj
 0001:001aee94       _DllMainCRTStartup         00000001801afe94 f   LIBCMT:dll_dllmain.obj
 0001:001aeee0       __sse2_sinf4@@16           00000001801afee0 f   LIBCMT:svml_ssinf4_sse2.obj
 0001:001af820       __sse4_sinf4@@16           00000001801b0820 f   LIBCMT:svml_ssinf4_sse4.obj
 0001:001aff94       __scrt_is_ucrt_dll_in_use  00000001801b0f94 f   LIBCMT:ucrt_detection.obj
 0001:001affa0       __crt_debugger_hook        00000001801b0fa0 f   LIBCMT:utility_desktop.obj
 0001:001affa8       __scrt_fastfail            00000001801b0fa8 f   LIBCMT:utility_desktop.obj
 0001:001b00f4       __security_init_cookie     00000001801b10f4 f   LIBCMT:gs_support.obj
 0001:001b01a0       __local_stdio_scanf_options 00000001801b11a0 f i LIBCMT:default_local_stdio_options.obj
 0001:001b01a8       __scrt_initialize_default_local_stdio_options 00000001801b11a8 f   LIBCMT:default_local_stdio_options.obj
 0001:001b01c4       __scrt_get_dyn_tls_init_callback 00000001801b11c4 f   LIBCMT:dyn_tls_init.obj
 0001:001b01cc       _RTC_Initialize            00000001801b11cc f   LIBCMT:initsect.obj
 0001:001b0208       _RTC_Terminate             00000001801b1208 f   LIBCMT:initsect.obj
 0001:001b0250       __common_ssin_cout_rare    00000001801b1250 f   LIBCMT:svml_s_sin_cout.obj
 0001:001b02d0       memcpy_repmovs             00000001801b12d0 f   libvcruntime:memcpy.obj
 0001:001b02f0       memcpy                     00000001801b12f0 f   libvcruntime:memcpy.obj
 0001:001b02f0       memmove                    00000001801b12f0 f   libvcruntime:memcpy.obj
 0001:001b0968       _get_purecall_handler      00000001801b1968 f   libvcruntime:purevirt.obj
 0001:001b0974       _purecall                  00000001801b1974 f   libvcruntime:purevirt.obj
 0001:001b0998       __std_type_info_compare    00000001801b1998 f   libvcruntime:std_type_info.obj
 0001:001b09c0       __std_type_info_destroy_list 00000001801b19c0 f   libvcruntime:std_type_info.obj
 0001:001b09ec       __std_type_info_name       00000001801b19ec f   libvcruntime:std_type_info.obj
 0001:001b0b20       memset_repstos             00000001801b1b20 f   libvcruntime:memset.obj
 0001:001b0b40       memset                     00000001801b1b40 f   libvcruntime:memset.obj
 0001:001b0ec8       strstr                     00000001801b1ec8 f   libvcruntime:strstr.obj
 0001:001b10c0       __vcrt_initialize          00000001801b20c0 f   libvcruntime:initialization.obj
 0001:001b10e8       __vcrt_thread_attach       00000001801b20e8 f   libvcruntime:initialization.obj
 0001:001b10fc       __vcrt_thread_detach       00000001801b20fc f   libvcruntime:initialization.obj
 0001:001b1110       __vcrt_uninitialize        00000001801b2110 f   libvcruntime:initialization.obj
 0001:001b112c       __vcrt_uninitialize_critical 00000001801b212c f   libvcruntime:initialization.obj
 0001:001b113c       __C_specific_handler       00000001801b213c f   libvcruntime:riscchandler.obj
 0001:001b1334       __DestructExceptionObject  00000001801b2334 f   libvcruntime:ehhelpers.obj
 0001:001b13a4       ?_CallMemberFunction0@@YAXQEAX0@Z 00000001801b23a4 f i libvcruntime:ehhelpers.obj
 0001:001b13a8       _IsExceptionObjectToBeDestroyed 00000001801b23a8 f   libvcruntime:ehhelpers.obj
 0001:001b13d8       __AdjustPointer            00000001801b23d8 f   libvcruntime:ehhelpers.obj
 0001:001b13fc       __FrameUnwindFilter        00000001801b23fc f   libvcruntime:ehhelpers.obj
 0001:001b1464       __std_terminate            00000001801b2464 f   libvcruntime:ehhelpers.obj
 0001:001b1470       ??$?0$00@DName@@QEAA@PEBDU?$StringLifeSelector@$00@@@Z 00000001801b2470 f i libvcruntime:undname.obj
 0001:001b14b0       ??$?0$01@DName@@QEAA@PEBDU?$StringLifeSelector@$01@@@Z 00000001801b24b0 f i libvcruntime:undname.obj
 0001:001b14b0       ??$?0$0A@@DName@@QEAA@PEBDU?$StringLifeSelector@$0A@@@@Z 00000001801b24b0 f i libvcruntime:undname.obj
 0001:001b14f0       ??$?0$01@pcharNode@@QEAA@PEBDHU?$StringLifeSelector@$01@@@Z 00000001801b24f0 f i libvcruntime:undname.obj
 0001:001b14f0       ??$?0$0A@@pcharNode@@QEAA@PEBDHU?$StringLifeSelector@$0A@@@@Z 00000001801b24f0 f i libvcruntime:undname.obj
 0001:001b1564       ??$append@VDNameNode@@@DName@@AEAAXPEBVDNameNode@@@Z 00000001801b2564 f i libvcruntime:undname.obj
 0001:001b1564       ??$append@VDNameStatusNode@@@DName@@AEAAXPEBVDNameStatusNode@@@Z 00000001801b2564 f i libvcruntime:undname.obj
 0001:001b1564       ??$append@VcharNode@@@DName@@AEAAXPEBVcharNode@@@Z 00000001801b2564 f i libvcruntime:undname.obj
 0001:001b1564       ??$append@VpcharNode@@@DName@@AEAAXPEBVpcharNode@@@Z 00000001801b2564 f i libvcruntime:undname.obj
 0001:001b15c8       ??$doPchar@$00@DName@@AEAAXPEBDH@Z 00000001801b25c8 f i libvcruntime:undname.obj
 0001:001b166c       ??$doPchar@$01@DName@@AEAAXPEBDH@Z 00000001801b266c f i libvcruntime:undname.obj
 0001:001b166c       ??$doPchar@$0A@@DName@@AEAAXPEBDH@Z 00000001801b266c f i libvcruntime:undname.obj
 0001:001b1704       ??0DName@@QEAA@AEAPEBDD@Z  00000001801b2704 f   libvcruntime:undname.obj
 0001:001b17b4       ??0DName@@QEAA@AEBUStringLiteral@@@Z 00000001801b27b4 f   libvcruntime:undname.obj
 0001:001b17e0       ??0DName@@QEAA@PEAV0@@Z    00000001801b27e0 f   libvcruntime:undname.obj
 0001:001b1864       ??0DName@@QEAA@_J@Z        00000001801b2864 f   libvcruntime:undname.obj
 0001:001b190c       ??0DName@@QEAA@_K@Z        00000001801b290c f   libvcruntime:undname.obj
 0001:001b199c       ??2@YAPEAX_KAEAV_HeapManager@@H@Z 00000001801b299c f   libvcruntime:undname.obj
 0001:001b19c8       ??4DName@@QEAAAEAV0@W4DNameStatus@@@Z 00000001801b29c8 f   libvcruntime:undname.obj
 0001:001b19f8       ??AReplicator@@QEBA?AVDName@@H@Z 00000001801b29f8 f   libvcruntime:undname.obj
 0001:001b1a38       ??HDName@@QEBA?AV0@AEBUStringLiteral@@@Z 00000001801b2a38 f   libvcruntime:undname.obj
 0001:001b1a64       ??HDName@@QEBA?AV0@AEBV0@@Z 00000001801b2a64 f   libvcruntime:undname.obj
 0001:001b1a90       ??HDName@@QEBA?AV0@D@Z     00000001801b2a90 f   libvcruntime:undname.obj
 0001:001b1abc       ??HDName@@QEBA?AV0@W4DNameStatus@@@Z 00000001801b2abc f   libvcruntime:undname.obj
 0001:001b1ae8       ??YDName@@QEAAAEAV0@AEBUStringLiteral@@@Z 00000001801b2ae8 f   libvcruntime:undname.obj
 0001:001b1b68       ??YDName@@QEAAAEAV0@AEBV0@@Z 00000001801b2b68 f   libvcruntime:undname.obj
 0001:001b1bc0       ??YDName@@QEAAAEAV0@D@Z    00000001801b2bc0 f   libvcruntime:undname.obj
 0001:001b1c2c       ??YDName@@QEAAAEAV0@W4DNameStatus@@@Z 00000001801b2c2c f   libvcruntime:undname.obj
 0001:001b1c84       ??YReplicator@@QEAAAEAV0@AEBVDName@@@Z 00000001801b2c84 f   libvcruntime:undname.obj
 0001:001b1cdc       ?UScore@UnDecorator@@SA?AUStringLiteral@@W4Tokens@@@Z 00000001801b2cdc f   libvcruntime:undname.obj
 0001:001b1d28       ?composeDeclaration@UnDecorator@@CA?AVDName@@AEBV2@@Z 00000001801b2d28 f i libvcruntime:undname.obj
 0001:001b2c1c       ?doPchar@DName@@AEAAXD@Z   00000001801b3c1c f   libvcruntime:undname.obj
 0001:001b2c6c       ?getAddressOf@UnDecorator@@CA?AVDName@@XZ 00000001801b3c6c f   libvcruntime:undname.obj
 0001:001b2cfc       ?getArgumentList@UnDecorator@@CA?AVDName@@XZ 00000001801b3cfc f   libvcruntime:undname.obj
 0001:001b2eb0       ?getArgumentTypes@UnDecorator@@CA?AVDName@@XZ 00000001801b3eb0 f   libvcruntime:undname.obj
 0001:001b2ffc       ?getArrayAccess@UnDecorator@@CA?AVDName@@XZ 00000001801b3ffc f   libvcruntime:undname.obj
 0001:001b3098       ?getArrayObject@UnDecorator@@CA?AVDName@@XZ 00000001801b4098 f   libvcruntime:undname.obj
 0001:001b3154       ?getArrayType@UnDecorator@@CA?AVDName@@AEBV2@@Z 00000001801b4154 f i libvcruntime:undname.obj
 0001:001b33c0       ?getBasedType@UnDecorator@@CA?AVDName@@XZ 00000001801b43c0 f   libvcruntime:undname.obj
 0001:001b34b8       ?getBasicDataType@UnDecorator@@CA?AVDName@@AEBV2@@Z 00000001801b44b8 f   libvcruntime:undname.obj
 0001:001b3abc       ?getCallingConvention@UnDecorator@@CA?AVDName@@XZ 00000001801b4abc f   libvcruntime:undname.obj
 0001:001b3bf4       ?getDataIndirectType@UnDecorator@@CA?AVDName@@AEBV2@W4IndirectionKind@@0H@Z 00000001801b4bf4 f   libvcruntime:undname.obj
 0001:001b4518       ?getDataType@UnDecorator@@CA?AVDName@@PEAV2@@Z 00000001801b5518 f   libvcruntime:undname.obj
 0001:001b462c       ?getDecoratedName@UnDecorator@@CA?AVDName@@XZ 00000001801b562c f   libvcruntime:undname.obj
 0001:001b4914       ?getDimension@UnDecorator@@CA?AVDName@@_N@Z 00000001801b5914 f   libvcruntime:undname.obj
 0001:001b4a5c       ?getDispatchTarget@UnDecorator@@CA?AVDName@@XZ 00000001801b5a5c f   libvcruntime:undname.obj
 0001:001b4abc       ?getECSUDataType@UnDecorator@@CA?AVDName@@XZ 00000001801b5abc f   libvcruntime:undname.obj
 0001:001b4cb8       ?getEnumType@UnDecorator@@CA?AVDName@@XZ 00000001801b5cb8 f i libvcruntime:undname.obj
 0001:001b4de8       ?getExtendedDataIndirectType@UnDecorator@@CA?AVDName@@AEAW4IndirectionKind@@AEA_NH@Z 00000001801b5de8 f   libvcruntime:undname.obj
 0001:001b4fec       ?getExternalDataType@UnDecorator@@CA?AVDName@@AEBV2@@Z 00000001801b5fec f i libvcruntime:undname.obj
 0001:001b50ac       ?getFloatingPoint@UnDecorator@@CA?AVDName@@H@Z 00000001801b60ac f   libvcruntime:undname.obj
 0001:001b5214       ?getFunctionIndirectType@UnDecorator@@CA?AVDName@@AEBV2@@Z 00000001801b6214 f   libvcruntime:undname.obj
 0001:001b5748       ?getLastChar@DNameStatusNode@@UEBADXZ 00000001801b6748 f i libvcruntime:undname.obj
 0001:001b5754       ?getLastChar@charNode@@UEBADXZ 00000001801b6754 f i libvcruntime:undname.obj
 0001:001b5758       ?getLastChar@pDNameNode@@UEBADXZ 00000001801b6758 f i libvcruntime:undname.obj
 0001:001b5784       ?getLastChar@pairNode@@UEBADXZ 00000001801b6784 f i libvcruntime:undname.obj
 0001:001b57bc       ?getLastChar@pcharNode@@UEBADXZ 00000001801b67bc f i libvcruntime:undname.obj
 0001:001b57d0       ?getLexicalFrame@UnDecorator@@CA?AVDName@@XZ 00000001801b67d0 f i libvcruntime:undname.obj
 0001:001b5834       ?getMemberAccess@UnDecorator@@CA?AVDName@@XZ 00000001801b6834 f   libvcruntime:undname.obj
 0001:001b58c8       ?getMemoryWithBuffer@_HeapManager@@QEAAPEAX_K@Z 00000001801b68c8 f   libvcruntime:undname.obj
 0001:001b5958       ?getNoexcept@UnDecorator@@CA?AVDName@@XZ 00000001801b6958 f   libvcruntime:undname.obj
 0001:001b59bc       ?getNumberOfDimensions@UnDecorator@@CAHXZ 00000001801b69bc f   libvcruntime:undname.obj
 0001:001b5a24       ?getOperatorName@UnDecorator@@CA?AVDName@@_NPEA_N@Z 00000001801b6a24 f i libvcruntime:undname.obj
 0001:001b63d4       ?getPointerToMember@UnDecorator@@CA?AVDName@@XZ 00000001801b73d4 f   libvcruntime:undname.obj
 0001:001b64cc       ?getPrimaryDataType@UnDecorator@@CA?AVDName@@AEBV2@@Z 00000001801b74cc f   libvcruntime:undname.obj
 0001:001b6784       ?getPtrRefDataType@UnDecorator@@CA?AVDName@@AEBV2@H@Z 00000001801b7784 f   libvcruntime:undname.obj
 0001:001b6950       ?getPtrRefType@UnDecorator@@CA?AVDName@@AEBV2@0W4IndirectionKind@@@Z 00000001801b7950 f   libvcruntime:undname.obj
 0001:001b6b28       ?getRestrictionSpec@UnDecorator@@CA?AVDName@@XZ 00000001801b7b28 f   libvcruntime:undname.obj
 0001:001b6d04       ?getReturnType@UnDecorator@@CA?AVDName@@PEAV2@@Z 00000001801b7d04 f   libvcruntime:undname.obj
 0001:001b6d38       ?getScope@UnDecorator@@CA?AVDName@@XZ 00000001801b7d38 f   libvcruntime:undname.obj
 0001:001b71f0       ?getScopedName@UnDecorator@@CA?AVDName@@XZ 00000001801b81f0 f   libvcruntime:undname.obj
 0001:001b7330       ?getSignedDimension@UnDecorator@@CA?AVDName@@XZ 00000001801b8330 f   libvcruntime:undname.obj
 0001:001b73b8       ?getString@DNameStatusNode@@UEBAPEADPEAD0@Z 00000001801b83b8 f i libvcruntime:undname.obj
 0001:001b7400       ?getString@charNode@@UEBAPEADPEAD0@Z 00000001801b8400 f i libvcruntime:undname.obj
 0001:001b7414       ?getString@pDNameNode@@UEBAPEADPEAD0@Z 00000001801b8414 f i libvcruntime:undname.obj
 0001:001b7444       ?getString@pairNode@@UEBAPEADPEAD0@Z 00000001801b8444 f i libvcruntime:undname.obj
 0001:001b7490       ?getString@pcharNode@@UEBAPEADPEAD0@Z 00000001801b8490 f i libvcruntime:undname.obj
 0001:001b74c8       ?getStringEncoding@UnDecorator@@CA?AVDName@@W4PrefixKind@@H@Z 00000001801b84c8 f   libvcruntime:undname.obj
 0001:001b75d8       ?getStringObject@UnDecorator@@CA?AVDName@@XZ 00000001801b85d8 f   libvcruntime:undname.obj
 0001:001b7640       ?getSymbolName@UnDecorator@@CA?AVDName@@XZ 00000001801b8640 f i libvcruntime:undname.obj
 0001:001b768c       ?getTemplateArgumentList@UnDecorator@@CA?AVDName@@XZ 00000001801b868c f   libvcruntime:undname.obj
 0001:001b78a8       ?getTemplateName@UnDecorator@@CA?AVDName@@_N@Z 00000001801b88a8 f   libvcruntime:undname.obj
 0001:001b7b3c       ?getTemplateNonTypeArgument@UnDecorator@@CA?AVDName@@XZ 00000001801b8b3c f   libvcruntime:undname.obj
 0001:001b808c       ?getTemplateTypeArgument@UnDecorator@@CA?AVDName@@XZ 00000001801b908c f   libvcruntime:undname.obj
 0001:001b81f4       ?getThrowTypes@UnDecorator@@CA?AVDName@@XZ 00000001801b91f4 f   libvcruntime:undname.obj
 0001:001b8218       ?getTypeEncoding@UnDecorator@@CAHXZ 00000001801b9218 f i libvcruntime:undname.obj
 0001:001b85d4       ?getUndecoratedName@UnDecorator@@QEAAPEADPEADH@Z 00000001801b95d4 f i libvcruntime:undname.obj
 0001:001b8728       ?getUnionObject@UnDecorator@@CA?AVDName@@XZ 00000001801b9728 f   libvcruntime:undname.obj
 0001:001b8800       ?getVCallThunkType@UnDecorator@@CA?AVDName@@XZ 00000001801b9800 f i libvcruntime:undname.obj
 0001:001b8878       ?getValue@UnDecorator@@CA?AV?$optional@_K@std@@XZ 00000001801b9878 f   libvcruntime:undname.obj
 0001:001b88c8       ?getValueObject@UnDecorator@@CA?AVDName@@XZ 00000001801b98c8 f   libvcruntime:undname.obj
 0001:001b8a08       ?getVdispMapType@UnDecorator@@CA?AVDName@@AEBV2@@Z 00000001801b9a08 f i libvcruntime:undname.obj
 0001:001b8a84       ?getVfTableType@UnDecorator@@CA?AVDName@@AEBV2@@Z 00000001801b9a84 f i libvcruntime:undname.obj
 0001:001b8c90       ?getZName@UnDecorator@@CA?AVDName@@_N0@Z 00000001801b9c90 f   libvcruntime:undname.obj
 0001:001b8f64       ?length@pDNameNode@@UEBAHXZ 00000001801b9f64 f i libvcruntime:undname.obj
 0001:001b8f8c       ?length@pairNode@@UEBAHXZ  00000001801b9f8c f i libvcruntime:undname.obj
 0001:001b8fd4       ?parseDecoratedName@UnDecorator@@CA?AVDName@@XZ 00000001801b9fd4 f   libvcruntime:undname.obj
 0001:001b90ec       ?raw_length@pDNameNode@@UEBAHXZ 00000001801ba0ec f i libvcruntime:undname.obj
 0001:001b90f0       ?raw_length@pairNode@@UEBAHXZ 00000001801ba0f0 f i libvcruntime:undname.obj
 0001:001b90f4       __unDName                  00000001801ba0f4 f   libvcruntime:undname.obj
 0001:001b911c       __unDNameEx                00000001801ba11c f   libvcruntime:undname.obj
 0001:001b9250       snprintf                   00000001801ba250 f i libvcruntime:undname.obj
 0001:001b92a8       sprintf_s                  00000001801ba2a8 f i libvcruntime:undname.obj
 0001:001b92fc       __vcrt_freefls             00000001801ba2fc f   libvcruntime:per_thread_data.obj
 0001:001b931c       __vcrt_freeptd             00000001801ba31c f   libvcruntime:per_thread_data.obj
 0001:001b936c       __vcrt_getptd              00000001801ba36c f   libvcruntime:per_thread_data.obj
 0001:001b9388       __vcrt_getptd_noexit       00000001801ba388 f   libvcruntime:per_thread_data.obj
 0001:001b9448       __vcrt_initialize_ptd      00000001801ba448 f   libvcruntime:per_thread_data.obj
 0001:001b9490       __vcrt_uninitialize_ptd    00000001801ba490 f   libvcruntime:per_thread_data.obj
 0001:001b94b4       __vcrt_initialize_locks    00000001801ba4b4 f   libvcruntime:locks.obj
 0001:001b94fc       __vcrt_lock                00000001801ba4fc f   libvcruntime:locks.obj
 0001:001b9518       __vcrt_uninitialize_locks  00000001801ba518 f   libvcruntime:locks.obj
 0001:001b9550       __vcrt_unlock              00000001801ba550 f   libvcruntime:locks.obj
 0001:001b9580       _NLG_Notify                00000001801ba580 f   libvcruntime:notify.obj
 0001:001b95a0       __NLG_Dispatch2            00000001801ba5a0 f   libvcruntime:notify.obj
 0001:001b95b0       __NLG_Return2              00000001801ba5b0 f   libvcruntime:notify.obj
 0001:001b95b4       __except_validate_context_record 00000001801ba5b4 f   libvcruntime:jbcxrval.obj
 0001:001b95ec       ??$_CallSETranslator@V__FrameHandler3@@@@YAHPEAUEHExceptionRecord@@PEA_KPEAU_CONTEXT@@PEAU_xDISPATCHER_CONTEXT@@PEBU_s_FuncInfo@@K1H@Z 00000001801ba5ec f i libvcruntime:risctrnsctrl.obj
 0001:001b9640       ??$_CallSETranslator@V__FrameHandler4@@@@YAHPEAUEHExceptionRecord@@PEA_KPEAU_CONTEXT@@PEAU_xDISPATCHER_CONTEXT@@PEAUFuncInfo4@FH4@@K1H@Z 00000001801ba640 f i libvcruntime:risctrnsctrl.obj
 0001:001b9694       ?CatchTryBlock@__FrameHandler3@@SAPEBU_s_TryBlockMapEntry@@PEBU_s_FuncInfo@@H@Z 00000001801ba694 f   libvcruntime:risctrnsctrl.obj
 0001:001b96f8       ?DecompFuncInfo@FH4@@YA_JPEAEAEAUFuncInfo4@1@_KH_N@Z 00000001801ba6f8 f i libvcruntime:risctrnsctrl.obj
 0001:001b982c       ?ExecutionInCatch@__FrameHandler3@@SA_NPEAU_xDISPATCHER_CONTEXT@@PEBU_s_FuncInfo@@@Z 00000001801ba82c f   libvcruntime:risctrnsctrl.obj
 0001:001b9858       ?ExecutionInCatch@__FrameHandler4@@SA_NPEAU_xDISPATCHER_CONTEXT@@PEAUFuncInfo4@FH4@@@Z 00000001801ba858 f   libvcruntime:risctrnsctrl.obj
 0001:001b9860       ?FrameUnwindToEmptyState@__FrameHandler3@@SAXPEA_KPEAU_xDISPATCHER_CONTEXT@@PEBU_s_FuncInfo@@@Z 00000001801ba860 f   libvcruntime:risctrnsctrl.obj
 0001:001b98c4       ?FrameUnwindToEmptyState@__FrameHandler4@@SAXPEA_KPEAU_xDISPATCHER_CONTEXT@@PEAUFuncInfo4@FH4@@@Z 00000001801ba8c4 f   libvcruntime:risctrnsctrl.obj
 0001:001b98f8       ?GetEstablisherFrame@__FrameHandler3@@SAPEA_KPEA_KPEAU_xDISPATCHER_CONTEXT@@PEBU_s_FuncInfo@@0@Z 00000001801ba8f8 f   libvcruntime:risctrnsctrl.obj
 0001:001b99c4       ?GetEstablisherFrame@__FrameHandler4@@SAPEA_KPEA_KPEAU_xDISPATCHER_CONTEXT@@PEAUFuncInfo4@FH4@@0@Z 00000001801ba9c4 f   libvcruntime:risctrnsctrl.obj
 0001:001b99e8       ?GetRangeOfTrysToCheck@__FrameHandler3@@SA?AU?$pair@Viterator@TryBlockMap@__FrameHandler3@@V123@@std@@AEAVTryBlockMap@1@HPEAU_xDISPATCHER_CONTEXT@@PEBU_s_FuncInfo@@H@Z 00000001801ba9e8 f   libvcruntime:risctrnsctrl.obj
 0001:001b9b28       ?GetRangeOfTrysToCheck@__FrameHandler4@@SA?AU?$pair@Viterator@TryBlockMap4@FH4@@V123@@std@@AEAVTryBlockMap4@FH4@@HPEAU_xDISPATCHER_CONTEXT@@PEAUFuncInfo4@5@H@Z 00000001801bab28 f   libvcruntime:risctrnsctrl.obj
 0001:001b9c94       ?UnwindNestedFrames@__FrameHandler3@@SAXPEA_KPEAUEHExceptionRecord@@PEAU_CONTEXT@@0PEAXPEBU_s_FuncInfo@@HHPEBU_s_HandlerType@@PEAU_xDISPATCHER_CONTEXT@@E@Z 00000001801bac94 f   libvcruntime:risctrnsctrl.obj
 0001:001b9d98       ?UnwindNestedFrames@__FrameHandler4@@SAXPEA_KPEAUEHExceptionRecord@@PEAU_CONTEXT@@0PEAXPEAUFuncInfo4@FH4@@HHPEAUHandlerType4@5@PEAU_xDISPATCHER_CONTEXT@@E@Z 00000001801bad98 f   libvcruntime:risctrnsctrl.obj
 0001:001b9eb8       ?setBuffer@TryBlockMap4@FH4@@QEAAXViterator@12@@Z 00000001801baeb8 f i libvcruntime:risctrnsctrl.obj
 0001:001ba07c       _CreateFrameInfo           00000001801bb07c f   libvcruntime:risctrnsctrl.obj
 0001:001ba0b8       _FindAndUnlinkFrame        00000001801bb0b8 f   libvcruntime:risctrnsctrl.obj
 0001:001ba10c       _GetImageBase              00000001801bb10c f   libvcruntime:risctrnsctrl.obj
 0001:001ba120       _GetThrowImageBase         00000001801bb120 f   libvcruntime:risctrnsctrl.obj
 0001:001ba134       _SetImageBase              00000001801bb134 f   libvcruntime:risctrnsctrl.obj
 0001:001ba14c       _SetThrowImageBase         00000001801bb14c f   libvcruntime:risctrnsctrl.obj
 0001:001ba164       __CxxFrameHandler3         00000001801bb164 f   libvcruntime:risctrnsctrl.obj
 0001:001ba1ec       __CxxFrameHandler4         00000001801bb1ec f   libvcruntime:risctrnsctrl.obj
 0001:001ba3fc       __vcrt_FlsAlloc            00000001801bb3fc f   libvcruntime:winapi_downlevel.obj
 0001:001ba444       __vcrt_FlsFree             00000001801bb444 f   libvcruntime:winapi_downlevel.obj
 0001:001ba48c       __vcrt_FlsGetValue         00000001801bb48c f   libvcruntime:winapi_downlevel.obj
 0001:001ba4d4       __vcrt_FlsSetValue         00000001801bb4d4 f   libvcruntime:winapi_downlevel.obj
 0001:001ba528       __vcrt_InitializeCriticalSectionEx 00000001801bb528 f   libvcruntime:winapi_downlevel.obj
 0001:001ba58c       ?GetCurrentState@__FrameHandler3@@SAHPEA_KPEAU_xDISPATCHER_CONTEXT@@PEBU_s_FuncInfo@@@Z 00000001801bb58c f   libvcruntime:ehstate.obj
 0001:001ba5b4       ?GetUnwindTryBlock@__FrameHandler3@@SAHPEA_KPEAU_xDISPATCHER_CONTEXT@@PEBU_s_FuncInfo@@@Z 00000001801bb5b4 f   libvcruntime:ehstate.obj
 0001:001ba5e0       ?SetState@__FrameHandler3@@SAXPEA_KPEBU_s_FuncInfo@@H@Z 00000001801bb5e0 f   libvcruntime:ehstate.obj
 0001:001ba5ec       ?SetUnwindTryBlock@__FrameHandler3@@SAXPEA_KPEAU_xDISPATCHER_CONTEXT@@PEBU_s_FuncInfo@@H@Z 00000001801bb5ec f   libvcruntime:ehstate.obj
 0001:001ba628       ?StateFromControlPc@__FrameHandler3@@SAHPEBU_s_FuncInfo@@PEAU_xDISPATCHER_CONTEXT@@@Z 00000001801bb628 f   libvcruntime:ehstate.obj
 0001:001ba630       ?StateFromControlPc@__FrameHandler4@@SAHPEAUFuncInfo4@FH4@@PEAU_xDISPATCHER_CONTEXT@@@Z 00000001801bb630 f   libvcruntime:ehstate.obj
 0001:001ba638       ?StateFromIp@__FrameHandler3@@SAHPEBU_s_FuncInfo@@PEAU_xDISPATCHER_CONTEXT@@_K@Z 00000001801bb638 f   libvcruntime:ehstate.obj
 0001:001ba6a0       ?StateFromIp@__FrameHandler4@@SAHPEAUFuncInfo4@FH4@@PEAU_xDISPATCHER_CONTEXT@@_K@Z 00000001801bb6a0 f   libvcruntime:ehstate.obj
 0001:001bbda0       ??$TypeMatchHelper@V__FrameHandler3@@@@YAHPEBU_s_HandlerType@@PEBU_s_CatchableType@@PEBU_s_ThrowInfo@@@Z 00000001801bcda0 f i libvcruntime:frame.obj
 0001:001bbee0       ??$TypeMatchHelper@V__FrameHandler4@@@@YAHPEAUHandlerType4@FH4@@PEBU_s_CatchableType@@PEBU_s_ThrowInfo@@@Z 00000001801bcee0 f i libvcruntime:frame.obj
 0001:001bc024       ??$__InternalCxxFrameHandler@V__FrameHandler3@@@@YA?AW4_EXCEPTION_DISPOSITION@@PEAUEHExceptionRecord@@PEA_KPEAU_CONTEXT@@PEAU_xDISPATCHER_CONTEXT@@PEBU_s_FuncInfo@@H1E@Z 00000001801bd024 f i libvcruntime:frame.obj
 0001:001bc25c       ??$__InternalCxxFrameHandler@V__FrameHandler4@@@@YA?AW4_EXCEPTION_DISPOSITION@@PEAUEHExceptionRecord@@PEA_KPEAU_CONTEXT@@PEAU_xDISPATCHER_CONTEXT@@PEAUFuncInfo4@FH4@@H1E@Z 00000001801bd25c f i libvcruntime:frame.obj
 0001:001bc4f0       ??$__InternalCxxFrameHandlerWrapper@V__FrameHandler3@@@@YA?AW4_EXCEPTION_DISPOSITION@@PEAUEHExceptionRecord@@PEA_KPEAU_CONTEXT@@PEAU_xDISPATCHER_CONTEXT@@PEBU_s_FuncInfo@@H1E@Z 00000001801bd4f0 f i libvcruntime:frame.obj
 0001:001bc4f8       ??$__InternalCxxFrameHandlerWrapper@V__FrameHandler4@@@@YA?AW4_EXCEPTION_DISPOSITION@@PEAUEHExceptionRecord@@PEA_KPEAU_CONTEXT@@PEAU_xDISPATCHER_CONTEXT@@PEAUFuncInfo4@FH4@@H1E@Z 00000001801bd4f8 f i libvcruntime:frame.obj
 0001:001bc554       ??0HandlerMap4@FH4@@QEAA@PEBUTryBlockMapEntry4@1@_KH@Z 00000001801bd554 f i libvcruntime:frame.obj
 0001:001bc5d0       ??0TryBlockMap4@FH4@@QEAA@PEBUFuncInfo4@1@_K@Z 00000001801bd5d0 f i libvcruntime:frame.obj
 0001:001bc6a8       ??0bad_exception@std@@QEAA@AEBV01@@Z 00000001801bd6a8 f i libvcruntime:frame.obj
 0001:001bc6e4       ??0bad_exception@std@@QEAA@XZ 00000001801bd6e4 f i libvcruntime:frame.obj
 0001:001bc704       ??0exception@std@@QEAA@AEBV01@@Z 00000001801bd704 f i libvcruntime:frame.obj
 0001:001bc738       ??1bad_exception@std@@UEAA@XZ 00000001801bd738 f i libvcruntime:frame.obj
 0001:001bc74c       ??_Ebad_exception@std@@UEAAPEAXI@Z 00000001801bd74c f i libvcruntime:frame.obj
 0001:001bc74c       ??_Eexception@std@@UEAAPEAXI@Z 00000001801bd74c f i libvcruntime:frame.obj
 0001:001bc74c       ??_Gbad_exception@std@@UEAAPEAXI@Z 00000001801bd74c f i libvcruntime:frame.obj
 0001:001bc74c       ??_Gexception@std@@UEAAPEAXI@Z 00000001801bd74c f i libvcruntime:frame.obj
 0001:001bc790       ?CxxCallCatchBlock@__FrameHandler3@@SAPEAXPEAU_EXCEPTION_RECORD@@@Z 00000001801bd790 f   libvcruntime:frame.obj
 0001:001bc97c       ?CxxCallCatchBlock@__FrameHandler4@@SAPEAXPEAU_EXCEPTION_RECORD@@@Z 00000001801bd97c f   libvcruntime:frame.obj
 0001:001bcbcc       ?DecompHandler@HandlerMap4@FH4@@AEAAXXZ 00000001801bdbcc f i libvcruntime:frame.obj
 0001:001bce18       ?FrameUnwindToState@__FrameHandler3@@SAXPEA_KPEAU_xDISPATCHER_CONTEXT@@PEBU_s_FuncInfo@@H@Z 00000001801bde18 f   libvcruntime:frame.obj
 0001:001bcfa4       ?FrameUnwindToState@__FrameHandler4@@SAXPEA_KPEAU_xDISPATCHER_CONTEXT@@PEAUFuncInfo4@FH4@@H@Z 00000001801bdfa4 f   libvcruntime:frame.obj
 0001:001bd2a0       ?GetHandlerSearchState@__FrameHandler3@@SAHPEA_KPEAU_xDISPATCHER_CONTEXT@@PEBU_s_FuncInfo@@@Z 00000001801be2a0 f i libvcruntime:frame.obj
 0001:001bd4b0       ?ReadEntry@UWMap4@FH4@@AEAAXPEAPEAE@Z 00000001801be4b0 f i libvcruntime:frame.obj
 0001:001bd54c       ?_CallMemberFunction1@@YAXQEAX00@Z 00000001801be54c f i libvcruntime:frame.obj
 0001:001bd558       ?_CallMemberFunction2@@YAXQEAX00H@Z 00000001801be558 f i libvcruntime:frame.obj
 0001:001bd568       ?getStartStop@UWMap4@FH4@@QEAAXHHAEAViterator@12@0@Z 00000001801be568 f i libvcruntime:frame.obj
 0001:001bd638       ?getStateFromIterators@UWMap4@FH4@@SAHAEBViterator@12@H0H0@Z 00000001801be638 f i libvcruntime:frame.obj
 0001:001bd6e8       ?what@exception@std@@UEBAPEBDXZ 00000001801be6e8 f i libvcruntime:frame.obj
 0001:001bd710       _CallSettingFrame          00000001801be710 f   libvcruntime:handlers.obj
 0001:001bd760       _CallSettingFrame_LookupContinuationIndex 00000001801be760 f   libvcruntime:handlers.obj
 0001:001bd790       _CallSettingFrame_NotifyContinuationAddr 00000001801be790 f   libvcruntime:handlers.obj
 0001:001bd7c0       _CallSettingFrameEncoded   00000001801be7c0 f   libvcruntime:handlers.obj
 0001:001bd808       __std_exception_copy       00000001801be808 f   libvcruntime:std_exception.obj
 0001:001bd898       __std_exception_destroy    00000001801be898 f   libvcruntime:std_exception.obj
 0001:001bd8c0       _CxxThrowException         00000001801be8c0 f   libvcruntime:throw.obj
 0001:001bd960       _local_unwind              00000001801be960 f   libvcruntime:jmpuwind.obj
 0001:001bd990       cosf                       00000001801be990 f   libucrt:cosf.obj
 0001:001bde90       sinf                       00000001801bee90 f   libucrt:sinf.obj
 0001:001be590       tanf                       00000001801bf590 f   libucrt:tanf.obj
 0001:001bec04       __acrt_initialize_stdio    00000001801bfc04 f   libucrt:_file.obj
 0001:001bed24       __acrt_iob_func            00000001801bfd24 f   libucrt:_file.obj
 0001:001bed38       __acrt_uninitialize_stdio  00000001801bfd38 f   libucrt:_file.obj
 0001:001bed94       _lock_file                 00000001801bfd94 f   libucrt:_file.obj
 0001:001beda0       _unlock_file               00000001801bfda0 f   libucrt:_file.obj
 0001:001bef9c       ??$ensure_buffer_is_big_enough@D@formatting_buffer@__crt_stdio_output@@QEAA_N_KAEAV__crt_cached_ptd_host@@@Z 00000001801bff9c f i libucrt:output.obj
 0001:001bf044       ??$parse_integer@KV?$c_string_character_source@D@__crt_strtox@@$0A@@__crt_strtox@@YAKAEAV__crt_cached_ptd_host@@V?$c_string_character_source@D@0@H_N@Z 00000001801c0044 f i libucrt:output.obj
 0001:001bf2f8       ??$type_case_integer@$07@?$output_processor@DV?$stream_output_adapter@D@__crt_stdio_output@@V?$standard_base@DV?$stream_output_adapter@D@__crt_stdio_output@@@2@@__crt_stdio_output@@AEAA_N_N@Z 00000001801c02f8 f i libucrt:output.obj
 0001:001bf2f8       ??$type_case_integer@$07@?$output_processor@DV?$string_output_adapter@D@__crt_stdio_output@@V?$format_validation_base@DV?$string_output_adapter@D@__crt_stdio_output@@@2@@__crt_stdio_output@@AEAA_N_N@Z 00000001801c02f8 f i libucrt:output.obj
 0001:001bf2f8       ??$type_case_integer@$07@?$output_processor@DV?$string_output_adapter@D@__crt_stdio_output@@V?$standard_base@DV?$string_output_adapter@D@__crt_stdio_output@@@2@@__crt_stdio_output@@AEAA_N_N@Z 00000001801c02f8 f i libucrt:output.obj
 0001:001bf4fc       ??$type_case_integer@$09@?$output_processor@DV?$stream_output_adapter@D@__crt_stdio_output@@V?$standard_base@DV?$stream_output_adapter@D@__crt_stdio_output@@@2@@__crt_stdio_output@@AEAA_N_N@Z 00000001801c04fc f i libucrt:output.obj
 0001:001bf4fc       ??$type_case_integer@$09@?$output_processor@DV?$string_output_adapter@D@__crt_stdio_output@@V?$format_validation_base@DV?$string_output_adapter@D@__crt_stdio_output@@@2@@__crt_stdio_output@@AEAA_N_N@Z 00000001801c04fc f i libucrt:output.obj
 0001:001bf4fc       ??$type_case_integer@$09@?$output_processor@DV?$string_output_adapter@D@__crt_stdio_output@@V?$standard_base@DV?$string_output_adapter@D@__crt_stdio_output@@@2@@__crt_stdio_output@@AEAA_N_N@Z 00000001801c04fc f i libucrt:output.obj
 0001:001bf700       ??$type_case_integer@$0BA@@?$output_processor@DV?$stream_output_adapter@D@__crt_stdio_output@@V?$standard_base@DV?$stream_output_adapter@D@__crt_stdio_output@@@2@@__crt_stdio_output@@AEAA_N_N@Z 00000001801c0700 f i libucrt:output.obj
 0001:001bf700       ??$type_case_integer@$0BA@@?$output_processor@DV?$string_output_adapter@D@__crt_stdio_output@@V?$format_validation_base@DV?$string_output_adapter@D@__crt_stdio_output@@@2@@__crt_stdio_output@@AEAA_N_N@Z 00000001801c0700 f i libucrt:output.obj
 0001:001bf700       ??$type_case_integer@$0BA@@?$output_processor@DV?$string_output_adapter@D@__crt_stdio_output@@V?$standard_base@DV?$string_output_adapter@D@__crt_stdio_output@@@2@@__crt_stdio_output@@AEAA_N_N@Z 00000001801c0700 f i libucrt:output.obj
 0001:001bf904       ??$type_case_integer_parse_into_buffer@I$07@?$output_processor@DV?$stream_output_adapter@D@__crt_stdio_output@@V?$standard_base@DV?$stream_output_adapter@D@__crt_stdio_output@@@2@@__crt_stdio_output@@AEAAXI_N@Z 00000001801c0904 f i libucrt:output.obj
 0001:001bf904       ??$type_case_integer_parse_into_buffer@I$07@?$output_processor@DV?$string_output_adapter@D@__crt_stdio_output@@V?$format_validation_base@DV?$string_output_adapter@D@__crt_stdio_output@@@2@@__crt_stdio_output@@AEAAXI_N@Z 00000001801c0904 f i libucrt:output.obj
 0001:001bf904       ??$type_case_integer_parse_into_buffer@I$07@?$output_processor@DV?$string_output_adapter@D@__crt_stdio_output@@V?$standard_base@DV?$string_output_adapter@D@__crt_stdio_output@@@2@@__crt_stdio_output@@AEAAXI_N@Z 00000001801c0904 f i libucrt:output.obj
 0001:001bf974       ??$type_case_integer_parse_into_buffer@I$09@?$output_processor@DV?$stream_output_adapter@D@__crt_stdio_output@@V?$standard_base@DV?$stream_output_adapter@D@__crt_stdio_output@@@2@@__crt_stdio_output@@AEAAXI_N@Z 00000001801c0974 f i libucrt:output.obj
 0001:001bf974       ??$type_case_integer_parse_into_buffer@I$09@?$output_processor@DV?$string_output_adapter@D@__crt_stdio_output@@V?$format_validation_base@DV?$string_output_adapter@D@__crt_stdio_output@@@2@@__crt_stdio_output@@AEAAXI_N@Z 00000001801c0974 f i libucrt:output.obj
 0001:001bf974       ??$type_case_integer_parse_into_buffer@I$09@?$output_processor@DV?$string_output_adapter@D@__crt_stdio_output@@V?$standard_base@DV?$string_output_adapter@D@__crt_stdio_output@@@2@@__crt_stdio_output@@AEAAXI_N@Z 00000001801c0974 f i libucrt:output.obj
 0001:001bfa20       ??$type_case_integer_parse_into_buffer@I$0BA@@?$output_processor@DV?$stream_output_adapter@D@__crt_stdio_output@@V?$standard_base@DV?$stream_output_adapter@D@__crt_stdio_output@@@2@@__crt_stdio_output@@AEAAXI_N@Z 00000001801c0a20 f i libucrt:output.obj
 0001:001bfa20       ??$type_case_integer_parse_into_buffer@I$0BA@@?$output_processor@DV?$string_output_adapter@D@__crt_stdio_output@@V?$format_validation_base@DV?$string_output_adapter@D@__crt_stdio_output@@@2@@__crt_stdio_output@@AEAAXI_N@Z 00000001801c0a20 f i libucrt:output.obj
 0001:001bfa20       ??$type_case_integer_parse_into_buffer@I$0BA@@?$output_processor@DV?$string_output_adapter@D@__crt_stdio_output@@V?$standard_base@DV?$string_output_adapter@D@__crt_stdio_output@@@2@@__crt_stdio_output@@AEAAXI_N@Z 00000001801c0a20 f i libucrt:output.obj
 0001:001bfaa4       ??$type_case_integer_parse_into_buffer@_K$07@?$output_processor@DV?$stream_output_adapter@D@__crt_stdio_output@@V?$standard_base@DV?$stream_output_adapter@D@__crt_stdio_output@@@2@@__crt_stdio_output@@AEAAX_K_N@Z 00000001801c0aa4 f i libucrt:output.obj
 0001:001bfaa4       ??$type_case_integer_parse_into_buffer@_K$07@?$output_processor@DV?$string_output_adapter@D@__crt_stdio_output@@V?$format_validation_base@DV?$string_output_adapter@D@__crt_stdio_output@@@2@@__crt_stdio_output@@AEAAX_K_N@Z 00000001801c0aa4 f i libucrt:output.obj
 0001:001bfaa4       ??$type_case_integer_parse_into_buffer@_K$07@?$output_processor@DV?$string_output_adapter@D@__crt_stdio_output@@V?$standard_base@DV?$string_output_adapter@D@__crt_stdio_output@@@2@@__crt_stdio_output@@AEAAX_K_N@Z 00000001801c0aa4 f i libucrt:output.obj
 0001:001bfb14       ??$type_case_integer_parse_into_buffer@_K$09@?$output_processor@DV?$stream_output_adapter@D@__crt_stdio_output@@V?$standard_base@DV?$stream_output_adapter@D@__crt_stdio_output@@@2@@__crt_stdio_output@@AEAAX_K_N@Z 00000001801c0b14 f i libucrt:output.obj
 0001:001bfb14       ??$type_case_integer_parse_into_buffer@_K$09@?$output_processor@DV?$string_output_adapter@D@__crt_stdio_output@@V?$format_validation_base@DV?$string_output_adapter@D@__crt_stdio_output@@@2@@__crt_stdio_output@@AEAAX_K_N@Z 00000001801c0b14 f i libucrt:output.obj
 0001:001bfb14       ??$type_case_integer_parse_into_buffer@_K$09@?$output_processor@DV?$string_output_adapter@D@__crt_stdio_output@@V?$standard_base@DV?$string_output_adapter@D@__crt_stdio_output@@@2@@__crt_stdio_output@@AEAAX_K_N@Z 00000001801c0b14 f i libucrt:output.obj
 0001:001bfbc4       ??$type_case_integer_parse_into_buffer@_K$0BA@@?$output_processor@DV?$stream_output_adapter@D@__crt_stdio_output@@V?$standard_base@DV?$stream_output_adapter@D@__crt_stdio_output@@@2@@__crt_stdio_output@@AEAAX_K_N@Z 00000001801c0bc4 f i libucrt:output.obj
 0001:001bfbc4       ??$type_case_integer_parse_into_buffer@_K$0BA@@?$output_processor@DV?$string_output_adapter@D@__crt_stdio_output@@V?$format_validation_base@DV?$string_output_adapter@D@__crt_stdio_output@@@2@@__crt_stdio_output@@AEAAX_K_N@Z 00000001801c0bc4 f i libucrt:output.obj
 0001:001bfbc4       ??$type_case_integer_parse_into_buffer@_K$0BA@@?$output_processor@DV?$string_output_adapter@D@__crt_stdio_output@@V?$standard_base@DV?$string_output_adapter@D@__crt_stdio_output@@@2@@__crt_stdio_output@@AEAAX_K_N@Z 00000001801c0bc4 f i libucrt:output.obj
 0001:001bfd64       ?crop_zeroes@__crt_stdio_output@@YAXPEADQEAU__crt_locale_pointers@@@Z 00000001801c0d64 f i libucrt:output.obj
 0001:001bfdd0       ?get_raw_ptd@__crt_cached_ptd_host@@QEAAPEAU__acrt_ptd@@XZ 00000001801c0dd0 f i libucrt:output.obj
 0001:001bfe38       ?parse_int_from_format_string@?$output_processor@DV?$stream_output_adapter@D@__crt_stdio_output@@V?$standard_base@DV?$stream_output_adapter@D@__crt_stdio_output@@@2@@__crt_stdio_output@@AEAA_NQEAH@Z 00000001801c0e38 f i libucrt:output.obj
 0001:001bfe38       ?parse_int_from_format_string@?$output_processor@DV?$string_output_adapter@D@__crt_stdio_output@@V?$format_validation_base@DV?$string_output_adapter@D@__crt_stdio_output@@@2@@__crt_stdio_output@@AEAA_NQEAH@Z 00000001801c0e38 f i libucrt:output.obj
 0001:001bfe38       ?parse_int_from_format_string@?$output_processor@DV?$string_output_adapter@D@__crt_stdio_output@@V?$standard_base@DV?$string_output_adapter@D@__crt_stdio_output@@@2@@__crt_stdio_output@@AEAA_NQEAH@Z 00000001801c0e38 f i libucrt:output.obj
 0001:001bfec8       ?process@?$output_processor@DV?$stream_output_adapter@D@__crt_stdio_output@@V?$standard_base@DV?$stream_output_adapter@D@__crt_stdio_output@@@2@@__crt_stdio_output@@QEAAHXZ 00000001801c0ec8 f i libucrt:output.obj
 0001:001c0260       ?process@?$output_processor@DV?$string_output_adapter@D@__crt_stdio_output@@V?$format_validation_base@DV?$string_output_adapter@D@__crt_stdio_output@@@2@@__crt_stdio_output@@QEAAHXZ 00000001801c1260 f i libucrt:output.obj
 0001:001c05e4       ?process@?$output_processor@DV?$string_output_adapter@D@__crt_stdio_output@@V?$standard_base@DV?$string_output_adapter@D@__crt_stdio_output@@@2@@__crt_stdio_output@@QEAAHXZ 00000001801c15e4 f i libucrt:output.obj
 0001:001c0964       ?state_case_size@?$output_processor@DV?$stream_output_adapter@D@__crt_stdio_output@@V?$standard_base@DV?$stream_output_adapter@D@__crt_stdio_output@@@2@@__crt_stdio_output@@AEAA_NXZ 00000001801c1964 f i libucrt:output.obj
 0001:001c0aec       ?state_case_size@?$output_processor@DV?$string_output_adapter@D@__crt_stdio_output@@V?$format_validation_base@DV?$string_output_adapter@D@__crt_stdio_output@@@2@@__crt_stdio_output@@AEAA_NXZ 00000001801c1aec f i libucrt:output.obj
 0001:001c0aec       ?state_case_size@?$output_processor@DV?$string_output_adapter@D@__crt_stdio_output@@V?$standard_base@DV?$string_output_adapter@D@__crt_stdio_output@@@2@@__crt_stdio_output@@AEAA_NXZ 00000001801c1aec f i libucrt:output.obj
 0001:001c0c74       ?state_case_type@?$output_processor@DV?$stream_output_adapter@D@__crt_stdio_output@@V?$standard_base@DV?$stream_output_adapter@D@__crt_stdio_output@@@2@@__crt_stdio_output@@AEAA_NXZ 00000001801c1c74 f i libucrt:output.obj
 0001:001c10ac       ?state_case_type@?$output_processor@DV?$string_output_adapter@D@__crt_stdio_output@@V?$format_validation_base@DV?$string_output_adapter@D@__crt_stdio_output@@@2@@__crt_stdio_output@@AEAA_NXZ 00000001801c20ac f i libucrt:output.obj
 0001:001c10ac       ?state_case_type@?$output_processor@DV?$string_output_adapter@D@__crt_stdio_output@@V?$standard_base@DV?$string_output_adapter@D@__crt_stdio_output@@@2@@__crt_stdio_output@@AEAA_NXZ 00000001801c20ac f i libucrt:output.obj
 0001:001c14b0       ?type_case_Z@?$output_processor@DV?$stream_output_adapter@D@__crt_stdio_output@@V?$standard_base@DV?$stream_output_adapter@D@__crt_stdio_output@@@2@@__crt_stdio_output@@AEAA_NXZ 00000001801c24b0 f i libucrt:output.obj
 0001:001c14b0       ?type_case_Z@?$output_processor@DV?$string_output_adapter@D@__crt_stdio_output@@V?$format_validation_base@DV?$string_output_adapter@D@__crt_stdio_output@@@2@@__crt_stdio_output@@AEAA_NXZ 00000001801c24b0 f i libucrt:output.obj
 0001:001c14b0       ?type_case_Z@?$output_processor@DV?$string_output_adapter@D@__crt_stdio_output@@V?$standard_base@DV?$string_output_adapter@D@__crt_stdio_output@@@2@@__crt_stdio_output@@AEAA_NXZ 00000001801c24b0 f i libucrt:output.obj
 0001:001c152c       ?type_case_a@?$output_processor@DV?$stream_output_adapter@D@__crt_stdio_output@@V?$standard_base@DV?$stream_output_adapter@D@__crt_stdio_output@@@2@@__crt_stdio_output@@AEAA_NXZ 00000001801c252c f i libucrt:output.obj
 0001:001c152c       ?type_case_a@?$output_processor@DV?$string_output_adapter@D@__crt_stdio_output@@V?$format_validation_base@DV?$string_output_adapter@D@__crt_stdio_output@@@2@@__crt_stdio_output@@AEAA_NXZ 00000001801c252c f i libucrt:output.obj
 0001:001c152c       ?type_case_a@?$output_processor@DV?$string_output_adapter@D@__crt_stdio_output@@V?$standard_base@DV?$string_output_adapter@D@__crt_stdio_output@@@2@@__crt_stdio_output@@AEAA_NXZ 00000001801c252c f i libucrt:output.obj
 0001:001c1780       ?type_case_c_tchar@?$output_processor@DV?$stream_output_adapter@D@__crt_stdio_output@@V?$standard_base@DV?$stream_output_adapter@D@__crt_stdio_output@@@2@@__crt_stdio_output@@AEAA_ND@Z 00000001801c2780 f i libucrt:output.obj
 0001:001c1780       ?type_case_c_tchar@?$output_processor@DV?$string_output_adapter@D@__crt_stdio_output@@V?$format_validation_base@DV?$string_output_adapter@D@__crt_stdio_output@@@2@@__crt_stdio_output@@AEAA_ND@Z 00000001801c2780 f i libucrt:output.obj
 0001:001c1780       ?type_case_c_tchar@?$output_processor@DV?$string_output_adapter@D@__crt_stdio_output@@V?$standard_base@DV?$string_output_adapter@D@__crt_stdio_output@@@2@@__crt_stdio_output@@AEAA_ND@Z 00000001801c2780 f i libucrt:output.obj
 0001:001c1854       ?type_case_n@?$output_processor@DV?$stream_output_adapter@D@__crt_stdio_output@@V?$standard_base@DV?$stream_output_adapter@D@__crt_stdio_output@@@2@@__crt_stdio_output@@AEAA_NXZ 00000001801c2854 f i libucrt:output.obj
 0001:001c1854       ?type_case_n@?$output_processor@DV?$string_output_adapter@D@__crt_stdio_output@@V?$format_validation_base@DV?$string_output_adapter@D@__crt_stdio_output@@@2@@__crt_stdio_output@@AEAA_NXZ 00000001801c2854 f i libucrt:output.obj
 0001:001c1854       ?type_case_n@?$output_processor@DV?$string_output_adapter@D@__crt_stdio_output@@V?$standard_base@DV?$string_output_adapter@D@__crt_stdio_output@@@2@@__crt_stdio_output@@AEAA_NXZ 00000001801c2854 f i libucrt:output.obj
 0001:001c190c       ?type_case_s@?$output_processor@DV?$stream_output_adapter@D@__crt_stdio_output@@V?$standard_base@DV?$stream_output_adapter@D@__crt_stdio_output@@@2@@__crt_stdio_output@@AEAA_NXZ 00000001801c290c f i libucrt:output.obj
 0001:001c190c       ?type_case_s@?$output_processor@DV?$string_output_adapter@D@__crt_stdio_output@@V?$format_validation_base@DV?$string_output_adapter@D@__crt_stdio_output@@@2@@__crt_stdio_output@@AEAA_NXZ 00000001801c290c f i libucrt:output.obj
 0001:001c190c       ?type_case_s@?$output_processor@DV?$string_output_adapter@D@__crt_stdio_output@@V?$standard_base@DV?$string_output_adapter@D@__crt_stdio_output@@@2@@__crt_stdio_output@@AEAA_NXZ 00000001801c290c f i libucrt:output.obj
 0001:001c19b0       ?update_locale_slow@__crt_cached_ptd_host@@AEAAXXZ 00000001801c29b0 f i libucrt:output.obj
 0001:001c1a28       ?validate_stream_is_ansi_if_required@?$__acrt_stdio_char_traits@D@@SA_NQEAU_iobuf@@@Z 00000001801c2a28 f i libucrt:output.obj
 0001:001c1ac4       ?write_string@?$string_output_adapter@D@__crt_stdio_output@@QEBAXQEBDHQEAHAEAV__crt_cached_ptd_host@@@Z 00000001801c2ac4 f i libucrt:output.obj
 0001:001c1b68       ?write_string_impl@?$output_adapter_common@DV?$stream_output_adapter@D@__crt_stdio_output@@@__crt_stdio_output@@IEBAXQEBDHQEAHAEAV__crt_cached_ptd_host@@@Z 00000001801c2b68 f i libucrt:output.obj
 0001:001c1c34       __stdio_common_vfprintf    00000001801c2c34 f   libucrt:output.obj
 0001:001c1d58       __stdio_common_vsprintf    00000001801c2d58 f   libucrt:output.obj
 0001:001c1fac       __stdio_common_vsprintf_s  00000001801c2fac f   libucrt:output.obj
 0001:001c20c0       _fpclass                   00000001801c30c0 f   libucrt:ieeemisc.obj
 0001:001c2150       powf                       00000001801c3150 f   libucrt:powf.obj
 0001:001c3018       atan2f                     00000001801c4018 f   libucrt:atan2f.obj
 0001:001c3420       strcmp                     00000001801c4420 f   libucrt:strcmp.obj
 0001:001c3488       acosf                      00000001801c4488 f   libucrt:acosf.obj
 0001:001c36b4       free                       00000001801c46b4 f   libucrt:free.obj
 0001:001c36c8       _seh_filter_dll            00000001801c46c8 f   libucrt:exception_filter.obj
 0001:001c36dc       _seh_filter_exe            00000001801c46dc f   libucrt:exception_filter.obj
 0001:001c3af4       __acrt_initialize_thread_local_exit_callback 00000001801c4af4 f   libucrt:exit.obj
 0001:001c3afc       _cexit                     00000001801c4afc f   libucrt:exit.obj
 0001:001c3b0c       _exit                      00000001801c4b0c f   libucrt:exit.obj
 0001:001c3b18       _is_c_termination_complete 00000001801c4b18 f   libucrt:exit.obj
 0001:001c3ce8       __acrt_allocate_buffer_for_argv 00000001801c4ce8 f   libucrt:argv_parsing.obj
 0001:001c3d48       _configure_narrow_argv     00000001801c4d48 f   libucrt:argv_parsing.obj
 0001:001c40d0       __dcrt_uninitialize_environments_nolock 00000001801c50d0 f   libucrt:environment_initialization.obj
 0001:001c4114       _initialize_narrow_environment 00000001801c5114 f   libucrt:environment_initialization.obj
 0001:001c4464       _crt_atexit                00000001801c5464 f   libucrt:onexit.obj
 0001:001c4474       _execute_onexit_table      00000001801c5474 f   libucrt:onexit.obj
 0001:001c44b8       _initialize_onexit_table   00000001801c54b8 f   libucrt:onexit.obj
 0001:001c44e0       _register_onexit_function  00000001801c54e0 f   libucrt:onexit.obj
 0001:001c4560       __acrt_uninitialize_command_line 00000001801c5560 f   libucrt:argv_data.obj
 0001:001c4658       __acrt_initialize          00000001801c5658 f   libucrt:initialization.obj
 0001:001c466c       __acrt_thread_attach       00000001801c566c f   libucrt:initialization.obj
 0001:001c4680       __acrt_thread_detach       00000001801c5680 f   libucrt:initialization.obj
 0001:001c4690       __acrt_uninitialize        00000001801c5690 f   libucrt:initialization.obj
 0001:001c46c8       __acrt_uninitialize_critical 00000001801c56c8 f   libucrt:initialization.obj
 0001:001c46d8       _initterm                  00000001801c56d8 f   libucrt:initterm.obj
 0001:001c471c       _initterm_e                00000001801c571c f   libucrt:initterm.obj
 0001:001c4764       terminate                  00000001801c5764 f   libucrt:terminate.obj
 0001:001c4790       abort                      00000001801c5790 f   libucrt:abort.obj
 0001:001c47e8       malloc                     00000001801c57e8 f   libucrt:malloc.obj
 0001:001c47f0       strcpy_s                   00000001801c57f0 f   libucrt:strcpy_s.obj
 0001:001c4850       ??$parse_integer@KV?$c_string_character_source@D@__crt_strtox@@$00@__crt_strtox@@YAKAEAV__crt_cached_ptd_host@@V?$c_string_character_source@D@0@H_N@Z 00000001801c5850 f i libucrt:atox.obj
 0001:001c4b40       _ischartype_l              00000001801c5b40 f i libucrt:atox.obj
 0001:001c4bb8       atol                       00000001801c5bb8 f   libucrt:atox.obj
 0001:001c4c80       strncmp                    00000001801c5c80 f   libucrt:strncmp.obj
 0001:001c4d00       calloc                     00000001801c5d00 f   libucrt:calloc.obj
 0001:001c4d08       wcsncmp                    00000001801c5d08 f   libucrt:wcsncmp.obj
 0001:001c4d40       __remainder_piby2d2f_forAsm 00000001801c5d40 f   libucrt:remainder_piby2f_forasm.obj
 0001:001c4e90       __remainder_piby2_fma3     00000001801c5e90 f   libucrt:remainder_piby2_forfma3.obj
 0001:001c5080       __remainder_piby2_fma3_bdl 00000001801c6080 f   libucrt:remainder_piby2_forfma3.obj
 0001:001c50f8       _cosf_special              00000001801c60f8 f   libucrt:sincos_special.obj
 0001:001c5198       _sinf_special              00000001801c6198 f   libucrt:sincos_special.obj
 0001:001c51ac       _tanf_special              00000001801c61ac f   libucrt:sincos_special.obj
 0001:001c51c0       _clrfp                     00000001801c61c0 f   libucrt:fpctrl.obj
 0001:001c51e0       _ctrlfp                    00000001801c61e0 f   libucrt:fpctrl.obj
 0001:001c525c       _set_statfp                00000001801c625c f   libucrt:fpctrl.obj
 0001:001c527c       _statfp                    00000001801c627c f   libucrt:fpctrl.obj
 0001:001c5290       __acrt_initialize_fma3     00000001801c6290 f   libucrt:fma3_available.obj
 0001:001c5300       __remainder_piby2d2f_forC  00000001801c6300 f   libucrt:remainder_piby2f_forc.obj
 0001:001c548c       ?get_raw_ptd_noexit@__crt_cached_ptd_host@@QEAAPEAU__acrt_ptd@@XZ 00000001801c648c f i libucrt:invalid_parameter.obj
 0001:001c54f8       ?value@?$dual_state_global@P6AXPEB_W00I_K@Z@__crt_state_management@@QEAAAEAP6AXPEB_W00I_K@ZAEAV__crt_cached_ptd_host@@@Z 00000001801c64f8 f i libucrt:invalid_parameter.obj
 0001:001c5544       __acrt_call_reportfault    00000001801c6544 f   libucrt:invalid_parameter.obj
 0001:001c56a0       __acrt_initialize_invalid_parameter_handler 00000001801c66a0 f   libucrt:invalid_parameter.obj
 0001:001c56a8       _invalid_parameter         00000001801c66a8 f   libucrt:invalid_parameter.obj
 0001:001c5744       _invalid_parameter_internal 00000001801c6744 f   libucrt:invalid_parameter.obj
 0001:001c5810       _invalid_parameter_noinfo  00000001801c6810 f   libucrt:invalid_parameter.obj
 0001:001c5830       _invoke_watson             00000001801c6830 f   libucrt:invalid_parameter.obj
 0001:001c5878       __acrt_errno_from_os_error 00000001801c6878 f   libucrt:errno.obj
 0001:001c58c0       __acrt_errno_map_os_error  00000001801c68c0 f   libucrt:errno.obj
 0001:001c5908       __acrt_errno_map_os_error_ptd 00000001801c6908 f   libucrt:errno.obj
 0001:001c592c       __doserrno                 00000001801c692c f   libucrt:errno.obj
 0001:001c594c       _errno                     00000001801c694c f   libucrt:errno.obj
 0001:001c596c       _calloc_base               00000001801c696c f   libucrt:calloc_base.obj
 0001:001c59e4       _free_base                 00000001801c69e4 f   libucrt:free_base.obj
 0001:001c5bdc       __acrt_AppPolicyGetProcessTerminationMethodInternal 00000001801c6bdc f   libucrt:winapi_thunks.obj
 0001:001c5c34       __acrt_AreFileApisANSI     00000001801c6c34 f   libucrt:winapi_thunks.obj
 0001:001c5c78       __acrt_FlsAlloc            00000001801c6c78 f   libucrt:winapi_thunks.obj
 0001:001c5c80       __acrt_FlsFree             00000001801c6c80 f   libucrt:winapi_thunks.obj
 0001:001c5c88       __acrt_FlsGetValue         00000001801c6c88 f   libucrt:winapi_thunks.obj
 0001:001c5c90       __acrt_FlsSetValue         00000001801c6c90 f   libucrt:winapi_thunks.obj
 0001:001c5c98       __acrt_InitializeCriticalSectionEx 00000001801c6c98 f   libucrt:winapi_thunks.obj
 0001:001c5d08       __acrt_LCMapStringEx       00000001801c6d08 f   libucrt:winapi_thunks.obj
 0001:001c5df4       __acrt_LocaleNameToLCID    00000001801c6df4 f   libucrt:winapi_thunks.obj
 0001:001c5e54       __acrt_initialize_winapi_thunks 00000001801c6e54 f   libucrt:winapi_thunks.obj
 0001:001c5e78       __acrt_uninitialize_winapi_thunks 00000001801c6e78 f   libucrt:winapi_thunks.obj
 0001:001c5ebc       _fcloseall                 00000001801c6ebc f   libucrt:closeall.obj
 0001:001c6150       __acrt_stdio_flush_nolock  00000001801c7150 f   libucrt:fflush.obj
 0001:001c61dc       _fflush_nolock             00000001801c71dc f   libucrt:fflush.obj
 0001:001c62b0       _flushall                  00000001801c72b0 f   libucrt:fflush.obj
 0001:001c62b8       __acrt_stdio_free_buffer_nolock 00000001801c72b8 f   libucrt:_freebuf.obj
 0001:001c64f4       __acrt_initialize_lowio    00000001801c74f4 f   libucrt:ioinit.obj
 0001:001c6530       __acrt_uninitialize_lowio  00000001801c7530 f   libucrt:ioinit.obj
 0001:001c6570       _malloc_base               00000001801c7570 f   libucrt:malloc_base.obj
 0001:001c65d0       strnlen                    00000001801c75d0 f   libucrt:strnlen.obj
 0001:001c6720       wcsnlen                    00000001801c7720 f   libucrt:strnlen.obj
 0001:001c68f8       __acrt_update_locale_info  00000001801c78f8 f   libucrt:locale_update.obj
 0001:001c692c       __acrt_update_locale_info_explicit 00000001801c792c f   libucrt:locale_update.obj
 0001:001c6964       __acrt_update_multibyte_info 00000001801c7964 f   libucrt:locale_update.obj
 0001:001c6998       __acrt_update_multibyte_info_explicit 00000001801c7998 f   libucrt:locale_update.obj
 0001:001c74e4       __acrt_fp_format           00000001801c84e4 f   libucrt:cvt.obj
 0001:001c77cc       _wctomb_internal           00000001801c87cc f   libucrt:wctomb.obj
 0001:001c797c       _mbtowc_internal           00000001801c897c f   libucrt:mbtowc.obj
 0001:001c7af4       _fileno                    00000001801c8af4 f   libucrt:fileno.obj
 0001:001c7b1c       _get_printf_count_output   00000001801c8b1c f   libucrt:printf_count_output.obj
 0001:001c7b34       _fputc_nolock_internal     00000001801c8b34 f   libucrt:fputc.obj
 0001:001c7b4c       __acrt_should_use_temporary_buffer 00000001801c8b4c f   libucrt:_sftbuf.obj
 0001:001c7b98       __acrt_stdio_begin_temporary_buffering_nolock 00000001801c8b98 f   libucrt:_sftbuf.obj
 0001:001c7c60       __acrt_stdio_end_temporary_buffering_nolock 00000001801c8c60 f   libucrt:_sftbuf.obj
 0001:001c8018       __acrt_freeptd             00000001801c9018 f   libucrt:per_thread_data.obj
 0001:001c805c       __acrt_getptd              00000001801c905c f   libucrt:per_thread_data.obj
 0001:001c8130       __acrt_getptd_head         00000001801c9130 f   libucrt:per_thread_data.obj
 0001:001c81d4       __acrt_getptd_noexit       00000001801c91d4 f   libucrt:per_thread_data.obj
 0001:001c829c       __acrt_getptd_noexit_explicit 00000001801c929c f   libucrt:per_thread_data.obj
 0001:001c835c       __acrt_initialize_ptd      00000001801c935c f   libucrt:per_thread_data.obj
 0001:001c8398       __acrt_uninitialize_ptd    00000001801c9398 f   libucrt:per_thread_data.obj
 0001:001c842c       __acrt_set_locale_changed  00000001801c942c f   libucrt:wsetlocale.obj
 0001:001c8438       __acrt_uninitialize_locale 00000001801c9438 f   libucrt:wsetlocale.obj
 0001:001c858c       _handle_error              00000001801c958c f   libucrt:libm_error.obj
 0001:001c86b4       _handle_errorf             00000001801c96b4 f   libucrt:libm_error.obj
 0001:001c87e8       _handle_nan                00000001801c97e8 f   libucrt:libm_error.obj
 0001:001c8804       _handle_nanf               00000001801c9804 f   libucrt:libm_error.obj
 0001:001c8820       _powf_special              00000001801c9820 f   libucrt:pow_special.obj
 0001:001c8990       __acrt_initialize_locks    00000001801c9990 f   libucrt:locks.obj
 0001:001c89d8       __acrt_lock                00000001801c99d8 f   libucrt:locks.obj
 0001:001c89f4       __acrt_uninitialize_locks  00000001801c99f4 f   libucrt:locks.obj
 0001:001c8a2c       __acrt_unlock              00000001801c9a2c f   libucrt:locks.obj
 0001:001c8a48       __acrt_app_verifier_enabled 00000001801c9a48 f   libucrt:peb_access.obj
 0001:001c8a64       __acrt_is_secure_process   00000001801c9a64 f   libucrt:peb_access.obj
 0001:001c8a7c       __acrt_get_process_end_policy 00000001801c9a7c f   libucrt:win_policies.obj
 0001:001c8ac0       ??$__acrt_convert_wcs_mbs_cp@D_WV<lambda_7c9dea7b4ca7285d2cdb541a38da6275>@@U__crt_win32_buffer_internal_dynamic_resizing@@@@YAHQEBDAEAV?$__crt_win32_buffer@_WU__crt_win32_buffer_internal_dynamic_resizing@@@@AEBV<lambda_7c9dea7b4ca7285d2cdb541a38da6275>@@I@Z 00000001801c9ac0 f i libucrt:argv_wildcards.obj
 0001:001c8c3c       ??$__acrt_convert_wcs_mbs_cp@_WDV<lambda_d8593a27d1aa8c02be35c86a17d324c4>@@U__crt_win32_buffer_internal_dynamic_resizing@@@@YAHQEB_WAEAV?$__crt_win32_buffer@DU__crt_win32_buffer_internal_dynamic_resizing@@@@AEBV<lambda_d8593a27d1aa8c02be35c86a17d324c4>@@I@Z 00000001801c9c3c f i libucrt:argv_wildcards.obj
 0001:001c94e0       ??0_LocaleUpdate@@QEAA@QEAU__crt_locale_pointers@@@Z 00000001801ca4e0 f i libucrt:argv_wildcards.obj
 0001:001c957c       __acrt_expand_narrow_argv_wildcards 00000001801ca57c f   libucrt:argv_wildcards.obj
 0001:001c9584       ??$__acrt_convert_wcs_mbs_cp@_WDV<lambda_f788ae46380686e8b737efdd8c720d07>@@U__crt_win32_buffer_no_resizing@@@@YAHQEB_WAEAV?$__crt_win32_buffer@DU__crt_win32_buffer_no_resizing@@@@AEBV<lambda_f788ae46380686e8b737efdd8c720d07>@@I@Z 00000001801ca584 f i libucrt:getmodulefilenamea.obj
 0001:001c96a0       __acrt_GetModuleFileNameA  00000001801ca6a0 f   libucrt:getmodulefilenamea.obj
 0001:001c9fbc       __acrt_initialize_multibyte 00000001801cafbc f   libucrt:mbctype.obj
 0001:001ca01c       __acrt_update_thread_multibyte_data 00000001801cb01c f   libucrt:mbctype.obj
 0001:001ca038       _setmbcp_nolock            00000001801cb038 f   libucrt:mbctype.obj
 0001:001ca36c       _ismbblead                 00000001801cb36c f   libucrt:ismbbyte.obj
 0001:001ca380       __acrt_initialize_command_line 00000001801cb380 f   libucrt:argv_data.obj
 0001:001ca3a8       __acrt_MultiByteToWideChar 00000001801cb3a8 f   libucrt:multibytetowidechar.obj
 0001:001ca438       __acrt_WideCharToMultiByte 00000001801cb438 f   libucrt:widechartomultibyte.obj
 0001:001ca518       __dcrt_get_narrow_environment_from_os 00000001801cb518 f   libucrt:get_environment_from_os.obj
 0001:001ca628       _recalloc_base             00000001801cb628 f   libucrt:recalloc.obj
 0001:001ca6c0       __acrt_initialize_heap     00000001801cb6c0 f   libucrt:heap_handle.obj
 0001:001ca6dc       __acrt_uninitialize_heap   00000001801cb6dc f   libucrt:heap_handle.obj
 0001:001ca6e8       __acrt_execute_initializers 00000001801cb6e8 f   libucrt:shared_initialization.obj
 0001:001ca77c       __acrt_execute_uninitializers 00000001801cb77c f   libucrt:shared_initialization.obj
 0001:001ca7c4       __acrt_initialize_new_handler 00000001801cb7c4 f   libucrt:new_handler.obj
 0001:001ca7cc       _callnewh                  00000001801cb7cc f   libucrt:new_handler.obj
 0001:001ca80c       _query_new_handler         00000001801cb80c f   libucrt:new_handler.obj
 0001:001ca88c       __acrt_get_sigabrt_handler 00000001801cb88c f   libucrt:signal.obj
 0001:001ca8bc       __acrt_initialize_signal_handlers 00000001801cb8bc f   libucrt:signal.obj
 0001:001ca8dc       raise                      00000001801cb8dc f   libucrt:signal.obj
 0001:001cab58       __acrt_has_user_matherr    00000001801cbb58 f   libucrt:matherr.obj
 0001:001cab78       __acrt_initialize_user_matherr 00000001801cbb78 f   libucrt:matherr.obj
 0001:001cab80       __acrt_invoke_user_matherr 00000001801cbb80 f   libucrt:matherr.obj
 0001:001cabbc       __pctype_func              00000001801cbbbc f   libucrt:ctype.obj
 0001:001cabec       _isctype_l                 00000001801cbbec f   libucrt:isctype.obj
 0001:001cad10       _get_fpsr                  00000001801cbd10 f   libucrt:fpsr.obj
 0001:001cad20       _set_fpsr                  00000001801cbd20 f   libucrt:fpsr.obj
 0001:001cad2a       _fclrf                     00000001801cbd2a f   libucrt:fpsr.obj
 0001:001cad3e       _frnd                      00000001801cbd3e f   libucrt:fpsr.obj
 0001:001cad60       _query_new_mode            00000001801cbd60 f   libucrt:new_mode.obj
 0001:001cad68       __acrt_DownlevelLocaleNameToLCID 00000001801cbd68 f   libucrt:lcidtoname_downlevel.obj
 0001:001caf30       fclose                     00000001801cbf30 f   libucrt:fclose.obj
 0001:001cb054       _commit                    00000001801cc054 f   libucrt:commit.obj
 0001:001cb8f0       _write_internal            00000001801cc8f0 f   libucrt:write.obj
 0001:001cba10       _write_nolock              00000001801cca10 f   libucrt:write.obj
 0001:001cbd18       __acrt_lowio_create_handle_array 00000001801ccd18 f   libucrt:osfinfo.obj
 0001:001cbdc0       __acrt_lowio_destroy_handle_array 00000001801ccdc0 f   libucrt:osfinfo.obj
 0001:001cbe10       __acrt_lowio_ensure_fh_exists 00000001801cce10 f   libucrt:osfinfo.obj
 0001:001cbeb8       __acrt_lowio_lock_fh       00000001801cceb8 f   libucrt:osfinfo.obj
 0001:001cbee0       __acrt_lowio_unlock_fh     00000001801ccee0 f   libucrt:osfinfo.obj
 0001:001cbf08       _free_osfhnd               00000001801ccf08 f   libucrt:osfinfo.obj
 0001:001cbfc4       _get_osfhandle             00000001801ccfc4 f   libucrt:osfinfo.obj
 0001:001cc03c       __acrt_add_locale_ref      00000001801cd03c f   libucrt:locale_refcounting.obj
 0001:001cc0c8       __acrt_free_locale         00000001801cd0c8 f   libucrt:locale_refcounting.obj
 0001:001cc240       __acrt_locale_add_lc_time_reference 00000001801cd240 f   libucrt:locale_refcounting.obj
 0001:001cc268       __acrt_locale_free_lc_time_if_unreferenced 00000001801cd268 f   libucrt:locale_refcounting.obj
 0001:001cc2a0       __acrt_locale_release_lc_time_reference 00000001801cd2a0 f   libucrt:locale_refcounting.obj
 0001:001cc2c8       __acrt_release_locale_ref  00000001801cd2c8 f   libucrt:locale_refcounting.obj
 0001:001cc370       __acrt_update_thread_locale_data 00000001801cd370 f   libucrt:locale_refcounting.obj
 0001:001cc3e0       _updatetlocinfoEx_nolock   00000001801cd3e0 f   libucrt:locale_refcounting.obj
 0001:001cc518       __acrt_fp_strflt_to_string 00000001801cd518 f   libucrt:_fptostr.obj
 0001:001cc630       ?divide@__crt_strtox@@YA_KAEAUbig_integer@1@AEBU21@@Z 00000001801cd630 f i libucrt:cfout.obj
 0001:001ccacc       __acrt_fltout              00000001801cdacc f   libucrt:cfout.obj
 0001:001cdde4       fegetround                 00000001801cede4 f   libucrt:fegetround.obj
 0001:001cddf8       ?__c32rtomb_utf8@__crt_mbstring@@YA_KPEAD_UPEAU_Mbstatet@@AEAV__crt_cached_ptd_host@@@Z 00000001801cedf8 f   libucrt:c32rtomb.obj
 0001:001cde9c       ?__mbrtowc_utf8@__crt_mbstring@@YA_KPEA_WPEBD_KPEAU_Mbstatet@@AEAV__crt_cached_ptd_host@@@Z 00000001801cee9c f   libucrt:mbrtowc.obj
 0001:001cdee0       ?__mbsrtowcs_utf8@__crt_mbstring@@YA_KPEA_WPEAPEBD_KPEAU_Mbstatet@@AEAV__crt_cached_ptd_host@@@Z 00000001801ceee0 f   libucrt:mbrtowc.obj
 0001:001ce1f8       __acrt_stdio_flush_and_write_narrow_nolock 00000001801cf1f8 f   libucrt:_flsbuf.obj
 0001:001ce2c4       _isatty                    00000001801cf2c4 f   libucrt:isatty.obj
 0001:001ce324       __acrt_locale_free_monetary 00000001801cf324 f   libucrt:initmon.obj
 0001:001ce430       __acrt_locale_free_numeric 00000001801cf430 f   libucrt:initnum.obj
 0001:001ce4d0       __acrt_locale_free_time    00000001801cf4d0 f   libucrt:inittime.obj
 0001:001ce5d8       __acrt_GetStringTypeA      00000001801cf5d8 f   libucrt:getstringtypea.obj
 0001:001ce768       _raise_exc                 00000001801cf768 f   libucrt:fpexcept.obj
 0001:001ce790       _raise_exc_ex              00000001801cf790 f   libucrt:fpexcept.obj
 0001:001cea98       _raise_excf                00000001801cfa98 f   libucrt:fpexcept.obj
 0001:001ceac4       _set_errno_from_matherr    00000001801cfac4 f   libucrt:fpexcept.obj
 0001:001ceb00       qsort                      00000001801cfb00 f   libucrt:qsort.obj
 0001:001cef10       strncpy_s                  00000001801cff10 f   libucrt:strncpy_s.obj
 0001:001cf0a0       strpbrk                    00000001801d00a0 f   libucrt:strpbrk.obj
 0001:001cf468       _mbsdec                    00000001801d0468 f   libucrt:mbsdec.obj
 0001:001cf470       _mbsdec_l                  00000001801d0470 f   libucrt:mbsdec.obj
 0001:001cf838       __acrt_LCMapStringA        00000001801d0838 f   libucrt:lcmapstringa.obj
 0001:001cf8e8       _msize_base                00000001801d08e8 f   libucrt:msize.obj
 0001:001cf924       _realloc_base              00000001801d0924 f   libucrt:realloc_base.obj
 0001:001cf9a0       __ascii_wcsnicmp           00000001801d09a0 f   libucrt:wcsnicmp.obj
 0001:001cfa64       _close_internal            00000001801d0a64 f   libucrt:close.obj
 0001:001cfb28       _close_nolock_internal     00000001801d0b28 f   libucrt:close.obj
 0001:001cfbf8       ?__acrt_stdio_free_stream@@YAXV__crt_stdio_stream@@@Z 00000001801d0bf8 f   libucrt:stream.obj
 0001:001cfde0       _lseeki64                  00000001801d0de0 f   libucrt:lseek.obj
 0001:001cfe7c       _lseeki64_nolock_internal  00000001801d0e7c f   libucrt:lseek.obj
 0001:001cfe84       _putwch_nolock             00000001801d0e84 f   libucrt:putwch.obj
 0001:001cfec0       _query_app_type            00000001801d0ec0 f   libucrt:report_runtime_error.obj
 0001:001cfec8       _controlfp_s               00000001801d0ec8 f   libucrt:contrlfp.obj
 0001:001cff2c       fegetenv                   00000001801d0f2c f   libucrt:fegetenv.obj
 0001:001cff4c       fesetenv                   00000001801d0f4c f   libucrt:fesetenv.obj
 0001:001cffa4       feholdexcept               00000001801d0fa4 f   libucrt:feholdexcept.obj
 0001:001cfff4       ceil                       00000001801d0ff4 f   libucrt:ceil.obj
 0001:001d00c0       log10                      00000001801d10c0 f   libucrt:log10.obj
 0001:001d066c       __acrt_fenv_get_common_round_control 00000001801d166c f   libucrt:_fenvutils.obj
 0001:001d0678       __acrt_fenv_get_control    00000001801d1678 f   libucrt:_fenvutils.obj
 0001:001d075c       __acrt_fenv_get_status     00000001801d175c f   libucrt:_fenvutils.obj
 0001:001d07b4       __acrt_fenv_set_control    00000001801d17b4 f   libucrt:_fenvutils.obj
 0001:001d08ec       __acrt_fenv_set_status     00000001801d18ec f   libucrt:_fenvutils.obj
 0001:001d0960       ?reset_and_return@__crt_mbstring@@YA_K_KPEAU_Mbstatet@@@Z 00000001801d1960 f   libucrt:common_utf8.obj
 0001:001d0968       ?return_illegal_sequence@__crt_mbstring@@YA_KPEAU_Mbstatet@@AEAV__crt_cached_ptd_host@@@Z 00000001801d1968 f   libucrt:common_utf8.obj
 0001:001d097c       ?__mbrtoc32_utf8@__crt_mbstring@@YA_KPEA_UPEBD_KPEAU_Mbstatet@@AEAV__crt_cached_ptd_host@@@Z 00000001801d197c f   libucrt:mbrtoc32.obj
 0001:001d0b58       __acrt_stdio_allocate_buffer_nolock 00000001801d1b58 f   libucrt:_getbuf.obj
 0001:001d0bc4       __strncnt                  00000001801d1bc4 f   libucrt:strncnt.obj
 0001:001d0bdc       __dcrt_lowio_ensure_console_output_initialized 00000001801d1bdc f   libucrt:initcon.obj
 0001:001d0c30       __dcrt_terminate_console_output 00000001801d1c30 f   libucrt:initcon.obj
 0001:001d0c4c       __dcrt_write_console       00000001801d1c4c f   libucrt:initcon.obj
 0001:001d0d0c       _clearfp                   00000001801d1d0c f   libucrt:ieee.obj
 0001:001d0d78       _control87                 00000001801d1d78 f   libucrt:ieee.obj
 0001:001d1020       _log10_special             00000001801d2020 f   libucrt:log_special.obj
 0001:001d10e0       _FindPESection             00000001801d20e0 f   LIBCMT:pesect.obj
 0001:001d1130       _IsNonwritableInCurrentImage 00000001801d2130 f   LIBCMT:pesect.obj
 0001:001d1180       _ValidateImageBase         00000001801d2180 f   LIBCMT:pesect.obj
 0001:001d11ac       __GSHandlerCheck           00000001801d21ac f   LIBCMT:gshandler.obj
 0001:001d11cc       __GSHandlerCheckCommon     00000001801d21cc f   LIBCMT:gshandler.obj
 0001:001d1240       __security_check_cookie    00000001801d2240 f   LIBCMT:amdsecgs.obj
 0001:001d1260       __GSHandlerCheck_SEH       00000001801d2260 f   LIBCMT:gshandlerseh.obj
 0001:001d12e8       __raise_securityfailure    00000001801d22e8 f   LIBCMT:gs_report.obj
 0001:001d131c       __report_gsfailure         00000001801d231c f   LIBCMT:gs_report.obj
 0001:001d13f0       __report_rangecheckfailure 00000001801d23f0 f   LIBCMT:gs_report.obj
 0001:001d1404       __report_securityfailure   00000001801d2404 f   LIBCMT:gs_report.obj
 0001:001d1584       __GSHandlerCheck_EH        00000001801d2584 f   LIBCMT:gshandlereh.obj
 0001:001d1604       __C_specific_handler_noexcept 00000001801d2604 f   libvcruntime:chandler_noexcept.obj
 0001:001d1650       strrchr                    00000001801d2650 f   libvcruntime:strrchr.obj
 0001:001d17a0       memcmp                     00000001801d27a0 f   libvcruntime:memcmp.obj
 0001:001d1880       _guard_dispatch_icall_nop  00000001801d2880 f   LIBCMT:guard_dispatch.obj
 0001:001d18a0       _guard_xfg_dispatch_icall_nop 00000001801d28a0 f   LIBCMT:guard_xfg_dispatch.obj
 0002:00000000       __imp_GetLastError         00000001801d3000     kernel32:KERNEL32.dll
 0002:00000008       __imp_FreeLibrary          00000001801d3008     kernel32:KERNEL32.dll
 0002:00000010       __imp_GetProcAddress       00000001801d3010     kernel32:KERNEL32.dll
 0002:00000018       __imp_LoadLibraryA         00000001801d3018     kernel32:KERNEL32.dll
 0002:00000020       __imp_WriteConsoleW        00000001801d3020     kernel32:KERNEL32.dll
 0002:00000028       __imp_RaiseException       00000001801d3028     kernel32:KERNEL32.dll
 0002:00000030       __imp_GetSystemInfo        00000001801d3030     kernel32:KERNEL32.dll
 0002:00000038       __imp_VirtualProtect       00000001801d3038     kernel32:KERNEL32.dll
 0002:00000040       __imp_VirtualQuery         00000001801d3040     kernel32:KERNEL32.dll
 0002:00000048       __imp_GetModuleHandleW     00000001801d3048     kernel32:KERNEL32.dll
 0002:00000050       __imp_LoadLibraryExA       00000001801d3050     kernel32:KERNEL32.dll
 0002:00000058       __imp_InitializeSListHead  00000001801d3058     kernel32:KERNEL32.dll
 0002:00000060       __imp_RtlCaptureContext    00000001801d3060     kernel32:KERNEL32.dll
 0002:00000068       __imp_RtlLookupFunctionEntry 00000001801d3068     kernel32:KERNEL32.dll
 0002:00000070       __imp_RtlVirtualUnwind     00000001801d3070     kernel32:KERNEL32.dll
 0002:00000078       __imp_IsDebuggerPresent    00000001801d3078     kernel32:KERNEL32.dll
 0002:00000080       __imp_UnhandledExceptionFilter 00000001801d3080     kernel32:KERNEL32.dll
 0002:00000088       __imp_SetUnhandledExceptionFilter 00000001801d3088     kernel32:KERNEL32.dll
 0002:00000090       __imp_GetStartupInfoW      00000001801d3090     kernel32:KERNEL32.dll
 0002:00000098       __imp_IsProcessorFeaturePresent 00000001801d3098     kernel32:KERNEL32.dll
 0002:000000a0       __imp_QueryPerformanceCounter 00000001801d30a0     kernel32:KERNEL32.dll
 0002:000000a8       __imp_GetCurrentProcessId  00000001801d30a8     kernel32:KERNEL32.dll
 0002:000000b0       __imp_GetCurrentThreadId   00000001801d30b0     kernel32:KERNEL32.dll
 0002:000000b8       __imp_GetSystemTimeAsFileTime 00000001801d30b8     kernel32:KERNEL32.dll
 0002:000000c0       __imp_InterlockedPushEntrySList 00000001801d30c0     kernel32:KERNEL32.dll
 0002:000000c8       __imp_InterlockedFlushSList 00000001801d30c8     kernel32:KERNEL32.dll
 0002:000000d0       __imp_RtlUnwindEx          00000001801d30d0     kernel32:KERNEL32.dll
 0002:000000d8       __imp_SetLastError         00000001801d30d8     kernel32:KERNEL32.dll
 0002:000000e0       __imp_EnterCriticalSection 00000001801d30e0     kernel32:KERNEL32.dll
 0002:000000e8       __imp_LeaveCriticalSection 00000001801d30e8     kernel32:KERNEL32.dll
 0002:000000f0       __imp_DeleteCriticalSection 00000001801d30f0     kernel32:KERNEL32.dll
 0002:000000f8       __imp_InitializeCriticalSectionAndSpinCount 00000001801d30f8     kernel32:KERNEL32.dll
 0002:00000100       __imp_TlsAlloc             00000001801d3100     kernel32:KERNEL32.dll
 0002:00000108       __imp_TlsGetValue          00000001801d3108     kernel32:KERNEL32.dll
 0002:00000110       __imp_TlsSetValue          00000001801d3110     kernel32:KERNEL32.dll
 0002:00000118       __imp_TlsFree              00000001801d3118     kernel32:KERNEL32.dll
 0002:00000120       __imp_LoadLibraryExW       00000001801d3120     kernel32:KERNEL32.dll
 0002:00000128       __imp_EncodePointer        00000001801d3128     kernel32:KERNEL32.dll
 0002:00000130       __imp_RtlPcToFileHeader    00000001801d3130     kernel32:KERNEL32.dll
 0002:00000138       __imp_RtlUnwind            00000001801d3138     kernel32:KERNEL32.dll
 0002:00000140       __imp_GetCurrentProcess    00000001801d3140     kernel32:KERNEL32.dll
 0002:00000148       __imp_ExitProcess          00000001801d3148     kernel32:KERNEL32.dll
 0002:00000150       __imp_TerminateProcess     00000001801d3150     kernel32:KERNEL32.dll
 0002:00000158       __imp_GetModuleHandleExW   00000001801d3158     kernel32:KERNEL32.dll
 0002:00000160       __imp_GetModuleFileNameW   00000001801d3160     kernel32:KERNEL32.dll
 0002:00000168       __imp_HeapAlloc            00000001801d3168     kernel32:KERNEL32.dll
 0002:00000170       __imp_HeapFree             00000001801d3170     kernel32:KERNEL32.dll
 0002:00000178       __imp_FlsAlloc             00000001801d3178     kernel32:KERNEL32.dll
 0002:00000180       __imp_FlsGetValue          00000001801d3180     kernel32:KERNEL32.dll
 0002:00000188       __imp_FlsSetValue          00000001801d3188     kernel32:KERNEL32.dll
 0002:00000190       __imp_FlsFree              00000001801d3190     kernel32:KERNEL32.dll
 0002:00000198       __imp_LCMapStringW         00000001801d3198     kernel32:KERNEL32.dll
 0002:000001a0       __imp_GetStdHandle         00000001801d31a0     kernel32:KERNEL32.dll
 0002:000001a8       __imp_GetFileType          00000001801d31a8     kernel32:KERNEL32.dll
 0002:000001b0       __imp_FindClose            00000001801d31b0     kernel32:KERNEL32.dll
 0002:000001b8       __imp_FindFirstFileExW     00000001801d31b8     kernel32:KERNEL32.dll
 0002:000001c0       __imp_FindNextFileW        00000001801d31c0     kernel32:KERNEL32.dll
 0002:000001c8       __imp_IsValidCodePage      00000001801d31c8     kernel32:KERNEL32.dll
 0002:000001d0       __imp_GetACP               00000001801d31d0     kernel32:KERNEL32.dll
 0002:000001d8       __imp_GetOEMCP             00000001801d31d8     kernel32:KERNEL32.dll
 0002:000001e0       __imp_GetCPInfo            00000001801d31e0     kernel32:KERNEL32.dll
 0002:000001e8       __imp_GetCommandLineA      00000001801d31e8     kernel32:KERNEL32.dll
 0002:000001f0       __imp_GetCommandLineW      00000001801d31f0     kernel32:KERNEL32.dll
 0002:000001f8       __imp_MultiByteToWideChar  00000001801d31f8     kernel32:KERNEL32.dll
 0002:00000200       __imp_WideCharToMultiByte  00000001801d3200     kernel32:KERNEL32.dll
 0002:00000208       __imp_GetEnvironmentStringsW 00000001801d3208     kernel32:KERNEL32.dll
 0002:00000210       __imp_FreeEnvironmentStringsW 00000001801d3210     kernel32:KERNEL32.dll
 0002:00000218       __imp_GetProcessHeap       00000001801d3218     kernel32:KERNEL32.dll
 0002:00000220       __imp_FlushFileBuffers     00000001801d3220     kernel32:KERNEL32.dll
 0002:00000228       __imp_WriteFile            00000001801d3228     kernel32:KERNEL32.dll
 0002:00000230       __imp_GetConsoleOutputCP   00000001801d3230     kernel32:KERNEL32.dll
 0002:00000238       __imp_GetConsoleMode       00000001801d3238     kernel32:KERNEL32.dll
 0002:00000240       __imp_SetStdHandle         00000001801d3240     kernel32:KERNEL32.dll
 0002:00000248       __imp_GetFileSizeEx        00000001801d3248     kernel32:KERNEL32.dll
 0002:00000250       __imp_SetFilePointerEx     00000001801d3250     kernel32:KERNEL32.dll
 0002:00000258       __imp_GetStringTypeW       00000001801d3258     kernel32:KERNEL32.dll
 0002:00000260       __imp_HeapSize             00000001801d3260     kernel32:KERNEL32.dll
 0002:00000268       __imp_HeapReAlloc          00000001801d3268     kernel32:KERNEL32.dll
 0002:00000270       __imp_CloseHandle          00000001801d3270     kernel32:KERNEL32.dll
 0002:00000278       __imp_CreateFileW          00000001801d3278     kernel32:KERNEL32.dll
 0002:00000280       \177KERNEL32_NULL_THUNK_DATA 00000001801d3280     kernel32:KERNEL32.dll
 0002:00000288       __guard_check_icall_fptr   00000001801d3288     LIBCMT:guard_support.obj
 0002:00000290       __guard_xfg_check_icall_fptr 00000001801d3290     LIBCMT:guard_support.obj
 0002:00000298       __guard_dispatch_icall_fptr 00000001801d3298     LIBCMT:guard_support.obj
 0002:000002a0       __guard_xfg_dispatch_icall_fptr 00000001801d32a0     LIBCMT:guard_support.obj
 0002:000002a8       __guard_xfg_table_dispatch_icall_fptr 00000001801d32a8     LIBCMT:guard_support.obj
 0002:000002b0       __castguard_check_failure_os_handled_fptr 00000001801d32b0     LIBCMT:guard_support.obj
 0002:000002b8       __guard_memcpy_fptr        00000001801d32b8     libvcruntime:softmemtag.obj
 0002:000002c0       __xc_a                     00000001801d32c0     LIBCMT:initializers.obj
 0002:00001c68       __xc_z                     00000001801d4c68     LIBCMT:initializers.obj
 0002:00001c70       __xi_a                     00000001801d4c70     LIBCMT:initializers.obj
 0002:00001c78       __acrt_stdio_initializer   00000001801d4c78     libucrt:stdio_initializer.obj
 0002:00001c80       __acrt_tran_fma3_initializer 00000001801d4c80     libucrt:fma3_initializer.obj
 0002:00001c88       __acrt_multibyte_initializer 00000001801d4c88     libucrt:multibyte_initializer.obj
 0002:00001c90       __xi_z                     00000001801d4c90     LIBCMT:initializers.obj
 0002:00001c98       __xp_a                     00000001801d4c98     LIBCMT:initializers.obj
 0002:00001ca0       __acrt_locale_terminator   00000001801d4ca0     libucrt:locale_initializer.obj
 0002:00001ca8       __dcrt_console_output_terminator 00000001801d4ca8     libucrt:console_output_initializer.obj
 0002:00001cb0       __acrt_stdio_terminator    00000001801d4cb0     libucrt:stdio_initializer.obj
 0002:00001cb8       __xp_z                     00000001801d4cb8     LIBCMT:initializers.obj
 0002:00001cc0       __xt_a                     00000001801d4cc0     LIBCMT:initializers.obj
 0002:00001cc8       __xt_z                     00000001801d4cc8     LIBCMT:initializers.obj
 0002:00001cd0       ??_C@_08MDGMHCHN@PtrTable@ 00000001801d4cd0     CmPtrTable.obj
 0002:00001cdc       ??_C@_04GKJNKENE@void@     00000001801d4cdc     CmPtrTable.obj
 0002:00001ce8       ??_C@_07DFEBJDHE@mSingle@  00000001801d4ce8     CmPtrTable.obj
 0002:00001cf0       ??_C@_05NLHHBMOH@PxU16@    00000001801d4cf0     CmPtrTable.obj
 0002:00001cf8       ??_C@_06EPKHJPIM@mCount@   00000001801d4cf8     CmPtrTable.obj
 0002:00001d00       ??_C@_04DDKJGDCM@bool@     00000001801d4d00     CmPtrTable.obj
 0002:00001d08       ??_C@_0M@DAGELID@mOwnsMemory@ 00000001801d4d08     CmPtrTable.obj
 0002:00001d18       ??_C@_0M@MMPOMMLP@mBufferUsed@ 00000001801d4d18     CmPtrTable.obj
 0002:00001d24       ??_C@_05LMJPANIN@PxU32@    00000001801d4d24     CmPtrTable.obj
 0002:00001d30       ??_C@_09PMLNMEMN@mFreeSlot@ 00000001801d4d30     CmPtrTable.obj
 0002:00001d40       ??_7PxCollection@physx@@6B@ 00000001801d4d40     CmCollection.obj
 0002:00001dc0       ??_C@_00CNPNBAHC@@         00000001801d4dc0     CmCollection.obj
 0002:00001dc8       ??_7Collection@Cm@physx@@6B@ 00000001801d4dc8     CmCollection.obj
 0002:00001e50       ??_C@_0GE@GBACBMOC@PxCollection?3?3add?5called?5for?5an@ 00000001801d4e50     CmCollection.obj
 0002:00001ec0       ??_C@_0EP@KICEEMMD@C?3?2Users?2umtim?2Desktop?2Client45@ 00000001801d4ec0     CmCollection.obj
 0002:00001f10       ??_C@_0EM@OMMGDOMK@PxCollection?3?3add?5called?5with?5a@ 00000001801d4f10     CmCollection.obj
 0002:00001f60       ??_C@_0FB@BHNFKFE@C?3?2Users?2umtim?2Desktop?2Client45@ 00000001801d4f60     CmCollection.obj
 0002:00001fb8       ??_C@_0BM@OIFKLHDN@?$DMallocation?5names?5disabled?$DO@ 00000001801d4fb8     CmCollection.obj
 0002:00001fd8       ??_7RadixSort@Cm@physx@@6B@ 00000001801d4fd8     CmRadixSort.obj
 0002:00001fe0       ??_7RadixSortBuffered@Cm@physx@@6B@ 00000001801d4fe0     CmRadixSort.obj
 0002:00001ff0       ??_C@_0EO@JLADPEJM@C?3?2Users?2umtim?2Desktop?2Client45@ 00000001801d4ff0     CmRadixSort.obj
 0002:00002040       __xmm@00000001000000010000000100000001 00000001801d5040     CmRadixSort.obj
 0002:00002050       __xmm@00000003000000020000000100000000 00000001801d5050     CmRadixSort.obj
 0002:00002060       __real@3d4ccccd            00000001801d5060     CmVisualization.obj
 0002:00002064       __real@3e19999a            00000001801d5064     CmVisualization.obj
 0002:00002068       __real@3e490fdb            00000001801d5068     CmVisualization.obj
 0002:0000206c       __real@3e800000            00000001801d506c     CmVisualization.obj
 0002:00002070       __real@3e99999a            00000001801d5070     CmVisualization.obj
 0002:00002074       __real@3ea0d97c            00000001801d5074     CmVisualization.obj
 0002:00002078       __real@3eddb3d7            00000001801d5078     CmVisualization.obj
 0002:0000207c       __real@3f3504f3            00000001801d507c     CmVisualization.obj
 0002:00002080       __real@3f800000            00000001801d5080     CmVisualization.obj
 0002:00002084       __real@3fc00000            00000001801d5084     CmVisualization.obj
 0002:00002088       __real@3fddb3d7            00000001801d5088     CmVisualization.obj
 0002:0000208c       __real@40100000            00000001801d508c     CmVisualization.obj
 0002:00002090       __real@40c90fdb            00000001801d5090     CmVisualization.obj
 0002:00002094       __real@bfddb3d7            00000001801d5094     CmVisualization.obj
 0002:00002098       __real@c0000000            00000001801d5098     CmVisualization.obj
 0002:000020a0       __xmm@3f800000000000000000000000000000 00000001801d50a0     CmVisualization.obj
 0002:000020b0       __xmm@7fffffff7fffffff7fffffff7fffffff 00000001801d50b0     CmVisualization.obj
 0002:000020c0       __xmm@80000000800000008000000080000000 00000001801d50c0     CmVisualization.obj
 0002:000020d0       ??_C@_0BB@CPDDPFKD@GetUpdatedModule@ 00000001801d50d0     CmWindowsModuleUpdateLoader.obj
 0002:000020f0       ??_C@_0GG@DOOKLLOA@C?3?2Users?2umtim?2Desktop?2Client45@ 00000001801d50f0     CmWindowsModuleUpdateLoader.obj
 0002:00002158       ??_C@_0CP@PGOIOJOO@?$CFs?3?$CFi?3?5loadLibrary?5error?5when?5l@ 00000001801d5158     CmWindowsModuleUpdateLoader.obj
 0002:00002188       ??_C@_0BA@EGLNOO@PhysXFoundation@ 00000001801d5188     CmWindowsDelayLoadHook.obj
 0002:00002198       ??_C@_0M@ILKNCJKN@PhysXCommon@ 00000001801d5198     CmWindowsDelayLoadHook.obj
 0002:000021d0       __real@3f000000            00000001801d51d0     GuBox.obj
 0002:000021d4       __real@3f7ff972            00000001801d51d4     GuBox.obj
 0002:000021e0       __xmm@000000003a83126f3a83126f3a83126f 00000001801d51e0     GuBox.obj
 0002:000021f0       __xmm@00000000ba83126fba83126fba83126f 00000001801d51f0     GuBox.obj
 0002:00002200       __xmm@3a83126f3a83126f3a83126f3a83126f 00000001801d5200     GuBox.obj
 0002:00002210       __xmm@ba83126fba83126fba83126fba83126f 00000001801d5210     GuBox.obj
 0002:00002240       ??_7EntityReport@Gu@physx@@6B@ 00000001801d5240     GuSweepsHF.obj
 0002:00002240       ??_7OverlapCallback@PxBVH@physx@@6B@ 00000001801d5240     GuQuerySystem.obj
 0002:00002240       ??_7OverlapReport@Gu@physx@@6B@ 00000001801d5240     GuCCTSweepTests.obj
 0002:00002240       ??_7RaycastCallback@PxBVH@physx@@6B@ 00000001801d5240     GuQuerySystem.obj
 0002:00002240       ??_7RemapCallback@RTreeCooker@physx@@6B@ 00000001801d5240     GuCookingTriangleMesh.obj
 0002:00002260       __real@3b03126f            00000001801d5260     GuCCTSweepTests.obj
 0002:00002264       __real@40000000            00000001801d5264     GuCCTSweepTests.obj
 0002:000022a0       ??_7SupportLocal@Gu@physx@@6B@ 00000001801d52a0     GuGeometryQuery.obj
 0002:000022c0       ??_7?$SupportLocalImpl@VBoxV@Gu@physx@@@Gu@physx@@6B@ 00000001801d52c0     GuGeometryQuery.obj
 0002:000022e0       ??_7?$SupportLocalImpl@VConvexHullV@Gu@physx@@@Gu@physx@@6B@ 00000001801d52e0     GuGeometryQuery.obj
 0002:00002300       ??_C@_0EJ@CKBNKCDM@C?3?2Users?2umtim?2Desktop?2Client45@ 00000001801d5300     GuGeometryQuery.obj
 0002:0000234c       __real@30d1b7e9            00000001801d534c     GuGeometryQuery.obj
 0002:00002350       __real@322bcc77            00000001801d5350     GuGeometryQuery.obj
 0002:00002354       __real@358637bd            00000001801d5354     GuGeometryQuery.obj
 0002:00002358       __real@3a83126f            00000001801d5358     GuGeometryQuery.obj
 0002:0000235c       __real@3ccccccd            00000001801d535c     GuGeometryQuery.obj
 0002:00002360       __real@3dcccccd            00000001801d5360     GuGeometryQuery.obj
 0002:00002364       __real@49742400            00000001801d5364     GuGeometryQuery.obj
 0002:00002368       __real@7f7fffff            00000001801d5368     GuGeometryQuery.obj
 0002:0000236c       __real@bf800000            00000001801d536c     GuGeometryQuery.obj
 0002:00002370       __xmm@0000000000000000000000003f800000 00000001801d5370     GuGeometryQuery.obj
 0002:00002380       __xmm@00000000000000003f80000000000000 00000001801d5380     GuGeometryQuery.obj
 0002:00002390       __xmm@00000000000000003f8000003f800000 00000001801d5390     GuGeometryQuery.obj
 0002:000023a0       __xmm@000000003f8000000000000000000000 00000001801d53a0     GuGeometryQuery.obj
 0002:000023b0       __xmm@000000003f8000003f8000003f800000 00000001801d53b0     GuGeometryQuery.obj
 0002:000023c0       __xmm@00000000ffffffffffffffffffffffff 00000001801d53c0     GuGeometryQuery.obj
 0002:000023d0       __xmm@3d4ccccd3d4ccccd3d4ccccd3d4ccccd 00000001801d53d0     GuGeometryQuery.obj
 0002:000023e0       __xmm@3e19999a3e19999a3e19999a3e19999a 00000001801d53e0     GuGeometryQuery.obj
 0002:000023f0       __xmm@3e4ccccd3e4ccccd3e4ccccd3e4ccccd 00000001801d53f0     GuGeometryQuery.obj
 0002:00002400       __xmm@3e8000003e8000003e8000003e800000 00000001801d5400     GuGeometryQuery.obj
 0002:00002410       __xmm@3f7ef9db3f7ef9db3f7ef9db3f7ef9db 00000001801d5410     GuGeometryQuery.obj
 0002:00002420       __xmm@3f7ff2e53f7ff2e53f7ff2e53f7ff2e5 00000001801d5420     GuGeometryQuery.obj
 0002:00002430       __xmm@3f8000003f8000003f8000003f800000 00000001801d5430     GuGeometryQuery.obj
 0002:00002440       __xmm@7f7fffff7f7fffff7f7fffff7f7fffff 00000001801d5440     GuGeometryQuery.obj
 0002:00002450       __xmm@bf000000bf000000bf000000bf000000 00000001801d5450     GuGeometryQuery.obj
 0002:00002480       ??_C@_0FD@NHBPCDBF@C?3?2Users?2umtim?2Desktop?2Client45@ 00000001801d5480     GuMeshFactory.obj
 0002:000024f0       ??_C@_0EM@BDFDGBD@Inserting?5object?5failed?3?5Object@ 00000001801d54f0     GuMeshFactory.obj
 0002:00002560       ??_7CallbackRaycast@RTree@Gu@physx@@6B@ 00000001801d5560     GuMidphaseRTree.obj
 0002:00002560       ??_7CallbackRefit@RTree@Gu@physx@@6B@ 00000001801d5560     GuTriangleMeshRTree.obj
 0002:00002560       ??_7PxInsertionCallback@physx@@6B@ 00000001801d5560     GuMeshFactory.obj
 0002:00002570       ??_7PxCollisionMeshMappingData@physx@@6B@ 00000001801d5570     GuMeshFactory.obj
 0002:00002580       ??_7MeshFactory@Gu@physx@@6B@ 00000001801d5580     GuMeshFactory.obj
 0002:00002588       ??_7MeshDataBase@Gu@physx@@6B@ 00000001801d5588     GuMeshFactory.obj
 0002:00002590       ??_C@_0FD@DJMJCNJC@C?3?2Users?2umtim?2Desktop?2Client45@ 00000001801d5590     GuMeshFactory.obj
 0002:000025e8       ??_7TriangleMeshData@Gu@physx@@6B@ 00000001801d55e8     GuMeshFactory.obj
 0002:000025f0       ??_7RTreeTriangleData@Gu@physx@@6B@ 00000001801d55f0     GuMeshFactory.obj
 0002:000025f8       ??_7BV4TriangleData@Gu@physx@@6B@ 00000001801d55f8     GuMeshFactory.obj
 0002:00002600       ??_7SoftBodyCollisionData@Gu@physx@@6B@ 00000001801d5600     GuMeshFactory.obj
 0002:00002608       ??_7CollisionMeshMappingData@Gu@physx@@6B@ 00000001801d5608     GuMeshFactory.obj
 0002:00002618       ??_7SoftBodySimulationData@Gu@physx@@6B@ 00000001801d5618     GuMeshFactory.obj
 0002:00002620       ??_C@_0GP@NHELMDAL@Loading?5triangle?5mesh?5failed?3?5D@ 00000001801d5620     GuMeshFactory.obj
 0002:00002690       ??_C@_0BP@CDOKDACA@RTree?5binary?5image?5load?5error?4@ 00000001801d5690     GuMeshFactory.obj
 0002:000026b0       ??_C@_0BN@MJPNIELF@BV4?5binary?5image?5load?5error?4@ 00000001801d56b0     GuMeshFactory.obj
 0002:000026d0       ??_C@_0BO@JDPABAOF@BV32?5binary?5image?5load?5error?4@ 00000001801d56d0     GuMeshFactory.obj
 0002:000026f0       ??_C@_0EJ@CDHAKLEF@C?3?2Users?2umtim?2Desktop?2Client45@ 00000001801d56f0     GuMeshFactory.obj
 0002:00002740       __xmm@fe7fffff7e7fffff7e7fffff7e7fffff 00000001801d5740     GuMeshFactory.obj
 0002:00002770       ??_C@_06EJKDJEDO@PxBase@   00000001801d5770     GuMetaData.obj
 0002:00002778       ??_C@_07GFCEJNGM@Valency@  00000001801d5778     GuMetaData.obj
 0002:00002780       ??_C@_07NHGKEEIN@mOffset@  00000001801d5780     GuMetaData.obj
 0002:00002788       ??_C@_0BB@BAGHBMNJ@BigConvexRawData@ 00000001801d5788     GuMetaData.obj
 0002:000027a0       ??_C@_07PBDEJAAC@mSubdiv@  00000001801d57a0     GuMetaData.obj
 0002:000027a8       ??_C@_0L@HNPACPGH@mNbSamples@ 00000001801d57a8     GuMetaData.obj
 0002:000027b4       ??_C@_04NCKNBPPK@PxU8@     00000001801d57b4     GuMetaData.obj
 0002:000027c0       ??_C@_08DEPEKJNI@mSamples@ 00000001801d57c0     GuMetaData.obj
 0002:000027d0       ??_C@_08IJDNJBMI@mNbVerts@ 00000001801d57d0     GuMetaData.obj
 0002:000027e0       ??_C@_0M@MMKMIJAF@mNbAdjVerts@ 00000001801d57e0     GuMetaData.obj
 0002:000027f0       ??_C@_0L@EOKMNILC@mValencies@ 00000001801d57f0     GuMetaData.obj
 0002:00002800       ??_C@_0P@DLGEAMHJ@mAdjacentVerts@ 00000001801d5800     GuMetaData.obj
 0002:00002810       ??_C@_03NGLDENDA@SDF@      00000001801d5810     GuMetaData.obj
 0002:00002814       ??_C@_06KDGGGLIJ@PxVec3@   00000001801d5814     GuMetaData.obj
 0002:0000281c       ??_C@_06GIEBFILM@PxReal@   00000001801d581c     GuMetaData.obj
 0002:00002828       ??_C@_0O@PFOPBKAM@BigConvexData@ 00000001801d5828     GuMetaData.obj
 0002:00002838       ??_C@_05PLKALGFN@mData@    00000001801d5838     GuMetaData.obj
 0002:00002840       ??_C@_08PEMCLHEM@mVBuffer@ 00000001801d5840     GuMetaData.obj
 0002:00002850       ??_C@_09FBMAGD@Alignment@  00000001801d5850     GuMetaData.obj
 0002:00002860       ??_C@_0BE@KFHIBEEA@InternalObjectsData@ 00000001801d5860     GuMetaData.obj
 0002:00002878       ??_C@_07NKGFFIBH@mRadius@  00000001801d5878     GuMetaData.obj
 0002:00002880       ??_C@_08EHFCACAE@mExtents@ 00000001801d5880     GuMetaData.obj
 0002:00002890       ??_C@_0BA@LFMGGCBK@HullPolygonData@ 00000001801d5890     GuMetaData.obj
 0002:000028a0       ??_C@_06BOHHGLB@mPlane@    00000001801d58a0     GuMetaData.obj
 0002:000028a8       ??_C@_06EHMLHGLN@mVRef8@   00000001801d58a8     GuMetaData.obj
 0002:000028b0       ??_C@_09BAHHHINI@mMinIndex@ 00000001801d58b0     GuMetaData.obj
 0002:000028c0       ??_C@_0P@GBLBPIPB@ConvexHullData@ 00000001801d58c0     GuMetaData.obj
 0002:000028d0       ??_C@_09JDCJAPKD@PxBounds3@ 00000001801d58d0     GuMetaData.obj
 0002:000028dc       ??_C@_05NDNHIFA@mAABB@     00000001801d58dc     GuMetaData.obj
 0002:000028e8       ??_C@_0O@LNOGEMJI@mCenterOfMass@ 00000001801d58e8     GuMetaData.obj
 0002:000028f8       ??_C@_09CNMCBBKH@mPolygons@ 00000001801d58f8     GuMetaData.obj
 0002:00002908       ??_C@_0BC@KKPDCFJC@mBigConvexRawData@ 00000001801d5908     GuMetaData.obj
 0002:00002920       ??_C@_08MPNAAJLD@mSdfData@ 00000001801d5920     GuMetaData.obj
 0002:00002930       ??_C@_08ELDMKGKH@mNbEdges@ 00000001801d5930     GuMetaData.obj
 0002:00002940       ??_C@_0BA@CGLOHBAC@mNbHullVertices@ 00000001801d5940     GuMetaData.obj
 0002:00002950       ??_C@_0M@HGFFLLDM@mNbPolygons@ 00000001801d5950     GuMetaData.obj
 0002:00002960       ??_C@_09BHJEMDGO@mInternal@ 00000001801d5960     GuMetaData.obj
 0002:00002970       ??_C@_0L@GMFHOMKA@ConvexMesh@ 00000001801d5970     GuMetaData.obj
 0002:00002980       ??_C@_09ILEBDLJH@mHullData@ 00000001801d5980     GuMetaData.obj
 0002:0000298c       ??_C@_03DKDIKGNC@mNb@      00000001801d598c     GuMetaData.obj
 0002:00002990       ??_C@_0P@ENLHFHMD@mBigConvexData@ 00000001801d5990     GuMetaData.obj
 0002:000029a0       ??_C@_05ILALLCHK@mMass@    00000001801d59a0     GuMetaData.obj
 0002:000029a8       ??_C@_07DBPDADGB@PxMat33@  00000001801d59a8     GuMetaData.obj
 0002:000029b0       ??_C@_08FNBHNDBI@mInertia@ 00000001801d59b0     GuMetaData.obj
 0002:000029c0       ??_C@_0O@FCKNKLMJ@GuMeshFactory@ 00000001801d59c0     GuMetaData.obj
 0002:000029d0       ??_C@_0N@EGBCLMAK@mMeshFactory@ 00000001801d59d0     GuMetaData.obj
 0002:000029e0       ??_C@_0BE@CJJAMAMK@PxHeightFieldSample@ 00000001801d59e0     GuMetaData.obj
 0002:000029f4       ??_C@_05MBLIPEMA@PxI16@    00000001801d59f4     GuMetaData.obj
 0002:000029fc       ??_C@_06LNLHEAAG@height@   00000001801d59fc     GuMetaData.obj
 0002:00002a08       ??_C@_0N@HHDGHJN@PxBitAndByte@ 00000001801d5a08     GuMetaData.obj
 0002:00002a18       ??_C@_0P@MBBMLBO@materialIndex0@ 00000001801d5a18     GuMetaData.obj
 0002:00002a28       ??_C@_0P@BFAKPKFP@materialIndex1@ 00000001801d5a28     GuMetaData.obj
 0002:00002a38       ??_C@_0BD@EBLPJEOE@PxHeightFieldFlags@ 00000001801d5a38     GuMetaData.obj
 0002:00002a50       ??_C@_0BK@FNNCFFCN@PxHeightFieldFormat?3?3Enum@ 00000001801d5a50     GuMetaData.obj
 0002:00002a70       ??_C@_0BA@CLNFMAAA@HeightFieldData@ 00000001801d5a70     GuMetaData.obj
 0002:00002a80       ??_C@_04IMCGAIPI@rows@     00000001801d5a80     GuMetaData.obj
 0002:00002a88       ??_C@_07HIFEPIJN@columns@  00000001801d5a88     GuMetaData.obj
 0002:00002a90       ??_C@_08MOAGOABI@rowLimit@ 00000001801d5a90     GuMetaData.obj
 0002:00002aa0       ??_C@_08BAGEHOBO@colLimit@ 00000001801d5aa0     GuMetaData.obj
 0002:00002ab0       ??_C@_09LKDBLADF@nbColumns@ 00000001801d5ab0     GuMetaData.obj
 0002:00002ac0       ??_C@_07ODIFGGLK@samples@  00000001801d5ac0     GuMetaData.obj
 0002:00002ac8       ??_C@_0BE@POHEGOJG@convexEdgeThreshold@ 00000001801d5ac8     GuMetaData.obj
 0002:00002adc       ??_C@_05GECEPKB@flags@     00000001801d5adc     GuMetaData.obj
 0002:00002ae4       ??_C@_06DLEPGFEF@format@   00000001801d5ae4     GuMetaData.obj
 0002:00002af0       ??_C@_0BF@MOGDNMPL@PxMaterialTableIndex@ 00000001801d5af0     GuMetaData.obj
 0002:00002b08       ??_C@_0M@JMJICJJO@HeightField@ 00000001801d5b08     GuMetaData.obj
 0002:00002b18       ??_C@_0O@ENGHMLJP@mSampleStride@ 00000001801d5b18     GuMetaData.obj
 0002:00002b28       ??_C@_0L@EBEEMFFB@mMinHeight@ 00000001801d5b28     GuMetaData.obj
 0002:00002b38       ??_C@_0L@EAEIFPOF@mMaxHeight@ 00000001801d5b38     GuMetaData.obj
 0002:00002b48       ??_C@_0N@FEFJOKKE@mModifyCount@ 00000001801d5b48     GuMetaData.obj
 0002:00002b58       ??_C@_09PHDKHCK@RTreePage@ 00000001801d5b58     GuMetaData.obj
 0002:00002b64       ??_C@_04LLPOBGED@minx@     00000001801d5b64     GuMetaData.obj
 0002:00002b6c       ??_C@_04KCOFCHAC@miny@     00000001801d5b6c     GuMetaData.obj
 0002:00002b74       ??_C@_04IJMIHEMB@minz@     00000001801d5b74     GuMetaData.obj
 0002:00002b7c       ??_C@_04GGOBOBGO@maxx@     00000001801d5b7c     GuMetaData.obj
 0002:00002b84       ??_C@_04HPPKNACP@maxy@     00000001801d5b84     GuMetaData.obj
 0002:00002b8c       ??_C@_04FENHIDOM@maxz@     00000001801d5b8c     GuMetaData.obj
 0002:00002b94       ??_C@_04HHDFEJON@ptrs@     00000001801d5b94     GuMetaData.obj
 0002:00002b9c       ??_C@_05FFEIGAJF@RTree@    00000001801d5b9c     GuMetaData.obj
 0002:00002ba4       ??_C@_06OMCHPNEO@PxVec4@   00000001801d5ba4     GuMetaData.obj
 0002:00002bb0       ??_C@_0L@NBIFEFLN@mBoundsMin@ 00000001801d5bb0     GuMetaData.obj
 0002:00002bc0       ??_C@_0L@MDAOKBNC@mBoundsMax@ 00000001801d5bc0     GuMetaData.obj
 0002:00002bd0       ??_C@_0N@NJEHLCOF@mInvDiagonal@ 00000001801d5bd0     GuMetaData.obj
 0002:00002be0       ??_C@_0BA@BEFIGPFG@mDiagonalScaler@ 00000001801d5be0     GuMetaData.obj
 0002:00002bf0       ??_C@_09DICGGKGO@mPageSize@ 00000001801d5bf0     GuMetaData.obj
 0002:00002c00       ??_C@_0O@BOFFCNOL@mNumRootPages@ 00000001801d5c00     GuMetaData.obj
 0002:00002c10       ??_C@_0L@JKLGBKAE@mNumLevels@ 00000001801d5c10     GuMetaData.obj
 0002:00002c20       ??_C@_0M@PHDOHJGK@mTotalNodes@ 00000001801d5c20     GuMetaData.obj
 0002:00002c30       ??_C@_0M@GDGHALAO@mTotalPages@ 00000001801d5c30     GuMetaData.obj
 0002:00002c3c       ??_C@_06MHCBBJGP@mFlags@   00000001801d5c3c     GuMetaData.obj
 0002:00002c44       ??_C@_06MMNBLHOK@mPages@   00000001801d5c44     GuMetaData.obj
 0002:00002c50       ??_C@_0P@JNLGHJNH@SourceMeshBase@ 00000001801d5c50     GuMetaData.obj
 0002:00002c60       ??_C@_06JFCLJMNN@mVerts@   00000001801d5c60     GuMetaData.obj
 0002:00002c68       ??_C@_05GNIIDDHH@mType@    00000001801d5c68     GuMetaData.obj
 0002:00002c70       ??_C@_06DHAAKLFK@mRemap@   00000001801d5c70     GuMetaData.obj
 0002:00002c78       ??_C@_0L@LEOGNOEC@SourceMesh@ 00000001801d5c78     GuMetaData.obj
 0002:00002c88       ??_C@_07MPIKOOAP@mNbTris@  00000001801d5c88     GuMetaData.obj
 0002:00002c90       ??_C@_0N@FBMOMEHF@mTriangles32@ 00000001801d5c90     GuMetaData.obj
 0002:00002ca0       ??_C@_0N@DGCGNFBP@mTriangles16@ 00000001801d5ca0     GuMetaData.obj
 0002:00002cb0       ??_C@_0O@NLNHFNO@QuantizedAABB@ 00000001801d5cb0     GuMetaData.obj
 0002:00002cc0       ??_C@_0BC@OOGBEMHH@mData?$FL0?$FN?4mExtents@ 00000001801d5cc0     GuMetaData.obj
 0002:00002cd8       ??_C@_0BB@OCEDKIEF@mData?$FL0?$FN?4mCenter@ 00000001801d5cd8     GuMetaData.obj
 0002:00002cf0       ??_C@_0BC@HFMEAABI@mData?$FL1?$FN?4mExtents@ 00000001801d5cf0     GuMetaData.obj
 0002:00002d08       ??_C@_0BB@CDMNHHIF@mData?$FL1?$FN?4mCenter@ 00000001801d5d08     GuMetaData.obj
 0002:00002d20       ??_C@_0BC@CFKNCOI@mData?$FL2?$FN?4mExtents@ 00000001801d5d20     GuMetaData.obj
 0002:00002d38       ??_C@_0BB@LKCPBBIE@mData?$FL2?$FN?4mCenter@ 00000001801d5d38     GuMetaData.obj
 0002:00002d50       ??_C@_0O@MJJKKPFN@BVDataPackedQ@ 00000001801d5d50     GuMetaData.obj
 0002:00002d60       ??_C@_0O@JFMLAIPJ@CenterExtents@ 00000001801d5d60     GuMetaData.obj
 0002:00002d70       ??_C@_07GNKDIIKJ@mCenter@  00000001801d5d70     GuMetaData.obj
 0002:00002d78       ??_C@_0P@KBMJDPLO@BVDataPackedNQ@ 00000001801d5d78     GuMetaData.obj
 0002:00002d88       ??_C@_0M@PNCEBOG@LocalBounds@ 00000001801d5d88     GuMetaData.obj
 0002:00002d94       ??_C@_05KNFBNCOH@float@    00000001801d5d94     GuMetaData.obj
 0002:00002da0       ??_C@_0BC@LADJKHPL@mExtentsMagnitude@ 00000001801d5da0     GuMetaData.obj
 0002:00002db8       ??_C@_07HELIOLAF@BV4Tree@  00000001801d5db8     GuMetaData.obj
 0002:00002dc0       ??_C@_0P@EMMDNPMH@mMeshInterface@ 00000001801d5dc0     GuMetaData.obj
 0002:00002dd0       ??_C@_0N@DCKMHLCL@mLocalBounds@ 00000001801d5dd0     GuMetaData.obj
 0002:00002de0       ??_C@_08EEJOMIJL@mNbNodes@ 00000001801d5de0     GuMetaData.obj
 0002:00002dec       ??_C@_06FIIIMFIO@mNodes@   00000001801d5dec     GuMetaData.obj
 0002:00002df8       ??_C@_09FGKNPI@mInitData@  00000001801d5df8     GuMetaData.obj
 0002:00002e08       ??_C@_0BC@CLDEHKCO@mCenterOrMinCoeff@ 00000001801d5e08     GuMetaData.obj
 0002:00002e20       ??_C@_0BD@LAOLBNJ@mExtentsOrMaxCoeff@ 00000001801d5e20     GuMetaData.obj
 0002:00002e38       ??_C@_0P@JEECKKBL@mUserAllocated@ 00000001801d5e38     GuMetaData.obj
 0002:00002e48       ??_C@_0L@GLIMNECG@mQuantized@ 00000001801d5e48     GuMetaData.obj
 0002:00002e58       ??_C@_0L@CCOJDAID@mIsEdgeSet@ 00000001801d5e58     GuMetaData.obj
 0002:00002e68       ??_C@_08BNDBAGDH@mPadding@ 00000001801d5e68     GuMetaData.obj
 0002:00002e78       ??_C@_0N@OJNNNLIB@TriangleMesh@ 00000001801d5e78     GuMetaData.obj
 0002:00002e88       ??_C@_0M@OGEDMEAL@mNbVertices@ 00000001801d5e88     GuMetaData.obj
 0002:00002e98       ??_C@_0N@MGGDNHNI@mNbTriangles@ 00000001801d5e98     GuMetaData.obj
 0002:00002ea8       ??_C@_09LNNEGOJA@mVertices@ 00000001801d5ea8     GuMetaData.obj
 0002:00002eb8       ??_C@_0L@KBOFAKLO@mTriangles@ 00000001801d5eb8     GuMetaData.obj
 0002:00002ec8       ??_C@_0P@MHDFIHLD@mExtraTrigData@ 00000001801d5ec8     GuMetaData.obj
 0002:00002ed8       ??_C@_0N@MGIKKCI@mGeomEpsilon@ 00000001801d5ed8     GuMetaData.obj
 0002:00002ee8       ??_C@_0BB@IFLOOCNA@mMaterialIndices@ 00000001801d5ee8     GuMetaData.obj
 0002:00002f00       ??_C@_0L@OPJMBFMI@mFaceRemap@ 00000001801d5f00     GuMetaData.obj
 0002:00002f10       ??_C@_0N@BIOECAPM@mAdjacencies@ 00000001801d5f10     GuMetaData.obj
 0002:00002f20       ??_C@_09CICJHLPI@mEdgeList@ 00000001801d5f20     GuMetaData.obj
 0002:00002f30       ??_C@_0BD@IPKCNNIK@mLocalCenterOfMass@ 00000001801d5f30     GuMetaData.obj
 0002:00002f48       ??_C@_0BA@OCOIGPII@mGRB_triIndices@ 00000001801d5f48     GuMetaData.obj
 0002:00002f58       ??_C@_0BE@JPINNDAH@mGRB_triAdjacencies@ 00000001801d5f58     GuMetaData.obj
 0002:00002f70       ??_C@_0P@EDFJJHEF@mGRB_faceRemap@ 00000001801d5f70     GuMetaData.obj
 0002:00002f80       ??_C@_0BG@EEALPPCP@mGRB_faceRemapInverse@ 00000001801d5f80     GuMetaData.obj
 0002:00002f98       ??_C@_0O@CKMBAIFN@mGRB_BV32Tree@ 00000001801d5f98     GuMetaData.obj
 0002:00002fa8       ??_C@_0BE@MGIOIICI@mSdfData?4mMeshLower@ 00000001801d5fa8     GuMetaData.obj
 0002:00002fc0       ??_C@_0BC@NNEDELGI@mSdfData?4mSpacing@ 00000001801d5fc0     GuMetaData.obj
 0002:00002fd8       ??_C@_0BB@OHOFDAIL@mSdfData?4mDims?4x@ 00000001801d5fd8     GuMetaData.obj
 0002:00002ff0       ??_C@_0BB@POPOABMK@mSdfData?4mDims?4y@ 00000001801d5ff0     GuMetaData.obj
 0002:00003008       ??_C@_0BB@NFNDFCAJ@mSdfData?4mDims?4z@ 00000001801d6008     GuMetaData.obj
 0002:00003020       ??_C@_0BC@GMPBGGPI@mSdfData?4mNumSdfs@ 00000001801d6020     GuMetaData.obj
 0002:00003038       ??_C@_0O@BCEBBLNE@mSdfData?4mSdf@ 00000001801d6038     GuMetaData.obj
 0002:00003048       ??_C@_0BG@HMHEFHIE@mSdfData?4mSubgridSize@ 00000001801d6048     GuMetaData.obj
 0002:00003060       ??_C@_0BI@OFJBKPGB@mSdfData?4mNumStartSlots@ 00000001801d6060     GuMetaData.obj
 0002:00003078       ??_C@_0BM@MGEPBEON@mSdfData?4mSubgridStartSlots@ 00000001801d6078     GuMetaData.obj
 0002:00003098       ??_C@_0BJ@PKKGJLNM@mSdfData?4mNumSubgridSdfs@ 00000001801d6098     GuMetaData.obj
 0002:000030b8       ??_C@_0BF@HLMPGIBH@mSdfData?4mSubgridSdf@ 00000001801d60b8     GuMetaData.obj
 0002:000030d0       ??_C@_0CF@GMJNHGOK@mSdfData?4mSdfSubgrids3DTexBlock@ 00000001801d60d0     GuMetaData.obj
 0002:000030f8       ??_C@_0CF@HFIGEHKL@mSdfData?4mSdfSubgrids3DTexBlock@ 00000001801d60f8     GuMetaData.obj
 0002:00003120       ??_C@_0CF@FOKLBEGI@mSdfData?4mSdfSubgrids3DTexBlock@ 00000001801d6120     GuMetaData.obj
 0002:00003148       ??_C@_0BO@EIPCIOJH@mSdfData?4mSubgridsMinSdfValue@ 00000001801d6148     GuMetaData.obj
 0002:00003168       ??_C@_0BO@NIIBJOHN@mSdfData?4mSubgridsMaxSdfValue@ 00000001801d6168     GuMetaData.obj
 0002:00003188       ??_C@_0BO@GKGODKFG@mSdfData?4mBytesPerSparsePixel@ 00000001801d6188     GuMetaData.obj
 0002:000031a8       ??_C@_0BJ@LEBGJKBE@mAccumulatedTrianglesRef@ 00000001801d61a8     GuMetaData.obj
 0002:000031c8       ??_C@_0BF@OJMCNCDP@mTrianglesReferences@ 00000001801d61c8     GuMetaData.obj
 0002:000031e0       ??_C@_0BH@LDGPOFA@mNbTrianglesReferences@ 00000001801d61e0     GuMetaData.obj
 0002:000031f8       ??_C@_0BC@IFGECKF@RTreeTriangleMesh@ 00000001801d61f8     GuMetaData.obj
 0002:0000320c       ??_C@_06JDIHDDGN@mRTree@   00000001801d620c     GuMetaData.obj
 0002:00003218       ??_C@_0BA@LNNFPOKA@BV4TriangleMesh@ 00000001801d6218     GuMetaData.obj
 0002:00003228       ??_C@_08FKLPEGDB@mBV4Tree@ 00000001801d6228     GuMetaData.obj
 0002:00003238       ??_7?$SupportLocalImpl@VConvexHullNoScaleV@Gu@physx@@@Gu@physx@@6B@ 00000001801d6238     GuMTD.obj
 0002:00003280       ?absMask@?1??FAbs@aos@physx@@YA?AT__m128@@T4@@Z@4QBIB 00000001801d6280     GuMTD.obj
 0002:00003290       ??_7GjkConvex@Gu@physx@@6B@ 00000001801d6290     GuMTD.obj
 0002:000032c0       ??_7?$LocalConvex@VCapsuleV@Gu@physx@@@Gu@physx@@6B@ 00000001801d62c0     GuMTD.obj
 0002:000032f0       ??_7?$LocalConvex@VConvexHullV@Gu@physx@@@Gu@physx@@6B@ 00000001801d62f0     GuMTD.obj
 0002:00003320       __real@2edbe6ff            00000001801d6320     GuMTD.obj
 0002:00003324       __real@34000000            00000001801d6324     GuMTD.obj
 0002:00003328       __real@ff7fffff            00000001801d6328     GuMTD.obj
 0002:00003330       __xmm@34000000340000003400000034000000 00000001801d6330     GuMTD.obj
 0002:00003340       __xmm@358637bd358637bd358637bd358637bd 00000001801d6340     GuMTD.obj
 0002:00003350       __xmm@3dcccccd3dcccccd3dcccccd3dcccccd 00000001801d6350     GuMTD.obj
 0002:00003360       __xmm@3f7ff1413f7ff1413f7ff1413f7ff141 00000001801d6360     GuMTD.obj
 0002:00003390       ??_7?$RelativeConvex@VBoxV@Gu@physx@@@Gu@physx@@6B@ 00000001801d6390     GuOverlapTests.obj
 0002:000033c0       ??_7?$RelativeConvex@VConvexHullV@Gu@physx@@@Gu@physx@@6B@ 00000001801d63c0     GuOverlapTests.obj
 0002:00003420       __real@1e3ce508            00000001801d6420     GuRaycastTests.obj
 0002:00003424       __real@28800000            00000001801d6424     GuRaycastTests.obj
 0002:00003428       __real@33d6bf95            00000001801d6428     GuRaycastTests.obj
 0002:0000342c       __real@3727c5ac            00000001801d642c     GuRaycastTests.obj
 0002:00003430       __real@38d1b717            00000001801d6430     GuRaycastTests.obj
 0002:00003434       __real@3f0147ae            00000001801d6434     GuRaycastTests.obj
 0002:00003438       __real@3f7ffffe            00000001801d6438     GuRaycastTests.obj
 0002:0000343c       __real@3f800347            00000001801d643c     GuRaycastTests.obj
 0002:00003440       __real@41200000            00000001801d6440     GuRaycastTests.obj
 0002:00003444       __real@80000000            00000001801d6444     GuRaycastTests.obj
 0002:00003448       __real@b3d6bf95            00000001801d6448     GuRaycastTests.obj
 0002:0000344c       __real@b8d1b717            00000001801d644c     GuRaycastTests.obj
 0002:00003450       __real@c1200000            00000001801d6450     GuRaycastTests.obj
 0002:00003490       ??_7?$MeshHitCallback@UPxGeomRaycastHit@physx@@@Gu@physx@@6B@ 00000001801d6490     GuSweepMTD.obj
 0002:000034a0       ??_7MeshMTDGenerationCallback@@6B@ 00000001801d64a0     GuSweepMTD.obj
 0002:000034b0       ??_7MidPhaseQueryLocalReport@@6B@ 00000001801d64b0     GuSweepMTD.obj
 0002:000034c0       __real@3f8147ae            00000001801d64c0     GuSweepMTD.obj
 0002:000034c4       __real@3f933333            00000001801d64c4     GuSweepMTD.obj
 0002:000034f0       __real@3c23d70a            00000001801d64f0     GuSweepSharedTests.obj
 0002:000034f4       __real@42c80000            00000001801d64f4     GuSweepSharedTests.obj
 0002:00003500       __xmm@ffffffffffffffffffffffffffffffff 00000001801d6500     GuSweepSharedTests.obj
 0002:00003530       ??_7?$LocalConvex@VBoxV@Gu@physx@@@Gu@physx@@6B@ 00000001801d6530     GuSweepTests.obj
 0002:00003560       ??_7?$LocalConvex@VTriangleV@Gu@physx@@@Gu@physx@@6B@ 00000001801d6560     GuSweepTests.obj
 0002:00003590       __xmm@00000002000000020000000200000002 00000001801d6590     GuSweepTests.obj
 0002:000035a0       __xmm@3eaaaa9f3eaaaa9f3eaaaa9f3eaaaa9f 00000001801d65a0     GuSweepTests.obj
 0002:00003658       ??_7PxRunnable@physx@@6B@  00000001801d6658     GuSDF.obj
 0002:00003670       ??_C@_0EL@DKIFHLBP@C?3?2Users?2umtim?2Desktop?2Client45@ 00000001801d6670     GuSDF.obj
 0002:000036c0       ??_7PointOntoTriangleMeshProjector@Gu@physx@@6B@ 00000001801d66c0     GuSDF.obj
 0002:000036d8       ??_7?$PxThreadT@V?$PxReflectionAllocator@VPxThreadImpl@physx@@@physx@@@physx@@6B@ 00000001801d66d8     GuSDF.obj
 0002:000036e8       ??_C@_06FJHNOCKE@thread@   00000001801d66e8     GuSDF.obj
 0002:000036f0       ??_C@_0LB@PNCFCFJO@SDF?5creation?3?5Fixing?5of?5the?5inp@ 00000001801d66f0     GuSDF.obj
 0002:000037b0       ??_C@_0GH@OCDHPNNL@SDF?5creation?3?5Input?5mesh?5is?5not@ 00000001801d67b0     GuSDF.obj
 0002:00003820       ??_C@_0EK@MCPCHNCJ@C?3?2Users?2umtim?2Desktop?2Client45@ 00000001801d6820     GuSDF.obj
 0002:00003870       ??_C@_0EI@NGPOKKCI@C?3?2Users?2umtim?2Desktop?2Client45@ 00000001801d6870     GuSDF.obj
 0002:000038c0       ??_C@_0FB@ODEAKJFF@C?3?2Users?2umtim?2Desktop?2Client45@ 00000001801d68c0     GuSDF.obj
 0002:00003914       __real@37800080            00000001801d6914     GuSDF.obj
 0002:00003918       __real@3b808081            00000001801d6918     GuSDF.obj
 0002:0000391c       __real@3e2aaaab            00000001801d691c     GuSDF.obj
 0002:00003920       __real@3eaaaaab            00000001801d6920     GuSDF.obj
 0002:00003924       __real@3f7d70a4            00000001801d6924     GuSDF.obj
 0002:00003928       __real@7e7fffff            00000001801d6928     GuSDF.obj
 0002:0000392c       __real@bf000000            00000001801d692c     GuSDF.obj
 0002:00003930       __real@fe7fffff            00000001801d6930     GuSDF.obj
 0002:00003940       __xmm@00000001000000000000000000000000 00000001801d6940     GuSDF.obj
 0002:00003950       __real@437f0000            00000001801d6950     GuCookingSDF.obj
 0002:00003954       __real@477fff00            00000001801d6954     GuCookingSDF.obj
 0002:00003980       ??_7?$RelativeConvex@UCustomConvexV@@@Gu@physx@@6B@ 00000001801d6980     GuGjkQuery.obj
 0002:000039b0       ??_7?$LocalConvex@UCustomConvexV@@@Gu@physx@@6B@ 00000001801d69b0     GuGjkQuery.obj
 0002:000039e0       ??_7?$LocalConvex@UPointConvexV@@@Gu@physx@@6B@ 00000001801d69e0     GuGjkQuery.obj
 0002:00003a30       __real@3da2f983            00000001801d6a30     GuWindingNumber.obj
 0002:00003a34       __real@3e22f983            00000001801d6a34     GuWindingNumber.obj
 0002:00003a38       __real@3f99999a            00000001801d6a38     GuWindingNumber.obj
 0002:00003aa0       __real@3c343958            00000001801d6aa0     GuCCDSweepConvexMesh.obj
 0002:00003aa4       __real@3ca3d70a            00000001801d6aa4     GuCCDSweepConvexMesh.obj
 0002:00003aa8       __real@3f0ccccd            00000001801d6aa8     GuCCDSweepConvexMesh.obj
 0002:00003aac       __real@3f8ccccd            00000001801d6aac     GuCCDSweepConvexMesh.obj
 0002:00003ab0       __real@b58637bd            00000001801d6ab0     GuCCDSweepConvexMesh.obj
 0002:00003ae0       ??_7?$RelativeConvex@VCapsuleV@Gu@physx@@@Gu@physx@@6B@ 00000001801d6ae0     GuCCDSweepPrimitives.obj
 0002:00003b10       ??_7?$RelativeConvex@VTriangleV@Gu@physx@@@Gu@physx@@6B@ 00000001801d6b10     GuCCDSweepPrimitives.obj
 0002:00003b40       __real@3ba3d70a            00000001801d6b40     GuCCDSweepPrimitives.obj
 0002:00003b44       __real@501502f9            00000001801d6b44     GuCCDSweepPrimitives.obj
 0002:00003b70       ??_C@_0FK@KPHIMJDM@C?3?2Users?2umtim?2Desktop?2Client45@ 00000001801d6b70     GuAdjacencies.obj
 0002:00003bd0       ??_C@_0DA@FMEHLBKI@Adjacencies?3?3UpdateLink?3?5invali@ 00000001801d6bd0     GuAdjacencies.obj
 0002:00003c00       ??_C@_0EA@CPHOACLK@Adjacencies?3?3CreateDatabase?3?5ca@ 00000001801d6c00     GuAdjacencies.obj
 0002:00003c40       ??_C@_0FH@FKOLGHEN@C?3?2Users?2umtim?2Desktop?2Client45@ 00000001801d6c40     GuEdgeList.obj
 0002:00003c98       ??_C@_0CO@GBNJFPN@EdgeList?3?3CreateFacesToEdges?3?5N@ 00000001801d6c98     GuEdgeList.obj
 0002:00003cc8       ??_C@_0CO@EHJBBMNK@EdgeList?3?3ComputeActiveEdges?3?5N@ 00000001801d6cc8     GuEdgeList.obj
 0002:00003cf8       ??_C@_0DI@GBHLFOFP@ActiveEdges?3?3ComputeConvexEdges@ 00000001801d6cf8     GuEdgeList.obj
 0002:00003d30       ??_C@_0DM@JOGBLHDI@ActiveEdges?3?3ComputeConvexEdges@ 00000001801d6d30     GuEdgeList.obj
 0002:00003d70       ??_C@_0ED@FEMJKPEL@ActiveEdges?3?3ComputeConvexEdges@ 00000001801d6d70     GuEdgeList.obj
 0002:00003dc0       ??_C@_0EB@BFDPMFCD@ActiveEdges?3?3ComputeConvexEdges@ 00000001801d6dc0     GuEdgeList.obj
 0002:00003e04       __real@bf7fbe77            00000001801d6e04     GuEdgeList.obj
 0002:00003e08       ??_7Quantizer@Gu@physx@@6B@ 00000001801d6e08     GuQuantizer.obj
 0002:00003e30       ??_7QuantizerImpl@@6B@     00000001801d6e30     GuQuantizer.obj
 0002:00003e60       ??_C@_0FI@MBNKKDKI@C?3?2Users?2umtim?2Desktop?2Client45@ 00000001801d6e60     GuQuantizer.obj
 0002:00003eb8       __real@3f0020c5            00000001801d6eb8     GuQuantizer.obj
 0002:00003ebc       __real@3f8020c5            00000001801d6ebc     GuQuantizer.obj
 0002:00003ec0       ??_C@_0FK@IKCDOEGI@C?3?2Users?2umtim?2Desktop?2Client45@ 00000001801d6ec0     GuMeshCleaner.obj
 0002:00003f20       ??_C@_0FM@NMIMBNEH@C?3?2Users?2umtim?2Desktop?2Client45@ 00000001801d6f20     GuVertexReducer.obj
 0002:00004080       __real@3f7fbe77            00000001801d7080     GuContactBoxBox.obj
 0002:000040d0       __real@3f7ff2e5            00000001801d70d0     GuContactCapsuleCapsule.obj
 0002:000040d4       __real@40800000            00000001801d70d4     GuContactCapsuleCapsule.obj
 0002:00004160       __real@358637be            00000001801d7160     GuContactCapsuleMesh.obj
 0002:00004164       __real@ba83126f            00000001801d7164     GuContactCapsuleMesh.obj
 0002:000041c0       ??_7ConvexMeshContactGenerationCallback@@6B@ 00000001801d71c0     GuContactConvexMesh.obj
 0002:00004240       __real@3ec90fdb            00000001801d7240     GuContactPolygonPolygon.obj
 0002:00004244       __real@3f490fdb            00000001801d7244     GuContactPolygonPolygon.obj
 0002:00004248       __real@3f96cbe4            00000001801d7248     GuContactPolygonPolygon.obj
 0002:0000424c       __real@3fc90fdb            00000001801d724c     GuContactPolygonPolygon.obj
 0002:00004250       __real@3ffb53d2            00000001801d7250     GuContactPolygonPolygon.obj
 0002:00004254       __real@4016cbe4            00000001801d7254     GuContactPolygonPolygon.obj
 0002:00004258       __real@402feddf            00000001801d7258     GuContactPolygonPolygon.obj
 0002:000042c0       ??_C@_0FM@IOAPHJGD@C?3?2Users?2umtim?2Desktop?2Client45@ 00000001801d72c0     GuBigConvexData.obj
 0002:00004340       ??_C@_0N@CDGINLLF@PxConvexMesh@ 00000001801d7340     GuConvexMesh.obj
 0002:00004350       ??_7PxBase@physx@@6B@      00000001801d7350     GuConvexMesh.obj
 0002:00004378       ??_C@_0N@OPPDBGAG@PxRefCounted@ 00000001801d7378     GuConvexMesh.obj
 0002:00004388       ??_7ConvexMesh@Gu@physx@@6B@ 00000001801d7388     GuConvexMesh.obj
 0002:00004420       ??_C@_0FJ@HPAHAAF@C?3?2Users?2umtim?2Desktop?2Client45@ 00000001801d7420     GuConvexMesh.obj
 0002:00004480       ??_C@_0DM@NEJKOFIP@Loading?5convex?5mesh?5failed?3?5Dep@ 00000001801d7480     GuConvexMesh.obj
 0002:000044c0       ??_C@_0DB@PAHEPIEL@PxConvexMesh?3?3release?3?5double?5d@ 00000001801d74c0     GuConvexMesh.obj
 0002:00004500       ??_C@_0FB@PFODBJNO@C?3?2Users?2umtim?2Desktop?2Client45@ 00000001801d7500     GuConvexMesh.obj
 0002:00004580       __xmm@000000000000000000000000ffffffff 00000001801d7580     GuConvexSupportTable.obj
 0002:00004590       __xmm@0000000000000000ffffffff00000000 00000001801d7590     GuConvexSupportTable.obj
 0002:000045a0       __xmm@0000000000000000ffffffffffffffff 00000001801d75a0     GuConvexSupportTable.obj
 0002:000045b0       __xmm@00000000ffffffff0000000000000000 00000001801d75b0     GuConvexSupportTable.obj
 0002:000045c0       __xmm@00000000ffffffff00000000ffffffff 00000001801d75c0     GuConvexSupportTable.obj
 0002:000045d0       __xmm@00000000ffffffffffffffff00000000 00000001801d75d0     GuConvexSupportTable.obj
 0002:000046a0       __xmm@3f0000003f0000003f0000003f000000 00000001801d76a0     GuDistanceSegmentSegment.obj
 0002:000046d0       __real@2b8cbccc            00000001801d76d0     GuDistanceSegmentTriangle.obj
 0002:000046e0       __xmm@3f8000013f8000013f8000013f800001 00000001801d76e0     GuDistanceSegmentTriangle.obj
 0002:000046f0       __xmm@b4000000b4000000b4000000b4000000 00000001801d76f0     GuDistanceSegmentTriangle.obj
 0002:00004770       __xmm@38d1b71738d1b71738d1b71738d1b717 00000001801d7770     GuGJKSimplex.obj
 0002:000047a0       ??_C@_0O@PBAKPCEC@PxHeightField@ 00000001801d77a0     GuHeightField.obj
 0002:000047b0       ??_7HeightField@Gu@physx@@6B@ 00000001801d77b0     GuHeightField.obj
 0002:00004868       ??_C@_0DC@BDMMBOKH@PxHeightField?3?3release?3?5double?5@ 00000001801d7868     GuHeightField.obj
 0002:000048a0       ??_C@_0FG@HNAEIGON@C?3?2Users?2umtim?2Desktop?2Client45@ 00000001801d78a0     GuHeightField.obj
 0002:000048f8       ??_C@_0CI@DMKEKGNK@Gu?3?3HeightField?3?3load?3?5PX_ALLOC@ 00000001801d78f8     GuHeightField.obj
 0002:00004920       ??_C@_0EK@IGNGDEOF@C?3?2Users?2umtim?2Desktop?2Client45@ 00000001801d7920     GuHeightField.obj
 0002:00004990       __real@3a03126f            00000001801d7990     GuHeightFieldUtil.obj
 0002:00004994       __real@3f19999a            00000001801d7994     GuHeightFieldUtil.obj
 0002:000049a0       __xmm@40000000000000000000000000000000 00000001801d79a0     GuHeightFieldUtil.obj
 0002:00004a30       ??_7HeightFieldTraceSegmentReport@@6B@ 00000001801d7a30     GuSweepsHF.obj
 0002:00004a40       ??_7CapsuleTraceSegmentReport@@6B@ 00000001801d7a40     GuSweepsHF.obj
 0002:00004a50       ??_7ConvexTraceSegmentReport@@6B@ 00000001801d7a50     GuSweepsHF.obj
 0002:00004a60       ??_7BoxTraceSegmentReport@@6B@ 00000001801d7a60     GuSweepsHF.obj
 0002:00004a70       __real@aedbe6ff            00000001801d7a70     GuSweepsHF.obj
 0002:00004aa0       __real@3089705f            00000001801d7aa0     GuIntersectionRayBox.obj
 0002:00004aa4       __real@b4000000            00000001801d7aa4     GuIntersectionRayBox.obj
 0002:00004ab0       __xmm@000000003089705f3089705f3089705f 00000001801d7ab0     GuIntersectionRayBox.obj
 0002:00004ac0       __xmm@00000000bf800000bf800000bf800000 00000001801d7ac0     GuIntersectionRayBox.obj
 0002:00004af0       __real@7fc00000            00000001801d7af0     GuIntersectionTriangleTriangle.obj
 0002:00004b00       __xmm@7fc000007fc000007fc000007fc00000 00000001801d7b00     GuIntersectionTriangleTriangle.obj
 0002:00004b30       ??_7SourceMeshBase@Gu@physx@@6B@ 00000001801d7b30     GuBV4.obj
 0002:00004b58       ??_7SourceMesh@Gu@physx@@6B@ 00000001801d7b58     GuBV4.obj
 0002:00004b80       ??_7TetrahedronSourceMesh@Gu@physx@@6B@ 00000001801d7b80     GuBV4.obj
 0002:00004bb0       ??_C@_0FA@NNFHMPIJ@C?3?2Users?2umtim?2Desktop?2Client45@ 00000001801d7bb0     GuBV4.obj
 0002:00004c00       __xmm@ff7fffffff7fffffff7fffffff7fffff 00000001801d7c00     GuBV4.obj
 0002:00004c30       ??_C@_0FF@KHPPDJAJ@C?3?2Users?2umtim?2Desktop?2Client45@ 00000001801d7c30     GuBV4Build.obj
 0002:00004c88       __real@38000100            00000001801d7c88     GuBV4Build.obj
 0002:00004c8c       __real@3e93cd3a            00000001801d7c8c     GuBV4Build.obj
 0002:00004c90       __real@46fffe00            00000001801d7c90     GuBV4Build.obj
 0002:00004c94       __real@be93cd3a            00000001801d7c94     GuBV4Build.obj
 0002:00004cc0       __xmm@0000ffff0000ffff0000ffff0000ffff 00000001801d7cc0     GuBV4_AABBSweep.obj
 0002:00004cd0       __xmm@3089705f3089705f3089705f3089705f 00000001801d7cd0     GuBV4_AABBSweep.obj
 0002:00004ce0       __xmm@33d6bf9533d6bf9533d6bf9533d6bf95 00000001801d7ce0     GuBV4_AABBSweep.obj
 0002:00004cf0       __xmm@40000000400000004000000040000000 00000001801d7cf0     GuBV4_AABBSweep.obj
 0002:00004dc0       __real@00000000            00000001801d7dc0     GuBV4_Raycast.obj
 0002:00004df0       __real@4f7fffff            00000001801d7df0     GuBV4_SphereOverlap.obj
 0002:00004e40       __xmm@000000007f7fffff0000000000000000 00000001801d7e40     GuMidphaseBV4.obj
 0002:00004eb0       ??_C@_0FD@EHCCILIF@Adjacency?5information?5not?5creat@ 00000001801d7eb0     GuMeshQuery.obj
 0002:00004f10       ??_C@_0FG@HOOMHOIG@C?3?2Users?2umtim?2Desktop?2Client45@ 00000001801d7f10     GuMeshQuery.obj
 0002:00004f70       ??_C@_0FL@BKNMAHIA@PxMeshQuery?3?3findOverlapTriangl@ 00000001801d7f70     GuMeshQuery.obj
 0002:00004fcc       __real@4cbebc20            00000001801d7fcc     GuMeshQuery.obj
 0002:00004ff0       ??_7Callback@RTree@Gu@physx@@6B@ 00000001801d7ff0     GuMidphaseRTree.obj
 0002:00005008       ??_7?$RayRTreeCallback@$00$0A@@@6BCallbackRaycast@RTree@Gu@physx@@@ 00000001801d8008     GuMidphaseRTree.obj
 0002:00005008       ??_7?$RayRTreeCallback@$0A@$0A@@@6BCallbackRaycast@RTree@Gu@physx@@@ 00000001801d8008     GuMidphaseRTree.obj
 0002:00005018       ??_7?$RayRTreeCallback@$00$0A@@@6BCallback@RTree@Gu@physx@@@ 00000001801d8018     GuMidphaseRTree.obj
 0002:00005018       ??_7?$RayRTreeCallback@$0A@$0A@@@6BCallback@RTree@Gu@physx@@@ 00000001801d8018     GuMidphaseRTree.obj
 0002:00005030       ??_7RayMeshColliderCallback@@6B@ 00000001801d8030     GuMidphaseRTree.obj
 0002:00005040       ??_C@_0EN@DPPFLBLF@Point?9mesh?5distance?5query?5not?5s@ 00000001801d8040     GuMidphaseRTree.obj
 0002:00005090       ??_C@_0FK@OLKACHEO@C?3?2Users?2umtim?2Desktop?2Client45@ 00000001801d8090     GuMidphaseRTree.obj
 0002:000050f0       ??_7?$RayRTreeCallback@$0A@$00@@6BCallbackRaycast@RTree@Gu@physx@@@ 00000001801d80f0     GuMidphaseRTree.obj
 0002:00005100       ??_7?$RayRTreeCallback@$0A@$00@@6BCallback@RTree@Gu@physx@@@ 00000001801d8100     GuMidphaseRTree.obj
 0002:00005118       ??_7?$RayRTreeCallback@$00$00@@6BCallbackRaycast@RTree@Gu@physx@@@ 00000001801d8118     GuMidphaseRTree.obj
 0002:00005128       ??_7?$RayRTreeCallback@$00$00@@6BCallback@RTree@Gu@physx@@@ 00000001801d8128     GuMidphaseRTree.obj
 0002:000051a0       __xmm@7f7fffff000000000000000000000000 00000001801d81a0     GuMidphaseRTree.obj
 0002:00005220       ??_7?$PxReportCallback@UPxGeomIndexPair@physx@@@physx@@6B@ 00000001801d8220     GuOverlapTestsMesh.obj
 0002:00005240       ??_C@_0EP@CEFGCJKJ@PxGeometryQuery?3?3overlap?$CI?$CJ?3?5onl@ 00000001801d8240     GuOverlapTestsMesh.obj
 0002:00005290       ??_C@_0FN@EMENFAEP@C?3?2Users?2umtim?2Desktop?2Client45@ 00000001801d8290     GuOverlapTestsMesh.obj
 0002:00005310       ?MN@RTreePage@Gu@physx@@2MB 00000001801d8310     GuRTree.obj
 0002:00005314       ?MX@RTreePage@Gu@physx@@2MB 00000001801d8314     GuRTree.obj
 0002:00005320       ??_C@_0FC@CJCEBJJD@C?3?2Users?2umtim?2Desktop?2Client45@ 00000001801d8320     GuRTree.obj
 0002:000053f0       ??_7SweepShapeMeshHitCallback@Gu@physx@@6B@ 00000001801d83f0     GuSweepsMesh.obj
 0002:00005400       ??_7SweepCapsuleMeshHitCallback@Gu@physx@@6B@ 00000001801d8400     GuSweepsMesh.obj
 0002:00005410       ??_7SweepBoxMeshHitCallback@Gu@physx@@6B@ 00000001801d8410     GuSweepsMesh.obj
 0002:00005420       ??_7SweepConvexMeshHitCallback@Gu@physx@@6B@ 00000001801d8420     GuSweepsMesh.obj
 0002:00005450       ??_C@_0P@GGNFNHKF@PxTriangleMesh@ 00000001801d8450     GuTriangleMesh.obj
 0002:00005460       ??_7TriangleMesh@Gu@physx@@6B@ 00000001801d8460     GuTriangleMesh.obj
 0002:00005538       ??_C@_0DD@LOOPMCGG@PxTriangleMesh?3?3release?3?5double@ 00000001801d8538     GuTriangleMesh.obj
 0002:00005570       ??_C@_0FH@PMPAJDGI@PxTriangleMesh?3?3getVerticesForM@ 00000001801d8570     GuTriangleMesh.obj
 0002:000055d0       ??_C@_0FJ@DJKANPOE@C?3?2Users?2umtim?2Desktop?2Client45@ 00000001801d85d0     GuTriangleMesh.obj
 0002:00005630       ??_C@_0EF@GMNFLDH@PxTriangleMesh?3?3refitBVH?$CI?$CJ?5is?5n@ 00000001801d8630     GuTriangleMesh.obj
 0002:00005680       __xmm@38383838383838383838383838383838 00000001801d8680     GuTriangleMesh.obj
 0002:000056b0       ??_C@_0BE@CNJKIINO@PxBVH34TriangleMesh@ 00000001801d86b0     GuTriangleMeshBV4.obj
 0002:000056c8       ??_7BV4TriangleMesh@Gu@physx@@6B@ 00000001801d86c8     GuTriangleMeshBV4.obj
 0002:000057a0       ??_C@_0EF@JLFNNPLP@BVH34?5trees?3?5refit?5operation?5on@ 00000001801d87a0     GuTriangleMeshBV4.obj
 0002:000057f0       ??_C@_0FM@ECDFENOH@C?3?2Users?2umtim?2Desktop?2Client45@ 00000001801d87f0     GuTriangleMeshBV4.obj
 0002:0000584c       __real@3951b717            00000001801d884c     GuTriangleMeshBV4.obj
 0002:00005870       ??_C@_0BE@EIFHCCBO@PxBVH33TriangleMesh@ 00000001801d8870     GuTriangleMeshRTree.obj
 0002:00005888       ??_7RTreeTriangleMesh@Gu@physx@@6B@ 00000001801d8888     GuTriangleMeshRTree.obj
 0002:00005960       ??_7?$RefitCallback@G@physx@@6B@ 00000001801d8960     GuTriangleMeshRTree.obj
 0002:00005970       ??_7?$RefitCallback@I@physx@@6B@ 00000001801d8970     GuTriangleMeshRTree.obj
 0002:000059a0       ??_C@_0FB@OIPKINFK@C?3?2Users?2umtim?2Desktop?2Client45@ 00000001801d89a0     GuBV32.obj
 0002:00005a20       ??_C@_0FG@CLCGKALD@C?3?2Users?2umtim?2Desktop?2Client45@ 00000001801d8a20     GuBV32Build.obj
 0002:00005aa0       ??_C@_0BC@FDAIDHBP@PxTetrahedronMesh@ 00000001801d8aa0     GuTetrahedronMesh.obj
 0002:00005ab8       ??_C@_0BC@FBICGJIB@PxSoftBodyAuxData@ 00000001801d8ab8     GuTetrahedronMesh.obj
 0002:00005ad0       ??_C@_0P@CLLFGFAA@PxSoftBodyMesh@ 00000001801d8ad0     GuTetrahedronMesh.obj
 0002:00005ae0       ??_7SoftBodyAuxData@Gu@physx@@6B@ 00000001801d8ae0     GuTetrahedronMesh.obj
 0002:00005b28       ??_7TetrahedronMesh@Gu@physx@@6B@ 00000001801d8b28     GuTetrahedronMesh.obj
 0002:00005ba0       ??_7BVTetrahedronMesh@Gu@physx@@6B@ 00000001801d8ba0     GuTetrahedronMesh.obj
 0002:00005c18       ??_7SoftBodyMesh@Gu@physx@@6B@ 00000001801d8c18     GuTetrahedronMesh.obj
 0002:00005c98       ??_C@_0DG@JJNMDPMD@PxTetrahedronMesh?3?3release?3?5dou@ 00000001801d8c98     GuTetrahedronMesh.obj
 0002:00005cd0       ??_C@_0DD@GGFGEPII@PxSoftBodyMesh?3?3release?3?5double@ 00000001801d8cd0     GuTetrahedronMesh.obj
 0002:00005d10       ??_C@_0FM@KAHGKHHD@C?3?2Users?2umtim?2Desktop?2Client45@ 00000001801d8d10     GuTetrahedronMesh.obj
 0002:00005db0       __xmm@00000000358637bd358637bd358637bd 00000001801d8db0     GuPCMContactBoxBox.obj
 0002:00005dc0       __xmm@3f4ccccd3f4ccccd3f4ccccd3f4ccccd 00000001801d8dc0     GuPCMContactBoxBox.obj
 0002:00005dd0       __xmm@3f8003473f8003473f8003473f800347 00000001801d8dd0     GuPCMContactBoxBox.obj
 0002:00005de0       __xmm@ffffffff00000000ffffffffffffffff 00000001801d8de0     GuPCMContactBoxBox.obj
 0002:00005e10       ??_7?$LocalConvex@VConvexHullNoScaleV@Gu@physx@@@Gu@physx@@6B@ 00000001801d8e10     GuPCMContactBoxConvex.obj
 0002:00005e40       __xmm@3f3504f33f3504f33f3504f33f3504f3 00000001801d8e40     GuPCMContactBoxConvex.obj
 0002:00005e90       __xmm@ffffffffffffffffffffffff00000000 00000001801d8e90     GuPCMContactCapsuleCapsule.obj
 0002:00005ec0       __xmm@3fa000003fa000003fa000003fa00000 00000001801d8ec0     GuPCMContactCapsuleConvex.obj
 0002:00005ef0       ??_7PCMCapsuleVsHeightfieldContactGenerationCallback@@6B@ 00000001801d8ef0     GuPCMContactCapsuleHeightField.obj
 0002:00005f00       __real@3f7f3b64            00000001801d8f00     GuPCMContactCapsuleHeightField.obj
 0002:00005f50       __xmm@3f7ff9723f7ff9723f7ff9723f7ff972 00000001801d8f50     GuPCMContactCapsuleMesh.obj
 0002:00005f60       __xmm@3f7fffef3f7fffef3f7fffef3f7fffef 00000001801d8f60     GuPCMContactCapsuleMesh.obj
 0002:00005f70       __xmm@60ad78ec60ad78ec60ad78ec60ad78ec 00000001801d8f70     GuPCMContactCapsuleMesh.obj
 0002:00005fa0       ??_7?$SupportLocalImpl@VTriangleV@Gu@physx@@@Gu@physx@@6B@ 00000001801d8fa0     GuPCMContactConvexCommon.obj
 0002:00005fc0       __xmm@3cf5c2803cf5c2803cf5c2803cf5c280 00000001801d8fc0     GuPCMContactConvexCommon.obj
 0002:00005fd0       __xmm@3f7851ec3f7851ec3f7851ec3f7851ec 00000001801d8fd0     GuPCMContactConvexCommon.obj
 0002:00006000       ??_7?$RelativeConvex@VConvexHullNoScaleV@Gu@physx@@@Gu@physx@@6B@ 00000001801d9000     GuPCMContactConvexConvex.obj
 0002:00006050       ??_7PCMConvexVsHeightfieldContactGenerationCallback@physx@@6B@ 00000001801d9050     GuPCMContactConvexHeightField.obj
 0002:00006060       __xmm@3f19999a3f19999a3f19999a3f19999a 00000001801d9060     GuPCMContactConvexHeightField.obj
 0002:000060a0       ??_7PCMConvexVsMeshContactGenerationCallback@physx@@6B@ 00000001801d90a0     GuPCMContactConvexMesh.obj
 0002:000060d0       __xmm@3f34fdf43f34fdf43f34fdf43f34fdf4 00000001801d90d0     GuPCMContactGenBoxConvex.obj
 0002:00006100       __xmm@3f80a3d73f80a3d73f80a3d73f80a3d7 00000001801d9100     GuPCMContactGenSphereCapsule.obj
 0002:00006110       __xmm@bba3d70abba3d70abba3d70abba3d70a 00000001801d9110     GuPCMContactGenSphereCapsule.obj
 0002:00006140       __xmm@3f7ffd613f7ffd613f7ffd613f7ffd61 00000001801d9140     GuPCMContactPlaneBox.obj
 0002:00006170       __real@3b23d70b            00000001801d9170     GuPCMContactPlaneCapsule.obj
 0002:00006180       __xmm@3ca3d70a3ca3d70a3ca3d70a3ca3d70a 00000001801d9180     GuPCMContactPlaneCapsule.obj
 0002:000061b0       __xmm@3a03126f3a03126f3a03126f3a03126f 00000001801d91b0     GuPCMContactPlaneConvex.obj
 0002:00006240       ??_7PCMSphereVsHeightfieldContactGenerationCallback@physx@@6B@ 00000001801d9240     GuPCMContactSphereHeightField.obj
 0002:000062d0       __xmm@3727c5ac3727c5ac3727c5ac3727c5ac 00000001801d92d0     GuPCMContactSphereSphere.obj
 0002:00006300       __xmm@3f7f06f73f7f06f73f7f06f73f7f06f7 00000001801d9300     GuPCMContactCustomGeometry.obj
 0002:00006310       ?gPCMBoxPolygonData@Gu@physx@@3QBEB 00000001801d9310     GuPCMShapeConvex.obj
 0002:00006390       ?invalidateThresholds@Gu@physx@@3QBMB 00000001801d9390     GuPersistentContactManifold.obj
 0002:000063a8       ?invalidateQuatThresholds@Gu@physx@@3QBMB 00000001801d93a8     GuPersistentContactManifold.obj
 0002:000063c0       ?invalidateThresholds2@Gu@physx@@3QBMB 00000001801d93c0     GuPersistentContactManifold.obj
 0002:000063d0       ?invalidateQuatThresholds2@Gu@physx@@3QBMB 00000001801d93d0     GuPersistentContactManifold.obj
 0002:000063e0       __xmm@00000000340000003400000034000000 00000001801d93e0     GuPersistentContactManifold.obj
 0002:000063f0       __xmm@000000003f8000003f80000000000000 00000001801d93f0     GuPersistentContactManifold.obj
 0002:00006400       __xmm@00000000bf8000003f80000000000000 00000001801d9400     GuPersistentContactManifold.obj
 0002:00006410       __xmm@ffffffffffffffff00000000ffffffff 00000001801d9410     GuPersistentContactManifold.obj
 0002:00006440       __xmm@c1200000c1200000c1200000c1200000 00000001801d9440     GuPCMContactGenUtil.obj
 0002:00006490       __real@b727c5ac            00000001801d9490     GuSweepBoxSphere.obj
 0002:00006500       ??_C@_0FN@IOGHDFBN@C?3?2Users?2umtim?2Desktop?2Client45@ 00000001801d9500     GuSweepCapsuleBox.obj
 0002:000065a0       __real@3f7fff58            00000001801d95a0     GuSweepCapsuleTriangle.obj
 0002:00006610       ??_C@_0CH@DHJGKCPD@Gu?3?3computeBounds?3?5Unknown?5shap@ 00000001801d9610     GuBounds.obj
 0002:00006640       ??_C@_0EO@DGMKJKPC@C?3?2Users?2umtim?2Desktop?2Client45@ 00000001801d9640     GuBounds.obj
 0002:00006690       __real@34800000            00000001801d9690     GuBounds.obj
 0002:00006694       __real@3f7fffef            00000001801d9694     GuBounds.obj
 0002:000066a0       __xmm@3f8147ae3f8147ae3f8147ae3f8147ae 00000001801d96a0     GuBounds.obj
 0002:000066d0       ??_C@_0FA@OCCFIMOJ@C?3?2Users?2umtim?2Desktop?2Client45@ 00000001801d96d0     GuAABBTree.obj
 0002:00006720       __xmm@5a60b17f5a60b17f5a60b17f5a60b17f 00000001801d9720     GuAABBTree.obj
 0002:00006730       __xmm@da60b17fda60b17fda60b17fda60b17f 00000001801d9730     GuAABBTree.obj
 0002:000067a0       ??_C@_0FL@OHBCLHHO@C?3?2Users?2umtim?2Desktop?2Client45@ 00000001801d97a0     GuIncrementalAABBTree.obj
 0002:00006800       ??_C@_0EI@OKMLJMPG@C?3?2Users?2umtim?2Desktop?2Client45@ 00000001801d9800     GuIncrementalAABBTree.obj
 0002:00006848       __real@40400000            00000001801d9848     GuIncrementalAABBTree.obj
 0002:00006850       ??_C@_0EL@FCLHDFMI@C?3?2Users?2umtim?2Desktop?2Client45@ 00000001801d9850     GuSAH.obj
 0002:000068c0       ??_7PxBVH@physx@@6B@       00000001801d98c0     GuBVH.obj
 0002:00006938       ??_C@_05OKJNPKBM@PxBVH@    00000001801d9938     GuBVH.obj
 0002:00006940       ??_7RefCountable@Cm@physx@@6B@ 00000001801d9940     GuBVH.obj
 0002:00006950       ??_7BVH@Gu@physx@@6BPxBVH@2@@ 00000001801d9950     GuBVH.obj
 0002:000069c8       ??_7BVH@Gu@physx@@6BRefCountable@Cm@2@@ 00000001801d99c8     GuBVH.obj
 0002:000069e0       ??_C@_0EL@EANPKGDN@C?3?2Users?2umtim?2Desktop?2Client45@ 00000001801d99e0     GuBVH.obj
 0002:00006a30       ??_C@_0CK@HAIOEINI@PxBVH?3?3release?3?5double?5deletion@ 00000001801d9a30     GuBVH.obj
 0002:00006a80       ??_C@_0GB@KNLKKBL@C?3?2Users?2umtim?2Desktop?2Client45@ 00000001801d9a80     GuIncrementalAABBPrunerCore.obj
 0002:00006ae4       __real@3f80a3d7            00000001801d9ae4     GuIncrementalAABBPrunerCore.obj
 0002:00006b10       ??_7BasePruner@Gu@physx@@6B@ 00000001801d9b10     GuIncrementalAABBPruner.obj
 0002:00006b28       ??_7IncrementalAABBPruner@Gu@physx@@6B@ 00000001801d9b28     GuIncrementalAABBPruner.obj
 0002:00006bb0       ??_C@_0FN@JFANNACA@C?3?2Users?2umtim?2Desktop?2Client45@ 00000001801d9bb0     GuIncrementalAABBPruner.obj
 0002:00006c30       ??_C@_0FD@MFIPPGFA@C?3?2Users?2umtim?2Desktop?2Client45@ 00000001801d9c30     GuPruningPool.obj
 0002:00006cd0       ??_7BucketPruner@Gu@physx@@6B@ 00000001801d9cd0     GuBucketPruner.obj
 0002:00006d60       ??_C@_0FE@FHANGDFI@C?3?2Users?2umtim?2Desktop?2Client45@ 00000001801d9d60     GuBucketPruner.obj
 0002:00006db4       __real@bf13cd3a            00000001801d9db4     GuBucketPruner.obj
 0002:00006dc0       __xmm@000000007e7fffff7e7fffff7e7fffff 00000001801d9dc0     GuBucketPruner.obj
 0002:00006dd0       __xmm@00000000fe7ffffffe7ffffffe7fffff 00000001801d9dd0     GuBucketPruner.obj
 0002:00006de0       __xmm@3f13cd3a3f13cd3a3f13cd3a3f13cd3a 00000001801d9de0     GuBucketPruner.obj
 0002:00006df0       __xmm@bf13cd3abf13cd3abf13cd3a3f13cd3a 00000001801d9df0     GuBucketPruner.obj
 0002:00006e00       __xmm@bf8000003f8000003f800000bf800000 00000001801d9e00     GuBucketPruner.obj
 0002:00006e10       __xmm@bf8000003f800000bf8000003f800000 00000001801d9e10     GuBucketPruner.obj
 0002:00006e20       __xmm@bf800000bf8000003f8000003f800000 00000001801d9e20     GuBucketPruner.obj
 0002:00006e30       __xmm@bf800000bf800000bf8000003f800000 00000001801d9e30     GuBucketPruner.obj
 0002:00006e40       ?mIndices@MaverickNode@Gu@physx@@2QBIB 00000001801d9e40     GuMaverickNode.obj
 0002:00006ea0       ??_C@_0FM@PEDMGEJO@C?3?2Users?2umtim?2Desktop?2Client45@ 00000001801d9ea0     GuExtendedBucketPruner.obj
 0002:00006f20       ??_7CompanionPruner@Gu@physx@@6B@ 00000001801d9f20     GuSecondaryPruner.obj
 0002:00006fa0       ??_7CompanionPrunerBucket@@6B@ 00000001801d9fa0     GuSecondaryPruner.obj
 0002:00007020       ??_7CompanionPrunerIncremental@@6B@ 00000001801da020     GuSecondaryPruner.obj
 0002:000070a0       ??_7CompanionPrunerAABBTree@@6B@ 00000001801da0a0     GuSecondaryPruner.obj
 0002:00007120       ??_C@_0FH@JDLLBCOO@C?3?2Users?2umtim?2Desktop?2Client45@ 00000001801da120     GuSecondaryPruner.obj
 0002:000071a0       ??_7AABBPruner@Gu@physx@@6B@ 00000001801da1a0     GuAABBPruner.obj
 0002:00007240       ??_C@_0LA@IHBEIKND@SceneQuery?5static?5AABB?5Tree?5reb@ 00000001801da240     GuAABBPruner.obj
 0002:000072f0       ??_C@_0FC@BKAGCAOO@C?3?2Users?2umtim?2Desktop?2Client45@ 00000001801da2f0     GuAABBPruner.obj
 0002:00007350       ??_C@_0FF@KFEIGDNK@C?3?2Users?2umtim?2Desktop?2Client45@ 00000001801da350     GuActorShapeMap.obj
 0002:000073d0       ??_C@_0BF@DNABLJAF@Invalid?5pruner?5index@ 00000001801da3d0     GuQuerySystem.obj
 0002:000073f0       ??_C@_0FD@JLOJAONK@C?3?2Users?2umtim?2Desktop?2Client45@ 00000001801da3f0     GuQuerySystem.obj
 0002:000074a0       ??_C@_0EP@DGMNECEB@C?3?2Users?2umtim?2Desktop?2Client45@ 00000001801da4a0     GuFactory.obj
 0002:000074f0       ?reductionFactors@SubSortQuick@physx@@2QBMB 00000001801da4f0     GuRTreeCooking.obj
 0002:00007500       ?stopAtTrisPerLeaf1@SubSortQuick@physx@@2QBIB 00000001801da500     GuRTreeCooking.obj
 0002:000075d0       ??_C@_0FM@BCOICOGL@C?3?2Users?2umtim?2Desktop?2Client45@ 00000001801da5d0     GuRTreeCooking.obj
 0002:0000762c       __real@41100000            00000001801da62c     GuRTreeCooking.obj
 0002:00007630       __real@41700000            00000001801da630     GuRTreeCooking.obj
 0002:00007634       __real@42200000            00000001801da634     GuRTreeCooking.obj
 0002:00007640       __xmm@00000004000000030000000200000001 00000001801da640     GuRTreeCooking.obj
 0002:00007670       ??_C@_0FK@CNNBFODO@C?3?2Users?2umtim?2Desktop?2Client45@ 00000001801da670     GuCookingBVH.obj
 0002:000076d0       ??_C@_0DL@JHPKHGFA@Cooking?3?3cookBVH?3?5user?9provided@ 00000001801da6d0     GuCookingBVH.obj
 0002:00007710       ??_C@_0DN@PLNPGFEB@Cooking?3?3createBVH?3?5user?9provid@ 00000001801da710     GuCookingBVH.obj
 0002:00007750       ??_C@_0EL@JCJBAPHL@Cooking?3?3cookHeightField?3?5user?9@ 00000001801da750     GuCookingHF.obj
 0002:000077a0       ??_C@_0FJ@EFHOIADC@C?3?2Users?2umtim?2Desktop?2Client45@ 00000001801da7a0     GuCookingHF.obj
 0002:00007800       ??_C@_0EN@FCEPCAFC@Cooking?3?3createHeightField?3?5use@ 00000001801da800     GuCookingHF.obj
 0002:00007850       ??_C@_0EK@EKAIJEBL@Cooking?3?3cookConvexMesh?3?5user?9p@ 00000001801da850     GuCookingConvexMesh.obj
 0002:000078a0       ??_C@_0FA@GFFGAPML@Cooking?3?3cookConvexMesh?3?5provid@ 00000001801da8a0     GuCookingConvexMesh.obj
 0002:000078f0       ??_C@_0EP@PKDCPNNO@Cooking?3?3cookConvexMesh?3?5provid@ 00000001801da8f0     GuCookingConvexMesh.obj
 0002:00007940       ??_C@_0EO@LKFMMDE@Cooking?3?3cookConvexMesh?3?5user?9p@ 00000001801da940     GuCookingConvexMesh.obj
 0002:00007990       ??_C@_0EL@KJEPJALG@Cooking?3?3cookConvexMesh?3?5user?9p@ 00000001801da990     GuCookingConvexMesh.obj
 0002:000079e0       ??_C@_0FM@LHMEBKMM@Cooking?3?3cookConvexMesh?3?5GPU?9co@ 00000001801da9e0     GuCookingConvexMesh.obj
 0002:00007a40       ??_C@_0FJ@FHCFFABE@Cooking?3?3cookConvexMesh?3?5GPU?9co@ 00000001801daa40     GuCookingConvexMesh.obj
 0002:00007aa0       ??_C@_0GB@BEBONCAG@C?3?2Users?2umtim?2Desktop?2Client45@ 00000001801daaa0     GuCookingConvexMesh.obj
 0002:00007b30       ??_7TriangleMeshBuilder@physx@@6B@ 00000001801dab30     GuCookingTriangleMesh.obj
 0002:00007b58       ??_7RTreeTriangleMeshBuilder@physx@@6B@ 00000001801dab58     GuCookingTriangleMesh.obj
 0002:00007b80       ??_7BV4TriangleMeshBuilder@physx@@6B@ 00000001801dab80     GuCookingTriangleMesh.obj
 0002:00007bb0       ??_C@_0GD@ELHCHDEG@C?3?2Users?2umtim?2Desktop?2Client45@ 00000001801dabb0     GuCookingTriangleMesh.obj
 0002:00007c18       ??_C@_0DJ@IGODLHLP@TriangleMesh?3?5Enable?5mesh?5weldi@ 00000001801dac18     GuCookingTriangleMesh.obj
 0002:00007c60       ??_C@_0FJ@HHJLKGDF@TriangleMesh?3?5triangles?5are?5too@ 00000001801dac60     GuCookingTriangleMesh.obj
 0002:00007cc0       ??_C@_0CN@KGPHHHLK@TriangleMesh?3?5mesh?5is?5too?5big?5f@ 00000001801dacc0     GuCookingTriangleMesh.obj
 0002:00007cf0       ??_C@_0DD@CMJGDCNN@TriangleMesh?3?3loadFromDesc?3?5des@ 00000001801dacf0     GuCookingTriangleMesh.obj
 0002:00007d30       ??_C@_0ED@ILJJNHIP@TriangleMesh?3?3loadFromDesc?3?5mPa@ 00000001801dad30     GuCookingTriangleMesh.obj
 0002:00007d78       ??_C@_0BJ@BKHDBBHO@cleaning?5the?5mesh?5failed@ 00000001801dad78     GuCookingTriangleMesh.obj
 0002:00007d98       ??_C@_0BK@JIDHMMCE@BV4?5tree?5failed?5to?5build?4@ 00000001801dad98     GuCookingTriangleMesh.obj
 0002:00007db8       ??_C@_0BL@DHNECNBE@BV32?5tree?5failed?5to?5build?4@ 00000001801dadb8     GuCookingTriangleMesh.obj
 0002:00007dd8       ??_7RTreeCookerRemap@@6B@  00000001801dadd8     GuCookingTriangleMesh.obj
 0002:00007df0       ??_C@_0FC@PJIHAFK@Cooking?3?3validateTriangleMesh?3?5@ 00000001801dadf0     GuCookingTriangleMesh.obj
 0002:00007e44       __real@48742400            00000001801dae44     GuCookingTriangleMesh.obj
 0002:00007e70       ??_7PxCollisionTetrahedronMeshData@physx@@6B@ 00000001801dae70     GuCookingTetrahedronMesh.obj
 0002:00007ea0       ??_7PxSimulationTetrahedronMeshData@physx@@6B@ 00000001801daea0     GuCookingTetrahedronMesh.obj
 0002:00007ec0       ??_7CollisionTetrahedronMeshData@Gu@physx@@6B@ 00000001801daec0     GuCookingTetrahedronMesh.obj
 0002:00007ef0       ??_7SimulationTetrahedronMeshData@Gu@physx@@6B@ 00000001801daef0     GuCookingTetrahedronMesh.obj
 0002:00007f10       ??_C@_0GG@BAOFGOBC@C?3?2Users?2umtim?2Desktop?2Client45@ 00000001801daf10     GuCookingTetrahedronMesh.obj
 0002:00007f78       ??_7?$LocalConvex@VTetrahedronV@Gu@physx@@@Gu@physx@@6B@ 00000001801daf78     GuCookingTetrahedronMesh.obj
 0002:00007fa8       ??_C@_0CD@OJGNHLOE@BV4_AABBTree?5tree?5failed?5to?5bui@ 00000001801dafa8     GuCookingTetrahedronMesh.obj
 0002:00007fd0       ??_C@_0DG@NCNIEEHB@TetrahedronMesh?3?3loadFromDesc?3?5@ 00000001801dafd0     GuCookingTetrahedronMesh.obj
 0002:00008010       ??_C@_0EG@CJIFGLMC@TetrahedronMesh?3?3loadFromDesc?3?5@ 00000001801db010     GuCookingTetrahedronMesh.obj
 0002:00008058       __real@be2aaaab            00000001801db058     GuCookingTetrahedronMesh.obj
 0002:00008060       __xmm@00000003000000030000000300000003 00000001801db060     GuCookingTetrahedronMesh.obj
 0002:00008090       __real@3bc79ca10c924223    00000001801db090     GuCookingVolumeIntegration.obj
 0002:00008098       __real@3f91111111111111    00000001801db098     GuCookingVolumeIntegration.obj
 0002:000080a0       __real@3fa5555555555555    00000001801db0a0     GuCookingVolumeIntegration.obj
 0002:000080a8       __real@3fa999999999999a    00000001801db0a8     GuCookingVolumeIntegration.obj
 0002:000080b0       __real@3fb5555555555555    00000001801db0b0     GuCookingVolumeIntegration.obj
 0002:000080b8       __real@3fc5555555555555    00000001801db0b8     GuCookingVolumeIntegration.obj
 0002:000080c0       __real@3fe0000000000000    00000001801db0c0     GuCookingVolumeIntegration.obj
 0002:000080c8       __real@3ff0000000000000    00000001801db0c8     GuCookingVolumeIntegration.obj
 0002:000080d0       __real@4008000000000000    00000001801db0d0     GuCookingVolumeIntegration.obj
 0002:000080d8       __real@4010000000000000    00000001801db0d8     GuCookingVolumeIntegration.obj
 0002:000080e0       __real@bf91111111111111    00000001801db0e0     GuCookingVolumeIntegration.obj
 0002:000080e8       __real@bfa999999999999a    00000001801db0e8     GuCookingVolumeIntegration.obj
 0002:000080f0       __real@bfb5555555555555    00000001801db0f0     GuCookingVolumeIntegration.obj
 0002:000080f8       __real@bfc5555555555555    00000001801db0f8     GuCookingVolumeIntegration.obj
 0002:00008100       __xmm@3c0888893c0888893c0888893c088889 00000001801db100     GuCookingVolumeIntegration.obj
 0002:00008110       __xmm@3c8888893c8888893c8888893c888889 00000001801db110     GuCookingVolumeIntegration.obj
 0002:00008120       __xmm@3d2aaaab3d2aaaab3d2aaaab3d2aaaab 00000001801db120     GuCookingVolumeIntegration.obj
 0002:00008130       __xmm@3e2aaaab3e2aaaab3e2aaaab3e2aaaab 00000001801db130     GuCookingVolumeIntegration.obj
 0002:00008140       __xmm@3f811111111111113f81111111111111 00000001801db140     GuCookingVolumeIntegration.obj
 0002:00008150       __xmm@3f811111111111113f91111111111111 00000001801db150     GuCookingVolumeIntegration.obj
 0002:00008160       __xmm@3f911111111111113f91111111111111 00000001801db160     GuCookingVolumeIntegration.obj
 0002:00008170       __xmm@3fa55555555555553fa5555555555555 00000001801db170     GuCookingVolumeIntegration.obj
 0002:00008180       __xmm@3fa55555555555553fc5555555555555 00000001801db180     GuCookingVolumeIntegration.obj
 0002:00008190       __xmm@3fd55555555555553fd5555555555555 00000001801db190     GuCookingVolumeIntegration.obj
 0002:000081a0       __xmm@3fe00000000000003fe0000000000000 00000001801db1a0     GuCookingVolumeIntegration.obj
 0002:000081b0       __xmm@7fffffffffffffff7fffffffffffffff 00000001801db1b0     GuCookingVolumeIntegration.obj
 0002:000081c0       __xmm@80000000000000008000000000000000 00000001801db1c0     GuCookingVolumeIntegration.obj
 0002:000081d0       ??_7ConvexHullLib@physx@@6B@ 00000001801db1d0     GuCookingQuickHullConvexHullLib.obj
 0002:000081f0       ??_7QuickHullConvexHullLib@physx@@6B@ 00000001801db1f0     GuCookingQuickHullConvexHullLib.obj
 0002:00008210       ??_C@_0GN@EPJJBGDB@C?3?2Users?2umtim?2Desktop?2Client45@ 00000001801db210     GuCookingQuickHullConvexHullLib.obj
 0002:00008280       ??_C@_0GA@EPPAEJPM@QuickHullConvexHullLib?3?3findSim@ 00000001801db280     GuCookingQuickHullConvexHullLib.obj
 0002:000082e0       ??_C@_0FB@NEBIJMML@QuickHullConvexHullLib?3?3findSim@ 00000001801db2e0     GuCookingQuickHullConvexHullLib.obj
 0002:00008340       ??_C@_0FB@CLLCBEMM@QuickHullConvexHullLib?3?3findSim@ 00000001801db340     GuCookingQuickHullConvexHullLib.obj
 0002:00008394       __real@34c00000            00000001801db394     GuCookingQuickHullConvexHullLib.obj
 0002:00008398       ??_C@_0DP@PJBJBEGF@Meshmerizer?3?3extractHullPolygon@ 00000001801db398     GuCookingConvexPolygonsBuilder.obj
 0002:000083e0       ??_C@_0GM@MJPJEIGG@C?3?2Users?2umtim?2Desktop?2Client45@ 00000001801db3e0     GuCookingConvexPolygonsBuilder.obj
 0002:00008450       ??_C@_0DL@IAFKOCCK@ConvexHullBuilder?3?5convex?5hull?5@ 00000001801db450     GuCookingConvexPolygonsBuilder.obj
 0002:00008490       ??_C@_0GF@OJLJHAMH@ConvexHullBuilder?3?3CreateTriang@ 00000001801db490     GuCookingConvexPolygonsBuilder.obj
 0002:00008520       ??_C@_0DF@LLFJIJGM@Gu?3?3ConvexMesh?3?3loadFromDesc?3?5d@ 00000001801db520     GuCookingConvexMeshBuilder.obj
 0002:00008560       ??_C@_0HK@JOGKIEAA@Gu?3?3ConvexMesh?3?5Mesh?5has?5a?5nega@ 00000001801db560     GuCookingConvexMeshBuilder.obj
 0002:000085e0       ??_C@_0DH@NJPPHFFD@Gu?3?3ConvexMesh?3?5Error?5computing@ 00000001801db5e0     GuCookingConvexMeshBuilder.obj
 0002:00008618       ??_C@_0DJ@LJDLGLDJ@Gu?3?3ConvexMesh?3?3loadConvexHull?3@ 00000001801db618     GuCookingConvexMeshBuilder.obj
 0002:00008660       ??_C@_0HJ@KJANPPOE@ConvexMeshBuilder?3?3computeHullP@ 00000001801db660     GuCookingConvexMeshBuilder.obj
 0002:000086e0       ??_C@_0GI@CBLAOMJE@C?3?2Users?2umtim?2Desktop?2Client45@ 00000001801db6e0     GuCookingConvexMeshBuilder.obj
 0002:00008748       ??_C@_0O@JMAGMMGG@PxHullPolygon@ 00000001801db748     GuCookingConvexMeshBuilder.obj
 0002:00008758       __real@3f13cd3a            00000001801db758     GuCookingConvexMeshBuilder.obj
 0002:00008780       ??_C@_0GG@GBGCDOAJ@C?3?2Users?2umtim?2Desktop?2Client45@ 00000001801db780     GuCookingConvexHullUtils.obj
 0002:000087e8       __real@3e20d97c            00000001801db7e8     GuCookingConvexHullUtils.obj
 0002:000087f0       ??_C@_0GE@FNEOLNBD@C?3?2Users?2umtim?2Desktop?2Client45@ 00000001801db7f0     GuCookingConvexHullLib.obj
 0002:00008860       ??_C@_0JE@PABBNGEL@ConvexHullLib?3?3cleanupVertices?3@ 00000001801db860     GuCookingConvexHullLib.obj
 0002:00008920       ??_C@_0GI@OPBEEMMB@C?3?2Users?2umtim?2Desktop?2Client45@ 00000001801db920     GuCookingConvexHullBuilder.obj
 0002:00008990       ??_C@_0EB@DCEIFDGC@ConvexHullBuilder?3?3init?3?5convex@ 00000001801db990     GuCookingConvexHullBuilder.obj
 0002:000089e0       ??_C@_0FM@KICBLCBH@Gu?3?3ConvexMesh?3?3checkHullPolygo@ 00000001801db9e0     GuCookingConvexHullBuilder.obj
 0002:00008a40       ??_C@_0GO@HBFIOGLL@Gu?3?3ConvexMesh?3?3checkHullPolygo@ 00000001801dba40     GuCookingConvexHullBuilder.obj
 0002:00008ab0       ??_C@_0HF@OLJFBIEL@ConvexHullBuilder?3?5convex?5hull?5@ 00000001801dbab0     GuCookingConvexHullBuilder.obj
 0002:00008b30       ??_C@_0OG@JNHFOIL@ConvexHullBuilder?3?5convex?5hull?5@ 00000001801dbb30     GuCookingConvexHullBuilder.obj
 0002:00008c20       ??_C@_0EJ@NIOIBAKH@Cooking?3?3cookConvexMesh?3?5non?9ma@ 00000001801dbc20     GuCookingConvexHullBuilder.obj
 0002:00008c90       ??_C@_0GL@OFJBHBGA@C?3?2Users?2umtim?2Desktop?2Client45@ 00000001801dbc90     GuCookingBigConvexDataBuilder.obj
 0002:00008d00       __sz_PhysXFoundation_64_dll 00000001801dbd00     PhysXFoundation_64:PhysXFoundation_64.dll
 0002:00008d18       ??_C@_1BK@DBDEIDLH@?$AAK?$AAE?$AAR?$AAN?$AAE?$AAL?$AA3?$AA2?$AA?4?$AAD?$AAL?$AAL@ 00000001801dbd18     Delayimp:delayhlp.obj
 0002:00008d38       ??_C@_0BI@OMNLIJDB@AcquireSRWLockExclusive@ 00000001801dbd38     Delayimp:delayhlp.obj
 0002:00008d50       ??_C@_0BI@HMIEPCNJ@ReleaseSRWLockExclusive@ 00000001801dbd50     Delayimp:delayhlp.obj
 0002:00008d68       __pfnDliFailureHook2       00000001801dbd68     Delayimp:delayhk1.obj
 0002:00008d78       ??_7type_info@@6B@         00000001801dbd78     LIBCMT:std_type_info_static.obj
 0002:00008de0       _pDefaultRawDllMain        00000001801dbde0     LIBCMT:dll_dllmain.obj
 0002:00008de0       _pRawDllMain               00000001801dbde0     LIBCMT:dll_dllmain.obj
 0002:00008df0       _load_config_used          00000001801dbdf0     LIBCMT:loadcfg.obj
 0002:00008f30       _pDestructExceptionObject  00000001801dbf30     libvcruntime:ehhelpers.obj
 0002:00009650       ??_C@_08EHJDFFNH@__based?$CI@ 00000001801dc650     libvcruntime:undname.obj
 0002:00009660       ??_C@_07KOLFKCDI@__cdecl@  00000001801dc660     libvcruntime:undname.obj
 0002:00009668       ??_C@_08GHMPAG@__pascal@   00000001801dc668     libvcruntime:undname.obj
 0002:00009678       ??_C@_09IFJBGAPI@__stdcall@ 00000001801dc678     libvcruntime:undname.obj
 0002:00009688       ??_C@_0L@NPHFGOKO@__thiscall@ 00000001801dc688     libvcruntime:undname.obj
 0002:00009698       ??_C@_0L@JMKHOMEK@__fastcall@ 00000001801dc698     libvcruntime:undname.obj
 0002:000096a8       ??_C@_0N@BCKKPABJ@__vectorcall@ 00000001801dc6a8     libvcruntime:undname.obj
 0002:000096b8       ??_C@_09HIJEGCPM@__clrcall@ 00000001801dc6b8     libvcruntime:undname.obj
 0002:000096c4       ??_C@_06GHPCKEAG@__eabi@   00000001801dc6c4     libvcruntime:undname.obj
 0002:000096d0       ??_C@_09IOPIDJLG@__swift_1@ 00000001801dc6d0     libvcruntime:undname.obj
 0002:000096e0       ??_C@_09KFNFGKHF@__swift_2@ 00000001801dc6e0     libvcruntime:undname.obj
 0002:000096f0       ??_C@_09LMMOFLDE@__swift_3@ 00000001801dc6f0     libvcruntime:undname.obj
 0002:00009700       ??_C@_07JOMMBBKO@__ptr64@  00000001801dc700     libvcruntime:undname.obj
 0002:00009708       ??_C@_0L@PILCLIHE@__restrict@ 00000001801dc708     libvcruntime:undname.obj
 0002:00009718       ??_C@_0M@GFIIJFMG@__unaligned@ 00000001801dc718     libvcruntime:undname.obj
 0002:00009728       ??_C@_09DHDLOLLB@restrict?$CI@ 00000001801dc728     libvcruntime:undname.obj
 0002:00009734       ??_C@_04NIHEBCM@?5new@     00000001801dc734     libvcruntime:undname.obj
 0002:00009740       ??_C@_07FPCDHGMM@?5delete@ 00000001801dc740     libvcruntime:undname.obj
 0002:00009748       ??_C@_01NEMOKFLO@?$DN@     00000001801dc748     libvcruntime:undname.obj
 0002:0000974c       ??_C@_02GPIOPFAK@?$DO?$DO@ 00000001801dc74c     libvcruntime:undname.obj
 0002:00009750       ??_C@_02FODMEDOG@?$DM?$DM@ 00000001801dc750     libvcruntime:undname.obj
 0002:00009754       ??_C@_01DCLJPIOD@?$CB@     00000001801dc754     libvcruntime:undname.obj
 0002:00009758       ??_C@_02EGOFBIJA@?$DN?$DN@ 00000001801dc758     libvcruntime:undname.obj
 0002:0000975c       ??_C@_02FDNJECIE@?$CB?$DN@ 00000001801dc75c     libvcruntime:undname.obj
 0002:00009760       ??_C@_02GPECMEKF@?$FL?$FN@ 00000001801dc760     libvcruntime:undname.obj
 0002:00009768       ??_C@_08LHJFAFGD@operator@ 00000001801dc768     libvcruntime:undname.obj
 0002:00009774       ??_C@_02HBOOOICD@?9?$DO@   00000001801dc774     libvcruntime:undname.obj
 0002:00009778       ??_C@_01NBENCBCI@?$CK@     00000001801dc778     libvcruntime:undname.obj
 0002:0000977c       ??_C@_02ECNGHCIF@?$CL?$CL@ 00000001801dc77c     libvcruntime:undname.obj
 0002:00009780       ??_C@_02BAABKJLB@?9?9@     00000001801dc780     libvcruntime:undname.obj
 0002:00009784       ??_C@_01JOAMLHOP@?9@       00000001801dc784     libvcruntime:undname.obj
 0002:00009788       ??_C@_01MIFGBAGJ@?$CL@     00000001801dc788     libvcruntime:undname.obj
 0002:0000978c       ??_C@_01HNPIGOCE@?$CG@     00000001801dc78c     libvcruntime:undname.obj
 0002:00009790       ??_C@_03MNHNFDLC@?9?$DO?$CK@ 00000001801dc790     libvcruntime:undname.obj
 0002:00009794       ??_C@_01KMDKNFGN@?1@       00000001801dc794     libvcruntime:undname.obj
 0002:00009798       ??_C@_01FGNFDNOH@?$CF@     00000001801dc798     libvcruntime:undname.obj
 0002:0000979c       ??_C@_01MNNFJEPP@?$DM@     00000001801dc79c     libvcruntime:undname.obj
 0002:000097a0       ??_C@_02EHCHHCKH@?$DM?$DN@ 00000001801dc7a0     libvcruntime:undname.obj
 0002:000097a4       ??_C@_01PPODPGHN@?$DO@     00000001801dc7a4     libvcruntime:undname.obj
 0002:000097a8       ??_C@_02EEKDKGMJ@?$DO?$DN@ 00000001801dc7a8     libvcruntime:undname.obj
 0002:000097ac       ??_C@_01IHBHIGKO@?0@       00000001801dc7ac     libvcruntime:undname.obj
 0002:000097b0       ??_C@_02HCKGKOFO@?$CI?$CJ@ 00000001801dc7b0     libvcruntime:undname.obj
 0002:000097b4       ??_C@_01PJKLJHI@?$HO@      00000001801dc7b4     libvcruntime:undname.obj
 0002:000097b8       ??_C@_01JKBOJNNK@?$FO@     00000001801dc7b8     libvcruntime:undname.obj
 0002:000097bc       ??_C@_01DNKMNLPK@?$HM@     00000001801dc7bc     libvcruntime:undname.obj
 0002:000097c0       ??_C@_02PPKAJPJL@?$CG?$CG@ 00000001801dc7c0     libvcruntime:undname.obj
 0002:000097c4       ??_C@_02NONPIBCD@?$HM?$HM@ 00000001801dc7c4     libvcruntime:undname.obj
 0002:000097c8       ??_C@_02FPIMKNGF@?$CK?$DN@ 00000001801dc7c8     libvcruntime:undname.obj
 0002:000097cc       ??_C@_02FOEOMHFC@?$CL?$DN@ 00000001801dc7cc     libvcruntime:undname.obj
 0002:000097d0       ??_C@_02FKMDLLOA@?9?$DN@   00000001801dc7d0     libvcruntime:undname.obj
 0002:000097d4       ??_C@_02FJEHGPIO@?1?$DN@   00000001801dc7d4     libvcruntime:undname.obj
 0002:000097d8       ??_C@_02FENAOKFI@?$CF?$DN@ 00000001801dc7d8     libvcruntime:undname.obj
 0002:000097dc       ??_C@_03IKFCCPFF@?$DO?$DO?$DN@ 00000001801dc7dc     libvcruntime:undname.obj
 0002:000097e0       ??_C@_03CDNPDDLA@?$DM?$DM?$DN@ 00000001801dc7e0     libvcruntime:undname.obj
 0002:000097e4       ??_C@_02FGJGFEAB@?$CG?$DN@ 00000001801dc7e4     libvcruntime:undname.obj
 0002:000097e8       ??_C@_02DHLNPPGH@?$HM?$DN@ 00000001801dc7e8     libvcruntime:undname.obj
 0002:000097ec       ??_C@_02MHEGNOJ@?$FO?$DN@  00000001801dc7ec     libvcruntime:undname.obj
 0002:000097f0       ??_C@_09IFPLHPGF@?$GAvftable?8@ 00000001801dc7f0     libvcruntime:undname.obj
 0002:00009800       ??_C@_09BLBHBJP@?$GAvbtable?8@ 00000001801dc800     libvcruntime:undname.obj
 0002:00009810       ??_C@_07FEEIOKP@?$GAvcall?8@ 00000001801dc810     libvcruntime:undname.obj
 0002:00009818       ??_C@_08LLFFHHDJ@?$GAtypeof?8@ 00000001801dc818     libvcruntime:undname.obj
 0002:00009828       ??_C@_0BF@KDPPACIK@?$GAlocal?5static?5guard?8@ 00000001801dc828     libvcruntime:undname.obj
 0002:00009840       ??_C@_08OBABFOLI@?$GAstring?8@ 00000001801dc840     libvcruntime:undname.obj
 0002:00009850       ??_C@_0BD@JDLKDPAB@?$GAvbase?5destructor?8@ 00000001801dc850     libvcruntime:undname.obj
 0002:00009868       ??_C@_0BN@DEGPLNFK@?$GAvector?5deleting?5destructor?8@ 00000001801dc868     libvcruntime:undname.obj
 0002:00009888       ??_C@_0BO@OBMKPJIG@?$GAdefault?5constructor?5closure?8@ 00000001801dc888     libvcruntime:undname.obj
 0002:000098a8       ??_C@_0BN@IMDCHIKM@?$GAscalar?5deleting?5destructor?8@ 00000001801dc8a8     libvcruntime:undname.obj
 0002:000098c8       ??_C@_0BO@PFGOCPJJ@?$GAvector?5constructor?5iterator?8@ 00000001801dc8c8     libvcruntime:undname.obj
 0002:000098e8       ??_C@_0BN@LFPFMEDL@?$GAvector?5destructor?5iterator?8@ 00000001801dc8e8     libvcruntime:undname.obj
 0002:00009908       ??_C@_0CE@IKBNEHA@?$GAvector?5vbase?5constructor?5itera@ 00000001801dc908     libvcruntime:undname.obj
 0002:00009930       ??_C@_0BL@NILFHHPC@?$GAvirtual?5displacement?5map?8@ 00000001801dc930     libvcruntime:undname.obj
 0002:00009950       ??_C@_0CB@JONCMFFK@?$GAeh?5vector?5constructor?5iterator@ 00000001801dc950     libvcruntime:undname.obj
 0002:00009978       ??_C@_0CA@GCEOPDGL@?$GAeh?5vector?5destructor?5iterator?8@ 00000001801dc978     libvcruntime:undname.obj
 0002:00009998       ??_C@_0CH@OOJPLCPH@?$GAeh?5vector?5vbase?5constructor?5it@ 00000001801dc998     libvcruntime:undname.obj
 0002:000099c0       ??_C@_0BL@LLKPOHJI@?$GAcopy?5constructor?5closure?8@ 00000001801dc9c0     libvcruntime:undname.obj
 0002:000099e0       ??_C@_0BA@KBCDOMBN@?$GAudt?5returning?8@ 00000001801dc9e0     libvcruntime:undname.obj
 0002:000099f0       ??_C@_03KLGMFNMG@?$GAEH@   00000001801dc9f0     libvcruntime:undname.obj
 0002:000099f4       ??_C@_05KHLCHHI@?$GARTTI@  00000001801dc9f4     libvcruntime:undname.obj
 0002:00009a00       ??_C@_0BA@KKLDJDLB@?$GAlocal?5vftable?8@ 00000001801dca00     libvcruntime:undname.obj
 0002:00009a10       ??_C@_0CE@IIHCMGGL@?$GAlocal?5vftable?5constructor?5clos@ 00000001801dca10     libvcruntime:undname.obj
 0002:00009a34       ??_C@_06FHBGPFGH@?5new?$FL?$FN@ 00000001801dca34     libvcruntime:undname.obj
 0002:00009a40       ??_C@_09LBNFPBCA@?5delete?$FL?$FN@ 00000001801dca40     libvcruntime:undname.obj
 0002:00009a50       ??_C@_0P@HJKNJFNN@?$GAomni?5callsig?8@ 00000001801dca50     libvcruntime:undname.obj
 0002:00009a60       ??_C@_0BL@CNOONJFP@?$GAplacement?5delete?5closure?8@ 00000001801dca60     libvcruntime:undname.obj
 0002:00009a80       ??_C@_0BN@CKNJLHMB@?$GAplacement?5delete?$FL?$FN?5closure?8@ 00000001801dca80     libvcruntime:undname.obj
 0002:00009aa0       ??_C@_0CG@CFDHKGGD@?$GAmanaged?5vector?5constructor?5ite@ 00000001801dcaa0     libvcruntime:undname.obj
 0002:00009ac8       ??_C@_0CF@IMGKMJNO@?$GAmanaged?5vector?5destructor?5iter@ 00000001801dcac8     libvcruntime:undname.obj
 0002:00009af0       ??_C@_0CG@HLDDJMAG@?$GAeh?5vector?5copy?5constructor?5ite@ 00000001801dcaf0     libvcruntime:undname.obj
 0002:00009b18       ??_C@_0CM@FCBBDIGB@?$GAeh?5vector?5vbase?5copy?5construct@ 00000001801dcb18     libvcruntime:undname.obj
 0002:00009b48       ??_C@_0BL@CLIPGLGB@?$GAdynamic?5initializer?5for?5?8@ 00000001801dcb48     libvcruntime:undname.obj
 0002:00009b68       ??_C@_0CB@PDBIFEP@?$GAdynamic?5atexit?5destructor?5for?5@ 00000001801dcb68     libvcruntime:undname.obj
 0002:00009b90       ??_C@_0CD@CGAJBKEJ@?$GAvector?5copy?5constructor?5iterat@ 00000001801dcb90     libvcruntime:undname.obj
 0002:00009bb8       ??_C@_0CJ@GJELGAMM@?$GAvector?5vbase?5copy?5constructor?5@ 00000001801dcbb8     libvcruntime:undname.obj
 0002:00009be8       ??_C@_0CL@FGIJHLCE@?$GAmanaged?5vector?5copy?5constructo@ 00000001801dcbe8     libvcruntime:undname.obj
 0002:00009c18       ??_C@_0BM@PMGGMLDN@?$GAlocal?5static?5thread?5guard?8@ 00000001801dcc18     libvcruntime:undname.obj
 0002:00009c38       ??_C@_0N@BDNMDMOL@operator?5?$CC?$CC?5@ 00000001801dcc38     libvcruntime:undname.obj
 0002:00009c48       ??_C@_0BC@GGEBGALA@operator?5co_await@ 00000001801dcc48     libvcruntime:undname.obj
 0002:00009c60       ??_C@_0M@GAAIMMOH@operator?$DM?$DN?$DO@ 00000001801dcc60     libvcruntime:undname.obj
 0002:00009c70       ??_C@_0BC@DAFEJGAK@?5Type?5Descriptor?8@ 00000001801dcc70     libvcruntime:undname.obj
 0002:00009c88       ??_C@_0BM@LDKODKLH@?5Base?5Class?5Descriptor?5at?5?$CI@ 00000001801dcc88     libvcruntime:undname.obj
 0002:00009ca8       ??_C@_0BD@LGICGFMM@?5Base?5Class?5Array?8@ 00000001801dcca8     libvcruntime:undname.obj
 0002:00009cc0       ??_C@_0BN@MECKDCOJ@?5Class?5Hierarchy?5Descriptor?8@ 00000001801dccc0     libvcruntime:undname.obj
 0002:00009ce0       ??_C@_0BK@CFCOFLF@?5Complete?5Object?5Locator?8@ 00000001801dcce0     libvcruntime:undname.obj
 0002:00009d00       ??_C@_0BG@JNJLAMPM@?$GAanonymous?5namespace?8@ 00000001801dcd00     libvcruntime:undname.obj
 0002:00009d18       ??_C@_04HEJADOOB@CV?3?5@   00000001801dcd18     libvcruntime:undname.obj
 0002:00009d20       ??_C@_02MOLJINC@?3?3@      00000001801dcd20     libvcruntime:undname.obj
 0002:00009d28       ??_C@_0BE@JAEOCHPE@template?9parameter?9@ 00000001801dcd28     libvcruntime:undname.obj
 0002:00009d40       ??_C@_0BF@LNLGBBNL@?$GAtemplate?9parameter?9@ 00000001801dcd40     libvcruntime:undname.obj
 0002:00009d58       ??_C@_0O@KHGCOMHP@generic?9type?9@ 00000001801dcd58     libvcruntime:undname.obj
 0002:00009d68       ??_C@_0P@ODDENDLM@?$GAgeneric?9type?9@ 00000001801dcd68     libvcruntime:undname.obj
 0002:00009d78       ??_C@_02OHHJMEON@?8?8@     00000001801dcd78     libvcruntime:undname.obj
 0002:00009d80       ??_C@_0BN@IBLMMFAP@?$GAnon?9type?9template?9parameter@ 00000001801dcd80     libvcruntime:undname.obj
 0002:00009da0       ??_C@_03DLDNIBIK@?$CFlf@   00000001801dcda0     libvcruntime:undname.obj
 0002:00009da4       ??_C@_04OFALKAJ@?$DP?$DP_C@ 00000001801dcda4     libvcruntime:undname.obj
 0002:00009dac       ??_C@_03KHICJKCI@?4?4?4@   00000001801dcdac     libvcruntime:undname.obj
 0002:00009db0       ??_C@_04HIBGFPH@NULL@      00000001801dcdb0     libvcruntime:undname.obj
 0002:00009db8       ??_C@_02DPKJAMEF@?$CFd@    00000001801dcdb8     libvcruntime:undname.obj
 0002:00009dc0       ??_C@_0BK@IHCCFNEL@?$GAtemplate?9type?9parameter?9@ 00000001801dcdc0     libvcruntime:undname.obj
 0002:00009de0       ??_C@_0BK@OFCNNNKO@?$GAgeneric?9class?9parameter?9@ 00000001801dcde0     libvcruntime:undname.obj
 0002:00009e00       ??_C@_0BL@NGJBLFIL@?$GAgeneric?9method?9parameter?9@ 00000001801dce00     libvcruntime:undname.obj
 0002:00009e20       ??_C@_07OHNGEDJK@nullptr@  00000001801dce20     libvcruntime:undname.obj
 0002:00009e28       ??_C@_06COJIGPIB@lambda@   00000001801dce28     libvcruntime:undname.obj
 0002:00009e30       ??_C@_0BE@EODMJLIF@?$GAtemplate?9parameter@ 00000001801dce30     libvcruntime:undname.obj
 0002:00009e44       ??_C@_03OPGICMGF@?$HN?8?5@ 00000001801dce44     libvcruntime:undname.obj
 0002:00009e48       ??_C@_02IGFCGPIL@?$HN?8@   00000001801dce48     libvcruntime:undname.obj
 0002:00009e50       ??_C@_0N@CBHHHENL@?$GAvtordispex?$HL@ 00000001801dce50     libvcruntime:undname.obj
 0002:00009e60       ??_C@_0L@GHPFDFH@?$GAvtordisp?$HL@ 00000001801dce60     libvcruntime:undname.obj
 0002:00009e70       ??_C@_0L@HNGCOGAE@?$GAadjustor?$HL@ 00000001801dce70     libvcruntime:undname.obj
 0002:00009e80       ??_C@_0CB@KJDOOODE@?$GAlocal?5static?5destructor?5helper@ 00000001801dce80     libvcruntime:undname.obj
 0002:00009ea8       ??_C@_0DB@ILEFOCIJ@?$GAtemplate?5static?5data?5member?5co@ 00000001801dcea8     libvcruntime:undname.obj
 0002:00009ee0       ??_C@_0DA@HGFJFBBE@?$GAtemplate?5static?5data?5member?5de@ 00000001801dcee0     libvcruntime:undname.obj
 0002:00009f10       ??_C@_07PGOEDBHP@static?5@ 00000001801dcf10     libvcruntime:undname.obj
 0002:00009f18       ??_C@_08NIEOINHE@virtual?5@ 00000001801dcf18     libvcruntime:undname.obj
 0002:00009f28       ??_C@_09LAPHOOG@private?3?5@ 00000001801dcf28     libvcruntime:undname.obj
 0002:00009f38       ??_C@_0M@GAIFPFIP@protected?3?5@ 00000001801dcf38     libvcruntime:undname.obj
 0002:00009f48       ??_C@_08GPDDCMKI@public?3?5@ 00000001801dcf48     libvcruntime:undname.obj
 0002:00009f58       ??_C@_08KJLFOPNE@?$FLthunk?$FN?3@ 00000001801dcf58     libvcruntime:undname.obj
 0002:00009f68       ??_C@_0M@DHNBOJMP@extern?5?$CCC?$CC?5@ 00000001801dcf68     libvcruntime:undname.obj
 0002:00009f74       ??_C@_02KCKGHPCA@?$CJ?5@   00000001801dcf74     libvcruntime:undname.obj
 0002:00009f78       ??_C@_05CIHEBHNO@char?5@   00000001801dcf78     libvcruntime:undname.obj
 0002:00009f80       ??_C@_06EHJMALKF@short?5@  00000001801dcf80     libvcruntime:undname.obj
 0002:00009f88       ??_C@_04LAHKHJMA@int?5@    00000001801dcf88     libvcruntime:undname.obj
 0002:00009f90       ??_C@_05CJIMAING@long?5@   00000001801dcf90     libvcruntime:undname.obj
 0002:00009f98       ??_C@_09EBBEKKIH@unsigned?5@ 00000001801dcf98     libvcruntime:undname.obj
 0002:00009fa4       ??_C@_05BEFAKPML@void?5@   00000001801dcfa4     libvcruntime:undname.obj
 0002:00009fb0       ??_C@_09GAIEOBLP@volatile?5@ 00000001801dcfb0     libvcruntime:undname.obj
 0002:00009fc0       ??_C@_08PABEKFH@volatile@  00000001801dcfc0     libvcruntime:undname.obj
 0002:00009fd0       ??_C@_0BA@LKIJLKPP@std?3?3nullptr_t?5@ 00000001801dcfd0     libvcruntime:undname.obj
 0002:00009fe0       ??_C@_0P@GCOCNKDM@std?3?3nullptr_t@ 00000001801dcfe0     libvcruntime:undname.obj
 0002:00009ff0       ??_C@_0L@EGPHHEKN@?$DMellipsis?$DO@ 00000001801dcff0     libvcruntime:undname.obj
 0002:00009ffc       ??_C@_04EENFHACM@?0?4?4?4@ 00000001801dcffc     libvcruntime:undname.obj
 0002:0000a008       ??_C@_0M@ELJOJFFH@?0?$DMellipsis?$DO@ 00000001801dd008     libvcruntime:undname.obj
 0002:0000a018       ??_C@_09DNHFEOJI@?5noexcept@ 00000001801dd018     libvcruntime:undname.obj
 0002:0000a024       ??_C@_03PBJBJNON@cpu@      00000001801dd024     libvcruntime:undname.obj
 0002:0000a028       ??_C@_03DCBBJBAA@amp@      00000001801dd028     libvcruntime:undname.obj
 0002:0000a02c       ??_C@_02KEGNLNML@?0?5@     00000001801dd02c     libvcruntime:undname.obj
 0002:0000a030       ??_C@_04ENMBGAPA@char@     00000001801dd030     libvcruntime:undname.obj
 0002:0000a038       ??_C@_05BFKKPKCG@short@    00000001801dd038     libvcruntime:undname.obj
 0002:0000a040       ??_C@_03JBIPMCLC@int@      00000001801dd040     libvcruntime:undname.obj
 0002:0000a044       ??_C@_04GOKPGOLB@long@     00000001801dd044     libvcruntime:undname.obj
 0002:0000a04c       ??_C@_06BNJCAIGJ@double@   00000001801dd04c     libvcruntime:undname.obj
 0002:0000a054       ??_C@_06EBGKOKIG@__int8@   00000001801dd054     libvcruntime:undname.obj
 0002:0000a060       ??_C@_07ICFHOGAF@__int16@  00000001801dd060     libvcruntime:undname.obj
 0002:0000a068       ??_C@_07OFLPPHGP@__int32@  00000001801dd068     libvcruntime:undname.obj
 0002:0000a070       ??_C@_07LFCOJCAC@__int64@  00000001801dd070     libvcruntime:undname.obj
 0002:0000a078       ??_C@_08GAHOLHEO@__int128@ 00000001801dd078     libvcruntime:undname.obj
 0002:0000a088       ??_C@_09EEKGDCPH@?$DMunknown?$DO@ 00000001801dd088     libvcruntime:undname.obj
 0002:0000a098       ??_C@_07CFHGOPCN@char8_t@  00000001801dd098     libvcruntime:undname.obj
 0002:0000a0a0       ??_C@_08HBIPOFJB@char16_t@ 00000001801dd0a0     libvcruntime:undname.obj
 0002:0000a0b0       ??_C@_08IECNCBKG@char32_t@ 00000001801dd0b0     libvcruntime:undname.obj
 0002:0000a0c0       ??_C@_07CLGGIAMF@wchar_t@  00000001801dd0c0     libvcruntime:undname.obj
 0002:0000a0c8       ??_C@_04HAPDLBFF@auto@     00000001801dd0c8     libvcruntime:undname.obj
 0002:0000a0d0       ??_C@_0P@LHCGKIGK@decltype?$CIauto?$CJ@ 00000001801dd0d0     libvcruntime:undname.obj
 0002:0000a0e0       ??_C@_05PCNBGHCF@this?5@   00000001801dd0e0     libvcruntime:undname.obj
 0002:0000a0e8       ??_C@_06GCICPBLB@__w64?5@  00000001801dd0e8     libvcruntime:undname.obj
 0002:0000a0f0       ??_C@_07NFANNNEC@UNKNOWN@  00000001801dd0f0     libvcruntime:undname.obj
 0002:0000a0f8       ??_C@_07EDHNAJHC@signed?5@ 00000001801dd0f8     libvcruntime:undname.obj
 0002:0000a100       ??_C@_05BNCCCJPP@const@    00000001801dd100     libvcruntime:undname.obj
 0002:0000a108       ??_C@_09EFNPDFFP@?5volatile@ 00000001801dd108     libvcruntime:undname.obj
 0002:0000a118       ??_C@_0P@GCIFDJCJ@?$GAunknown?5ecsu?8@ 00000001801dd118     libvcruntime:undname.obj
 0002:0000a128       ??_C@_06MOJHIBMG@union?5@  00000001801dd128     libvcruntime:undname.obj
 0002:0000a130       ??_C@_07DIBCDNGL@struct?5@ 00000001801dd130     libvcruntime:undname.obj
 0002:0000a138       ??_C@_06LJBABKPM@class?5@  00000001801dd138     libvcruntime:undname.obj
 0002:0000a140       ??_C@_08KOFANOFK@coclass?5@ 00000001801dd140     libvcruntime:undname.obj
 0002:0000a150       ??_C@_0N@DLIEFKNA@cointerface?5@ 00000001801dd150     libvcruntime:undname.obj
 0002:0000a160       ??_C@_05LJGMCFOG@enum?5@   00000001801dd160     libvcruntime:undname.obj
 0002:0000a168       ??_C@_06LIJLOJAG@const?5@  00000001801dd168     libvcruntime:undname.obj
 0002:0000a170       ??_C@_02KJPKDIBN@?$CG?5@   00000001801dd170     libvcruntime:undname.obj
 0002:0000a174       ??_C@_03PCKGMOPB@?$CG?$CG?5@ 00000001801dd174     libvcruntime:undname.obj
 0002:0000a178       ??_C@_0M@EALIELKG@cli?3?3array?$DM@ 00000001801dd178     libvcruntime:undname.obj
 0002:0000a188       ??_C@_0O@GKABPPIF@cli?3?3pin_ptr?$DM@ 00000001801dd188     libvcruntime:undname.obj
 0002:0000a198       ??_C@_02GOGNNPBN@?$CJ?$FL@ 00000001801dd198     libvcruntime:undname.obj
 0002:0000a19c       ??_C@_06EEGAIFAK@?$HLflat?$HN@ 00000001801dd19c     libvcruntime:undname.obj
 0002:0000a1a4       ??_C@_05JIBOFOHK@?$HLfor?5@ 00000001801dd1a4     libvcruntime:undname.obj
 0002:0000a1ac       ??_C@_02MDINNEEG@s?5@      00000001801dd1ac     libvcruntime:undname.obj
 0002:0000a1b8       ??_7charNode@@6B@          00000001801dd1b8     libvcruntime:undname.obj
 0002:0000a1e0       ??_7pcharNode@@6B@         00000001801dd1e0     libvcruntime:undname.obj
 0002:0000a208       ??_7pDNameNode@@6B@        00000001801dd208     libvcruntime:undname.obj
 0002:0000a230       ??_7DNameStatusNode@@6B@   00000001801dd230     libvcruntime:undname.obj
 0002:0000a258       ??_7pairNode@@6B@          00000001801dd258     libvcruntime:undname.obj
 0002:0000a380       ??_C@_04OKOHEJBO@?5?$DP?$DP?5@ 00000001801dd380     libvcruntime:undname.obj
 0002:0000a390       ?nodes@?1??make@DNameStatusNode@@SAPEBV2@W4DNameStatus@@@Z@4QBV2@B 00000001801dd390     libvcruntime:undname.obj
 0002:0000a3d0       ?s_negLengthTab@FH4@@3QBCB 00000001801dd3d0     libvcruntime:risctrnsctrl.obj
 0002:0000a3e0       ?s_shiftTab@FH4@@3QBEB     00000001801dd3e0     libvcruntime:risctrnsctrl.obj
 0002:0000a540       ??_C@_1DM@KHCHBNEB@?$AAa?$AAp?$AAi?$AA?9?$AAm?$AAs?$AA?9?$AAw?$AAi?$AAn?$AA?9?$AAc?$AAo?$AAr?$AAe@ 00000001801dd540     libvcruntime:winapi_downlevel.obj
 0002:0000a580       ??_C@_1DK@LPPGFMPP@?$AAa?$AAp?$AAi?$AA?9?$AAm?$AAs?$AA?9?$AAw?$AAi?$AAn?$AA?9?$AAc?$AAo?$AAr?$AAe@ 00000001801dd580     libvcruntime:winapi_downlevel.obj
 0002:0000a5c0       ??_C@_1BC@GDMECMAK@?$AAk?$AAe?$AAr?$AAn?$AAe?$AAl?$AA3?$AA2@ 00000001801dd5c0     libvcruntime:winapi_downlevel.obj
 0002:0000a5d8       ??_C@_1BA@PFFKHIOG@?$AAa?$AAp?$AAi?$AA?9?$AAm?$AAs?$AA?9@ 00000001801dd5d8     libvcruntime:winapi_downlevel.obj
 0002:0000a5f0       ??_C@_08KNHFBNJ@FlsAlloc@  00000001801dd5f0     libvcruntime:winapi_downlevel.obj
 0002:0000a608       ??_C@_07PEJMOBNF@FlsFree@  00000001801dd608     libvcruntime:winapi_downlevel.obj
 0002:0000a618       ??_C@_0M@GDNOONDI@FlsGetValue@ 00000001801dd618     libvcruntime:winapi_downlevel.obj
 0002:0000a630       ??_C@_0M@JCPCPOEF@FlsSetValue@ 00000001801dd630     libvcruntime:winapi_downlevel.obj
 0002:0000a648       ??_C@_0BM@HCFOFFN@InitializeCriticalSectionEx@ 00000001801dd648     libvcruntime:winapi_downlevel.obj
 0002:0000a670       ??_7exception@std@@6B@     00000001801dd670     libvcruntime:frame.obj
 0002:0000a680       ??_C@_0BC@EOODALEL@Unknown?5exception@ 00000001801dd680     libvcruntime:frame.obj
 0002:0000a6a0       ??_7bad_exception@std@@6B@ 00000001801dd6a0     libvcruntime:frame.obj
 0002:0000a6b0       ??_C@_0O@DPKOEFFH@bad?5exception@ 00000001801dd6b0     libvcruntime:frame.obj
 0002:0000aa00       ?standard_lookup_table_spectre@__crt_stdio_output@@3V?$spectre_mitigated_lookup_table@Ustate_transition_pair@__crt_stdio_output@@$0IA@@1@B 00000001801dda00     libucrt:output.obj
 0002:0000ab00       ?format_validation_lookup_table_spectre@__crt_stdio_output@@3V?$spectre_mitigated_lookup_table@Ustate_transition_pair@__crt_stdio_output@@$0IA@@1@B 00000001801ddb00     libucrt:output.obj
 0002:0000ac00       ??_C@_1O@CEDCILHN@?$AA?$CI?$AAn?$AAu?$AAl?$AAl?$AA?$CJ@ 00000001801ddc00     libucrt:output.obj
 0002:0000ac10       ??_C@_06OJHGLDPL@?$CInull?$CJ@ 00000001801ddc10     libucrt:output.obj
 0002:0000bca8       __real@3f1a36e2eb1c432d    00000001801deca8     libucrt:atan2f.obj
 0002:0000bcb0       __real@3fb0000000000000    00000001801decb0     libucrt:atan2f.obj
 0002:0000bcb8       __real@3fc2492482bd6be1    00000001801decb8     libucrt:atan2f.obj
 0002:0000bcc0       __real@3fc99999999643a3    00000001801decc0     libucrt:atan2f.obj
 0002:0000bcc8       __real@3fd5555555550877    00000001801decc8     libucrt:atan2f.obj
 0002:0000bcd0       __real@3fd5555555555538    00000001801decd0     libucrt:atan2f.obj
 0002:0000bcd8       __real@3ff921fb54442d18    00000001801decd8     libucrt:atan2f.obj
 0002:0000bce0       __real@400921fb54442d18    00000001801dece0     libucrt:atan2f.obj
 0002:0000bce8       __real@40490fdb            00000001801dece8     libucrt:atan2f.obj
 0002:0000bcf0       __real@4070000000000000    00000001801decf0     libucrt:atan2f.obj
 0002:0000bcf8       __real@bf490fdb            00000001801decf8     libucrt:atan2f.obj
 0002:0000bcfc       __real@bfc90fdb            00000001801decfc     libucrt:atan2f.obj
 0002:0000bd00       __real@c016cbe4            00000001801ded00     libucrt:atan2f.obj
 0002:0000bd04       __real@c0490fdb            00000001801ded04     libucrt:atan2f.obj
 0002:0000bd08       ??_C@_05FFFCHCED@acosf@    00000001801ded08     libucrt:acosf.obj
 0002:0000bd10       __real@3b81ce6b            00000001801ded10     libucrt:acosf.obj
 0002:0000bd18       __real@3c91a62633145c07    00000001801ded18     libucrt:acosf.obj
 0002:0000bd20       __real@3d678bdd            00000001801ded20     libucrt:acosf.obj
 0002:0000bd24       __real@3e3c94dc            00000001801ded24     libucrt:acosf.obj
 0002:0000bd28       __real@3f561f0d            00000001801ded28     libucrt:acosf.obj
 0002:0000bd2c       __real@3f8d6fa5            00000001801ded2c     libucrt:acosf.obj
 0002:0000bd30       __real@bc5b3fe1            00000001801ded30     libucrt:acosf.obj
 0002:0000bd40       __acrt_exception_action_table 00000001801ded40     libucrt:exception_filter.obj
 0002:0000be00       __acrt_signal_action_table_count 00000001801dee00     libucrt:exception_filter.obj
 0002:0000be08       __acrt_signal_action_first_fpe_index 00000001801dee08     libucrt:exception_filter.obj
 0002:0000be10       __acrt_signal_action_fpe_count 00000001801dee10     libucrt:exception_filter.obj
 0002:0000be68       ??_C@_1BI@BGOHAHKC@?$AAm?$AAs?$AAc?$AAo?$AAr?$AAe?$AAe?$AA?4?$AAd?$AAl?$AAl@ 00000001801dee68     libucrt:exit.obj
 0002:0000be80       ??_C@_0P@MIGLKIOC@CorExitProcess@ 00000001801dee80     libucrt:exit.obj
 0002:0000c150       ??_C@_04LAGPAAHP@sinf@     00000001801df150     libucrt:sincos_special.obj
 0002:0000c158       ??_C@_04OBBKPIAC@cosf@     00000001801df158     libucrt:sincos_special.obj
 0002:0000c160       ??_C@_04MHPLPEIA@tanf@     00000001801df160     libucrt:sincos_special.obj
 0002:0000c170       __Lcosfarray               00000001801df170     libucrt:lsincosf_array.obj
 0002:0000c1a0       __Lsinfarray               00000001801df1a0     libucrt:lsincosf_array.obj
 0002:0000c1c0       __L_2_by_pi_bits           00000001801df1c0     libucrt:l2_by_pi_bits.obj
 0002:0000c530       ??_C@_1EA@JGEFHKEI@?$AAa?$AAp?$AAi?$AA?9?$AAm?$AAs?$AA?9?$AAw?$AAi?$AAn?$AA?9?$AAc?$AAo?$AAr?$AAe@ 00000001801df530     libucrt:winapi_thunks.obj
 0002:0000c570       ??_C@_1DI@KMEPCBPN@?$AAa?$AAp?$AAi?$AA?9?$AAm?$AAs?$AA?9?$AAw?$AAi?$AAn?$AA?9?$AAc?$AAo?$AAr?$AAe@ 00000001801df570     libucrt:winapi_thunks.obj
 0002:0000c5a8       ??_C@_1DI@IJCEHOCB@?$AAa?$AAp?$AAi?$AA?9?$AAm?$AAs?$AA?9?$AAw?$AAi?$AAn?$AA?9?$AAc?$AAo?$AAr?$AAe@ 00000001801df5a8     libucrt:winapi_thunks.obj
 0002:0000c5e0       ??_C@_1EI@MPIAOHOC@?$AAa?$AAp?$AAi?$AA?9?$AAm?$AAs?$AA?9?$AAw?$AAi?$AAn?$AA?9?$AAc?$AAo?$AAr?$AAe@ 00000001801df5e0     libucrt:winapi_thunks.obj
 0002:0000c630       ??_C@_1FK@FPHCKFIE@?$AAa?$AAp?$AAi?$AA?9?$AAm?$AAs?$AA?9?$AAw?$AAi?$AAn?$AA?9?$AAc?$AAo?$AAr?$AAe@ 00000001801df630     libucrt:winapi_thunks.obj
 0002:0000c690       ??_C@_1EM@DILCGIIO@?$AAa?$AAp?$AAi?$AA?9?$AAm?$AAs?$AA?9?$AAw?$AAi?$AAn?$AA?9?$AAc?$AAo?$AAr?$AAe@ 00000001801df690     libucrt:winapi_thunks.obj
 0002:0000c6e0       ??_C@_1DM@LNCGDDPN@?$AAa?$AAp?$AAi?$AA?9?$AAm?$AAs?$AA?9?$AAw?$AAi?$AAn?$AA?9?$AAc?$AAo?$AAr?$AAe@ 00000001801df6e0     libucrt:winapi_thunks.obj
