 PhysXCooking_64

 Timestamp is 64ccc3dc (Fri Aug  4 18:24:44 2023)

 Preferred load address is 0000000180000000

 Start         Length     Name                   Class
 0001:00000000 00000060H .text$di                CODE
 0001:00000060 0001ec70H .text$mn                CODE
 0001:0001ecd0 00000040H .text$mn$00             CODE
 0001:0001ed10 00000680H .text$x                 CODE
 0002:00000000 00000280H .idata$5                DATA
 0002:00000280 00000038H .00cfg                  DATA
 0002:000002b8 00000008H .CRT$XCA                DATA
 0002:000002c0 00000030H .CRT$XCU                DATA
 0002:000002f0 00000008H .CRT$XCZ                DATA
 0002:000002f8 00000008H .CRT$XIA                DATA
 0002:00000300 00000018H .CRT$XIC                DATA
 0002:00000318 00000008H .CRT$XIZ                DATA
 0002:00000320 00000008H .CRT$XPA                DATA
 0002:00000328 00000010H .CRT$XPX                DATA
 0002:00000338 00000008H .CRT$XPXA               DATA
 0002:00000340 00000008H .CRT$XPZ                DATA
 0002:00000348 00000008H .CRT$XTA                DATA
 0002:00000350 00000010H .CRT$XTZ                DATA
 0002:00000358 00000000H .gehcont$y              DATA
 0002:00000358 00000000H .gfids$y                DATA
 0002:00000360 00008da0H .rdata                  DATA
 0002:00009100 00000000H .rdata$CastGuardVftablesA DATA
 0002:00009100 00000000H .rdata$CastGuardVftablesC DATA
 0002:00009100 0000043cH .rdata$r                DATA
 0002:0000953c 00000280H .rdata$voltmd           DATA
 0002:000097bc 0000041cH .rdata$zzzdbg           DATA
 0002:00009bd8 00000008H .rtc$IAA                DATA
 0002:00009be0 00000008H .rtc$IZZ                DATA
 0002:00009be8 00000008H .rtc$TAA                DATA
 0002:00009bf0 00000008H .rtc$TZZ                DATA
 0002:00009bf8 000015f8H .xdata                  DATA
 0002:0000b1f0 00000084H .xdata$x                DATA
 0002:0000b274 00000040H .didat$2                DATA
 0002:0000b2b4 00000024H .didat$3                DATA
 0002:0000b2d8 000000d8H .didat$4                DATA
 0002:0000b3b0 00000280H .didat$6                DATA
 0002:0000b630 000000e0H .didat$7                DATA
 0002:0000b710 00000b04H .edata                  DATA
 0002:0000c214 00000014H .idata$2                DATA
 0002:0000c228 00000018H .idata$3                DATA
 0002:0000c240 00000280H .idata$4                DATA
 0002:0000c4c0 000005baH .idata$6                DATA
 0003:00000000 00000a00H .data                   DATA
 0003:00000a00 000000e0H .data$r                 DATA
 0003:00000ae0 000000f0H .data$rs                DATA
 0003:00000bd0 000000e0H .didat$5                DATA
 0003:00000cb0 00001270H .bss                    DATA
 0004:00000000 000018fcH .pdata                  DATA
 0005:00000000 0000015cH _RDATA                  DATA
 0006:00000000 000000a0H .rsrc$01                DATA
 0006:000000a0 000004b0H .rsrc$02                DATA

  Address         Publics by Value              Rva+Base               Lib:Object

 0000:00000000       __AbsoluteZero             0000000000000000     <absolute>
 0000:00000000       ___safe_se_handler_count   0000000000000000     <absolute>
 0000:00000000       ___safe_se_handler_table   0000000000000000     <absolute>
 0000:00000000       __arm64x_extra_rfe_table   0000000000000000     <absolute>
 0000:00000000       __arm64x_extra_rfe_table_size 0000000000000000     <absolute>
 0000:00000000       __arm64x_native_entrypoint 0000000000000000     <absolute>
 0000:00000000       __arm64x_redirection_metadata 0000000000000000     <absolute>
 0000:00000000       __arm64x_redirection_metadata_count 0000000000000000     <absolute>
 0000:00000000       __dynamic_value_reloc_table 0000000000000000     <absolute>
 0000:00000000       __enclave_config           0000000000000000     <absolute>
 0000:00000000       __guard_check_icall_a64n_fptr 0000000000000000     <absolute>
 0000:00000000       __guard_eh_cont_count      0000000000000000     <absolute>
 0000:00000000       __guard_eh_cont_table      0000000000000000     <absolute>
 0000:00000000       __guard_fids_count         0000000000000000     <absolute>
 0000:00000000       __guard_fids_table         0000000000000000     <absolute>
 0000:00000000       __guard_iat_count          0000000000000000     <absolute>
 0000:00000000       __guard_iat_table          0000000000000000     <absolute>
 0000:00000000       __guard_longjmp_count      0000000000000000     <absolute>
 0000:00000000       __guard_longjmp_table      0000000000000000     <absolute>
 0000:00000000       __hybrid_auxiliary_delayload_iat 0000000000000000     <absolute>
 0000:00000000       __hybrid_auxiliary_delayload_iat_copy 0000000000000000     <absolute>
 0000:00000000       __hybrid_auxiliary_iat     0000000000000000     <absolute>
 0000:00000000       __hybrid_auxiliary_iat_copy 0000000000000000     <absolute>
 0000:00000000       __hybrid_code_map          0000000000000000     <absolute>
 0000:00000000       __hybrid_code_map_count    0000000000000000     <absolute>
 0000:00000000       __x64_code_ranges_to_entry_points 0000000000000000     <absolute>
 0000:00000000       __x64_code_ranges_to_entry_points_count 0000000000000000     <absolute>
 0000:00000100       __guard_flags              0000000000000100     <absolute>
 0000:00000000       __ImageBase                0000000180000000     <linker-defined>
 0001:00000060       ??$copy@V?$PxReflectionAllocator@USlab@NodeAllocator@Gu@physx@@@physx@@@?$PxArray@USlab@NodeAllocator@Gu@physx@@V?$PxReflectionAllocator@USlab@NodeAllocator@Gu@physx@@@4@@physx@@IEAAXAEBV01@@Z 0000000180001060 f i Cooking.obj
 0001:000000e0       ??0AABBTreeBounds@Gu@physx@@QEAA@XZ 00000001800010e0 f i Cooking.obj
 0001:000000f0       ??0AABBTreeBuildNode@Gu@physx@@QEAA@AEBV012@@Z 00000001800010f0 f i Cooking.obj
 0001:000000f0       ??4AABBTreeBuildNode@Gu@physx@@QEAAAEAV012@AEBV012@@Z 00000001800010f0 f i Cooking.obj
 0001:00000130       ??0AABBTreeBuildNode@Gu@physx@@QEAA@XZ 0000000180001130 f i Cooking.obj
 0001:00000130       ??4PxFoundation@physx@@QEAAAEAV01@AEBV01@@Z 0000000180001130 f i Cooking.obj
 0001:00000130       ?getAABB@AABBTreeBuildNode@Gu@physx@@QEBAAEBVPxBounds3@3@XZ 0000000180001130 f i Cooking.obj
 0001:00000140       ??0AABBTreeBuildParams@Gu@physx@@QEAA@IIPEBVAABBTreeBounds@12@W4BVHBuildStrategy@12@@Z 0000000180001140 f i Cooking.obj
 0001:00000160       ??0NodeAllocator@Gu@physx@@QEAA@AEBV012@@Z 0000000180001160 f i Cooking.obj
 0001:000001a0       ??0PxFoundation@physx@@QEAA@AEBV01@@Z 00000001800011a0 f i Cooking.obj
 0001:000001a0       ??0PxFoundation@physx@@QEAA@XZ 00000001800011a0 f i Cooking.obj
 0001:000001b0       ??1AABBTreeBounds@Gu@physx@@QEAA@XZ 00000001800011b0 f i Cooking.obj
 0001:000001c0       ??1AABBTreeBuildNode@Gu@physx@@QEAA@XZ 00000001800011c0 f i Cooking.obj
 0001:000001c0       _guard_check_icall_nop     00000001800011c0 f i LIBCMT:guard_support.obj
 0001:000001d0       ??1AABBTreeBuildParams@Gu@physx@@QEAA@XZ 00000001800011d0 f i Cooking.obj
 0001:000001d0       ?reset@AABBTreeBuildParams@Gu@physx@@QEAAXXZ 00000001800011d0 f i Cooking.obj
 0001:00000220       ??1PxFoundation@physx@@MEAA@XZ 0000000180001220 f i Cooking.obj
 0001:00000230       ??4AABBTreeBounds@Gu@physx@@QEAAAEAV012@AEBV012@@Z 0000000180001230 f i Cooking.obj
 0001:00000240       ??4AABBTreeBuildParams@Gu@physx@@QEAAAEAV012@AEBV012@@Z 0000000180001240 f i Cooking.obj
 0001:00000260       ??4NodeAllocator@Gu@physx@@QEAAAEAV012@AEBV012@@Z 0000000180001260 f i Cooking.obj
 0001:00000310       ??_EPxFoundation@physx@@MEAAPEAXI@Z 0000000180001310 f i Cooking.obj
 0001:000003a0       ??_FAABBTreeBuildParams@Gu@physx@@QEAAXXZ 00000001800013a0 f i Cooking.obj
 0001:000003c0       ?allocate@?$PxArray@USlab@NodeAllocator@Gu@physx@@V?$PxReflectionAllocator@USlab@NodeAllocator@Gu@physx@@@4@@physx@@IEAAPEAUSlab@NodeAllocator@Gu@2@I@Z 00000001800013c0 f i Cooking.obj
 0001:00000450       ?getBounds@AABBTreeBounds@Gu@physx@@QEAAPEAVPxBounds3@3@XZ 0000000180001450 f i Cooking.obj
 0001:00000450       ?getBounds@AABBTreeBounds@Gu@physx@@QEBAPEBVPxBounds3@3@XZ 0000000180001450 f i Cooking.obj
 0001:00000460       ?getNbPrimitives@AABBTreeBuildNode@Gu@physx@@QEBAIXZ 0000000180001460 f i Cooking.obj
 0001:00000460       ?getNbRuntimePrimitives@AABBTreeBuildNode@Gu@physx@@QEBAIXZ 0000000180001460 f i Cooking.obj
 0001:00000470       ?getNeg@AABBTreeBuildNode@Gu@physx@@QEBAPEBV123@XZ 0000000180001470 f i Cooking.obj
 0001:00000490       ?getPos@AABBTreeBuildNode@Gu@physx@@QEBAPEBV123@XZ 0000000180001490 f i Cooking.obj
 0001:000004a0       ?getPrimitives@AABBTreeBuildNode@Gu@physx@@QEAAPEAIPEAI@Z 00000001800014a0 f i Cooking.obj
 0001:000004a0       ?getPrimitives@AABBTreeBuildNode@Gu@physx@@QEBAPEBIPEBI@Z 00000001800014a0 f i Cooking.obj
 0001:000004b0       ?isLeaf@AABBTreeBuildNode@Gu@physx@@QEBA_NXZ 00000001800014b0 f i Cooking.obj
 0001:000004c0       ?moveFrom@AABBTreeBounds@Gu@physx@@QEAAXAEAV123@@Z 00000001800014c0 f i Cooking.obj
 0001:000004d0       ?ownsMemory@AABBTreeBounds@Gu@physx@@QEBA_NXZ 00000001800014d0 f i Cooking.obj
 0001:000004e0       ?recreate@?$PxArray@USlab@NodeAllocator@Gu@physx@@V?$PxReflectionAllocator@USlab@NodeAllocator@Gu@physx@@@4@@physx@@IEAAXI@Z 00000001800014e0 f i Cooking.obj
 0001:00000590       ?setBounds@AABBTreeBounds@Gu@physx@@QEAAXPEAVPxBounds3@3@@Z 0000000180001590 f i Cooking.obj
 0001:000005a0       ?setNbRunTimePrimitives@AABBTreeBuildNode@Gu@physx@@QEAAXI@Z 00000001800015a0 f i Cooking.obj
 0001:000005b0       ?takeOwnership@AABBTreeBounds@Gu@physx@@QEAAXXZ 00000001800015b0 f i Cooking.obj
 0001:000005c0       PxAssembleSoftBodyMesh     00000001800015c0 f   Cooking.obj
 0001:000005d0       PxAssembleSoftBodyMesh_Sim 00000001800015d0 f   Cooking.obj
 0001:000005e0       PxComputeCollisionData     00000001800015e0 f   Cooking.obj
 0001:000005f0       PxComputeHullPolygons      00000001800015f0 f   Cooking.obj
 0001:00000600       PxComputeModelsMapping     0000000180001600 f   Cooking.obj
 0001:00000610       PxComputeSimulationData    0000000180001610 f   Cooking.obj
 0001:00000620       PxCookBVH                  0000000180001620 f   Cooking.obj
 0001:00000630       PxCookConvexMesh           0000000180001630 f   Cooking.obj
 0001:00000640       PxCookHeightField          0000000180001640 f   Cooking.obj
 0001:00000650       PxCookSoftBodyMesh         0000000180001650 f   Cooking.obj
 0001:00000660       PxCookTetrahedronMesh      0000000180001660 f   Cooking.obj
 0001:00000670       PxCookTriangleMesh         0000000180001670 f   Cooking.obj
 0001:00000680       PxCreateBVH                0000000180001680 f   Cooking.obj
 0001:00000690       PxCreateBVHInternal        0000000180001690 f   Cooking.obj
 0001:00000720       PxCreateConvexMesh         0000000180001720 f   Cooking.obj
 0001:00000730       PxCreateHeightField        0000000180001730 f   Cooking.obj
 0001:00000740       PxCreateSoftBodyMesh       0000000180001740 f   Cooking.obj
 0001:00000750       PxCreateTetrahedronMesh    0000000180001750 f   Cooking.obj
 0001:00000760       PxCreateTriangleMesh       0000000180001760 f   Cooking.obj
 0001:00000770       PxCreateTriangleMeshInternal 0000000180001770 f   Cooking.obj
 0001:00000800       PxGetStandaloneInsertionCallback 0000000180001800 f   Cooking.obj
 0001:00000810       PxValidateConvexMesh       0000000180001810 f   Cooking.obj
 0001:00000820       PxValidateTriangleMesh     0000000180001820 f   Cooking.obj
 0001:00000830       ?cookingDelayHook@@YAP6A_JXZIPEAUDelayLoadInfo@@@Z 0000000180001830 f   WindowsCookingDelayLoadHook.obj
 0001:00000910       PxSetPhysXCookingDelayLoadHook 0000000180001910 f   WindowsCookingDelayLoadHook.obj
 0001:00000918       __imp_load_getInsertionCallback 0000000180001918 f   PhysXCommon_64:PhysXCommon_64.dll
 0001:00000924       getInsertionCallback       0000000180001924 f   PhysXCommon_64:PhysXCommon_64.dll
 0001:0000092a       __tailMerge_physxcommon_64_dll 000000018000192a     PhysXCommon_64:PhysXCommon_64.dll
 0001:000009a3       __imp_load_cookBVH         00000001800019a3 f   PhysXCommon_64:PhysXCommon_64.dll
 0001:000009af       cookBVH                    00000001800019af f   PhysXCommon_64:PhysXCommon_64.dll
 0001:000009b5       __imp_load_createBVH       00000001800019b5 f   PhysXCommon_64:PhysXCommon_64.dll
 0001:000009c1       createBVH                  00000001800019c1 f   PhysXCommon_64:PhysXCommon_64.dll
 0001:000009c7       __imp_load_cookHeightField 00000001800019c7 f   PhysXCommon_64:PhysXCommon_64.dll
 0001:000009d3       cookHeightField            00000001800019d3 f   PhysXCommon_64:PhysXCommon_64.dll
 0001:000009d9       __imp_load_createHeightField 00000001800019d9 f   PhysXCommon_64:PhysXCommon_64.dll
 0001:000009e5       createHeightField          00000001800019e5 f   PhysXCommon_64:PhysXCommon_64.dll
 0001:000009eb       __imp_load_cookConvexMesh  00000001800019eb f   PhysXCommon_64:PhysXCommon_64.dll
 0001:000009f7       cookConvexMesh             00000001800019f7 f   PhysXCommon_64:PhysXCommon_64.dll
 0001:000009fd       __imp_load_createConvexMesh 00000001800019fd f   PhysXCommon_64:PhysXCommon_64.dll
 0001:00000a09       createConvexMesh           0000000180001a09 f   PhysXCommon_64:PhysXCommon_64.dll
 0001:00000a0f       __imp_load_validateConvexMesh 0000000180001a0f f   PhysXCommon_64:PhysXCommon_64.dll
 0001:00000a1b       validateConvexMesh         0000000180001a1b f   PhysXCommon_64:PhysXCommon_64.dll
 0001:00000a21       __imp_load_computeHullPolygons 0000000180001a21 f   PhysXCommon_64:PhysXCommon_64.dll
 0001:00000a2d       computeHullPolygons        0000000180001a2d f   PhysXCommon_64:PhysXCommon_64.dll
 0001:00000a33       __imp_load_validateTriangleMesh 0000000180001a33 f   PhysXCommon_64:PhysXCommon_64.dll
 0001:00000a3f       validateTriangleMesh       0000000180001a3f f   PhysXCommon_64:PhysXCommon_64.dll
 0001:00000a45       __imp_load_createTriangleMesh 0000000180001a45 f   PhysXCommon_64:PhysXCommon_64.dll
 0001:00000a51       createTriangleMesh         0000000180001a51 f   PhysXCommon_64:PhysXCommon_64.dll
 0001:00000a57       __imp_load_cookTriangleMesh 0000000180001a57 f   PhysXCommon_64:PhysXCommon_64.dll
 0001:00000a63       cookTriangleMesh           0000000180001a63 f   PhysXCommon_64:PhysXCommon_64.dll
 0001:00000a69       __imp_load_cookTetrahedronMesh 0000000180001a69 f   PhysXCommon_64:PhysXCommon_64.dll
 0001:00000a75       cookTetrahedronMesh        0000000180001a75 f   PhysXCommon_64:PhysXCommon_64.dll
 0001:00000a7b       __imp_load_createTetrahedronMesh 0000000180001a7b f   PhysXCommon_64:PhysXCommon_64.dll
 0001:00000a87       createTetrahedronMesh      0000000180001a87 f   PhysXCommon_64:PhysXCommon_64.dll
 0001:00000a8d       __imp_load_cookSoftBodyMesh 0000000180001a8d f   PhysXCommon_64:PhysXCommon_64.dll
 0001:00000a99       cookSoftBodyMesh           0000000180001a99 f   PhysXCommon_64:PhysXCommon_64.dll
 0001:00000a9f       __imp_load_createSoftBodyMesh 0000000180001a9f f   PhysXCommon_64:PhysXCommon_64.dll
 0001:00000aab       createSoftBodyMesh         0000000180001aab f   PhysXCommon_64:PhysXCommon_64.dll
 0001:00000ab1       __imp_load_computeModelsMapping 0000000180001ab1 f   PhysXCommon_64:PhysXCommon_64.dll
 0001:00000abd       computeModelsMapping       0000000180001abd f   PhysXCommon_64:PhysXCommon_64.dll
 0001:00000ac3       __imp_load_computeCollisionData 0000000180001ac3 f   PhysXCommon_64:PhysXCommon_64.dll
 0001:00000acf       computeCollisionData       0000000180001acf f   PhysXCommon_64:PhysXCommon_64.dll
 0001:00000ad5       __imp_load_computeSimulationData 0000000180001ad5 f   PhysXCommon_64:PhysXCommon_64.dll
 0001:00000ae1       computeSimulationData      0000000180001ae1 f   PhysXCommon_64:PhysXCommon_64.dll
 0001:00000ae7       __imp_load_assembleSoftBodyMesh 0000000180001ae7 f   PhysXCommon_64:PhysXCommon_64.dll
 0001:00000af3       assembleSoftBodyMesh       0000000180001af3 f   PhysXCommon_64:PhysXCommon_64.dll
 0001:00000af9       __imp_load_assembleSoftBodyMesh_Sim 0000000180001af9 f   PhysXCommon_64:PhysXCommon_64.dll
 0001:00000b05       assembleSoftBodyMesh_Sim   0000000180001b05 f   PhysXCommon_64:PhysXCommon_64.dll
 0001:00000b0b       __imp_load_?release@AABBTreeBounds@Gu@physx@@QEAAXXZ 0000000180001b0b f   PhysXCommon_64:PhysXCommon_64.dll
 0001:00000b17       ?release@AABBTreeBounds@Gu@physx@@QEAAXXZ 0000000180001b17 f   PhysXCommon_64:PhysXCommon_64.dll
 0001:00000b1d       __imp_load_??0BVH@Gu@physx@@QEAA@AEBUPxBVHInternalData@2@@Z 0000000180001b1d f   PhysXCommon_64:PhysXCommon_64.dll
 0001:00000b29       ??0BVH@Gu@physx@@QEAA@AEBUPxBVHInternalData@2@@Z 0000000180001b29 f   PhysXCommon_64:PhysXCommon_64.dll
 0001:00000b2f       __imp_load_??0BV4TriangleMesh@Gu@physx@@QEAA@AEBUPxTriangleMeshInternalData@2@@Z 0000000180001b2f f   PhysXCommon_64:PhysXCommon_64.dll
 0001:00000b3b       ??0BV4TriangleMesh@Gu@physx@@QEAA@AEBUPxTriangleMeshInternalData@2@@Z 0000000180001b3b f   PhysXCommon_64:PhysXCommon_64.dll
 0001:00000b41       __imp_load_PxGetBroadcastAllocator 0000000180001b41 f   PhysXFoundation_64:PhysXFoundation_64.dll
 0001:00000b4d       PxGetBroadcastAllocator    0000000180001b4d f   PhysXFoundation_64:PhysXFoundation_64.dll
 0001:00000b53       __tailMerge_physxfoundation_64_dll 0000000180001b53     PhysXFoundation_64:PhysXFoundation_64.dll
 0001:00000bcc       ?DloadAcquireSectionWriteAccess@@YAXXZ 0000000180001bcc f i Delayimp:delayhlp.obj
 0001:00000c78       ?DloadGetSRWLockFunctionPointers@@YAEXZ 0000000180001c78 f i Delayimp:delayhlp.obj
 0001:00000d18       ?DloadMakePermanentImageCommit@@YAXPEAX_K@Z 0000000180001d18 f i Delayimp:delayhlp.obj
 0001:00000db0       ?DloadObtainSection@@YAPEAXPEAK0@Z 0000000180001db0 f i Delayimp:delayhlp.obj
 0001:00000e4c       ?DloadProtectSection@@YAXKPEAK@Z 0000000180001e4c f i Delayimp:delayhlp.obj
 0001:00000edc       ?DloadReleaseSectionWriteAccess@@YAXXZ 0000000180001edc f i Delayimp:delayhlp.obj
 0001:00000f70       __delayLoadHelper2         0000000180001f70 f   Delayimp:delayhlp.obj
 0001:00001248       ??3@YAXPEAX@Z              0000000180002248 f   LIBCMT:delete_scalar.obj
 0001:00001250       ??3@YAXPEAX_K@Z            0000000180002250 f   LIBCMT:delete_scalar_size.obj
 0001:00001250       ??_V@YAXPEAX@Z             0000000180002250 f   LIBCMT:delete_array.obj
 0001:00001258       ??_V@YAXPEAX_K@Z           0000000180002258 f   LIBCMT:delete_array_size.obj
 0001:00001260       ??_Etype_info@@UEAAPEAXI@Z 0000000180002260 f i LIBCMT:std_type_info_static.obj
 0001:00001260       ??_Gtype_info@@UEAAPEAXI@Z 0000000180002260 f i LIBCMT:std_type_info_static.obj
 0001:0000128c       ?__scrt_initialize_type_info@@YAXXZ 000000018000228c f   LIBCMT:tncleanup.obj
 0001:0000129c       ?__scrt_uninitialize_type_info@@YAXXZ 000000018000229c f   LIBCMT:tncleanup.obj
 0001:000015c8       _DllMainCRTStartup         00000001800025c8 f   LIBCMT:dll_dllmain.obj
 0001:00001608       __security_init_cookie     0000000180002608 f   LIBCMT:gs_support.obj
 0001:000016b4       ?length@charNode@@UEBAHXZ  00000001800026b4 f   libvcruntime:undname.obj
 0001:000016b4       ?raw_length@charNode@@UEBAHXZ 00000001800026b4 f   libvcruntime:undname.obj
 0001:000016b4       DllMain                    00000001800026b4 f   LIBCMT:dll_dllmain_stub.obj
 0001:000016b4       _get_startup_argv_mode     00000001800026b4 f   LIBCMT:argv_mode.obj
 0001:000016bc       __local_stdio_printf_options 00000001800026bc f i LIBCMT:default_local_stdio_options.obj
 0001:000016c4       __local_stdio_scanf_options 00000001800026c4 f i LIBCMT:default_local_stdio_options.obj
 0001:000016cc       __scrt_initialize_default_local_stdio_options 00000001800026cc f   LIBCMT:default_local_stdio_options.obj
 0001:000016e8       __scrt_acquire_startup_lock 00000001800026e8 f   LIBCMT:utility.obj
 0001:00001724       __scrt_dllmain_after_initialize_c 0000000180002724 f   LIBCMT:utility.obj
 0001:00001758       __scrt_dllmain_before_initialize_c 0000000180002758 f   LIBCMT:utility.obj
 0001:00001770       __scrt_dllmain_crt_thread_attach 0000000180002770 f   LIBCMT:utility.obj
 0001:00001798       __scrt_dllmain_crt_thread_detach 0000000180002798 f   LIBCMT:utility.obj
 0001:000017b0       __scrt_dllmain_exception_filter 00000001800027b0 f   LIBCMT:utility.obj
 0001:00001810       __scrt_dllmain_uninitialize_c 0000000180002810 f   LIBCMT:utility.obj
 0001:00001840       __scrt_dllmain_uninitialize_critical 0000000180002840 f   LIBCMT:utility.obj
 0001:00001854       __scrt_initialize_crt      0000000180002854 f   LIBCMT:utility.obj
 0001:000018a0       __scrt_initialize_onexit_tables 00000001800028a0 f   LIBCMT:utility.obj
 0001:0000192c       __scrt_is_nonwritable_in_current_image 000000018000292c f   LIBCMT:utility.obj
 0001:000019c4       __scrt_release_startup_lock 00000001800029c4 f   LIBCMT:utility.obj
 0001:000019e8       __scrt_uninitialize_crt    00000001800029e8 f   LIBCMT:utility.obj
 0001:00001a14       __scrt_get_dyn_tls_init_callback 0000000180002a14 f   LIBCMT:dyn_tls_init.obj
 0001:00001a1c       __crt_debugger_hook        0000000180002a1c f   LIBCMT:utility_desktop.obj
 0001:00001a24       __scrt_fastfail            0000000180002a24 f   LIBCMT:utility_desktop.obj
 0001:00001b70       _RTC_Initialize            0000000180002b70 f   LIBCMT:initsect.obj
 0001:00001bac       _RTC_Terminate             0000000180002bac f   LIBCMT:initsect.obj
 0001:00001bf0       __isa_available_init       0000000180002bf0 f   LIBCMT:cpu_disp.obj
 0001:00001d9c       __scrt_is_ucrt_dll_in_use  0000000180002d9c f   LIBCMT:ucrt_detection.obj
 0001:00001da8       _get_purecall_handler      0000000180002da8 f   libvcruntime:purevirt.obj
 0001:00001db4       _purecall                  0000000180002db4 f   libvcruntime:purevirt.obj
 0001:00001dd8       __std_type_info_compare    0000000180002dd8 f   libvcruntime:std_type_info.obj
 0001:00001e00       __std_type_info_destroy_list 0000000180002e00 f   libvcruntime:std_type_info.obj
 0001:00001e2c       __std_type_info_name       0000000180002e2c f   libvcruntime:std_type_info.obj
 0001:00001f44       strstr                     0000000180002f44 f   libvcruntime:strstr.obj
 0001:0000213c       __C_specific_handler       000000018000313c f   libvcruntime:riscchandler.obj
 0001:00002334       __vcrt_initialize          0000000180003334 f   libvcruntime:initialization.obj
 0001:0000235c       __vcrt_thread_attach       000000018000335c f   libvcruntime:initialization.obj
 0001:00002370       __vcrt_thread_detach       0000000180003370 f   libvcruntime:initialization.obj
 0001:00002384       __vcrt_uninitialize        0000000180003384 f   libvcruntime:initialization.obj
 0001:000023a0       __vcrt_uninitialize_critical 00000001800033a0 f   libvcruntime:initialization.obj
 0001:000023b0       __DestructExceptionObject  00000001800033b0 f   libvcruntime:ehhelpers.obj
 0001:00002420       ?_CallMemberFunction0@@YAXQEAX0@Z 0000000180003420 f i libvcruntime:ehhelpers.obj
 0001:00002424       _IsExceptionObjectToBeDestroyed 0000000180003424 f   libvcruntime:ehhelpers.obj
 0001:00002454       __AdjustPointer            0000000180003454 f   libvcruntime:ehhelpers.obj
 0001:00002478       __FrameUnwindFilter        0000000180003478 f   libvcruntime:ehhelpers.obj
 0001:000024e0       __std_terminate            00000001800034e0 f   libvcruntime:ehhelpers.obj
 0001:00002500       memset_repstos             0000000180003500 f   libvcruntime:memset.obj
 0001:00002520       memset                     0000000180003520 f   libvcruntime:memset.obj
 0001:000028a8       ??$?0$00@DName@@QEAA@PEBDU?$StringLifeSelector@$00@@@Z 00000001800038a8 f i libvcruntime:undname.obj
 0001:000028e8       ??$?0$01@DName@@QEAA@PEBDU?$StringLifeSelector@$01@@@Z 00000001800038e8 f i libvcruntime:undname.obj
 0001:000028e8       ??$?0$0A@@DName@@QEAA@PEBDU?$StringLifeSelector@$0A@@@@Z 00000001800038e8 f i libvcruntime:undname.obj
 0001:00002928       ??$?0$01@pcharNode@@QEAA@PEBDHU?$StringLifeSelector@$01@@@Z 0000000180003928 f i libvcruntime:undname.obj
 0001:00002928       ??$?0$0A@@pcharNode@@QEAA@PEBDHU?$StringLifeSelector@$0A@@@@Z 0000000180003928 f i libvcruntime:undname.obj
 0001:0000299c       ??$append@VDNameNode@@@DName@@AEAAXPEBVDNameNode@@@Z 000000018000399c f i libvcruntime:undname.obj
 0001:0000299c       ??$append@VDNameStatusNode@@@DName@@AEAAXPEBVDNameStatusNode@@@Z 000000018000399c f i libvcruntime:undname.obj
 0001:0000299c       ??$append@VcharNode@@@DName@@AEAAXPEBVcharNode@@@Z 000000018000399c f i libvcruntime:undname.obj
 0001:0000299c       ??$append@VpcharNode@@@DName@@AEAAXPEBVpcharNode@@@Z 000000018000399c f i libvcruntime:undname.obj
 0001:00002a00       ??$doPchar@$00@DName@@AEAAXPEBDH@Z 0000000180003a00 f i libvcruntime:undname.obj
 0001:00002aa4       ??$doPchar@$01@DName@@AEAAXPEBDH@Z 0000000180003aa4 f i libvcruntime:undname.obj
 0001:00002aa4       ??$doPchar@$0A@@DName@@AEAAXPEBDH@Z 0000000180003aa4 f i libvcruntime:undname.obj
 0001:00002b3c       ??0DName@@QEAA@AEAPEBDD@Z  0000000180003b3c f   libvcruntime:undname.obj
 0001:00002bec       ??0DName@@QEAA@AEBUStringLiteral@@@Z 0000000180003bec f   libvcruntime:undname.obj
 0001:00002c18       ??0DName@@QEAA@PEAV0@@Z    0000000180003c18 f   libvcruntime:undname.obj
 0001:00002c9c       ??0DName@@QEAA@_J@Z        0000000180003c9c f   libvcruntime:undname.obj
 0001:00002d44       ??0DName@@QEAA@_K@Z        0000000180003d44 f   libvcruntime:undname.obj
 0001:00002dd4       ??2@YAPEAX_KAEAV_HeapManager@@H@Z 0000000180003dd4 f   libvcruntime:undname.obj
 0001:00002e00       ??4DName@@QEAAAEAV0@W4DNameStatus@@@Z 0000000180003e00 f   libvcruntime:undname.obj
 0001:00002e30       ??AReplicator@@QEBA?AVDName@@H@Z 0000000180003e30 f   libvcruntime:undname.obj
 0001:00002e70       ??HDName@@QEBA?AV0@AEBUStringLiteral@@@Z 0000000180003e70 f   libvcruntime:undname.obj
 0001:00002e9c       ??HDName@@QEBA?AV0@AEBV0@@Z 0000000180003e9c f   libvcruntime:undname.obj
 0001:00002ec8       ??HDName@@QEBA?AV0@D@Z     0000000180003ec8 f   libvcruntime:undname.obj
 0001:00002ef4       ??HDName@@QEBA?AV0@W4DNameStatus@@@Z 0000000180003ef4 f   libvcruntime:undname.obj
 0001:00002f20       ??YDName@@QEAAAEAV0@AEBUStringLiteral@@@Z 0000000180003f20 f   libvcruntime:undname.obj
 0001:00002fa0       ??YDName@@QEAAAEAV0@AEBV0@@Z 0000000180003fa0 f   libvcruntime:undname.obj
 0001:00002ff8       ??YDName@@QEAAAEAV0@D@Z    0000000180003ff8 f   libvcruntime:undname.obj
 0001:00003064       ??YDName@@QEAAAEAV0@W4DNameStatus@@@Z 0000000180004064 f   libvcruntime:undname.obj
 0001:000030bc       ??YReplicator@@QEAAAEAV0@AEBVDName@@@Z 00000001800040bc f   libvcruntime:undname.obj
 0001:00003114       ?UScore@UnDecorator@@SA?AUStringLiteral@@W4Tokens@@@Z 0000000180004114 f   libvcruntime:undname.obj
 0001:00003160       ?composeDeclaration@UnDecorator@@CA?AVDName@@AEBV2@@Z 0000000180004160 f i libvcruntime:undname.obj
 0001:00004054       ?doPchar@DName@@AEAAXD@Z   0000000180005054 f   libvcruntime:undname.obj
 0001:000040a4       ?getAddressOf@UnDecorator@@CA?AVDName@@XZ 00000001800050a4 f   libvcruntime:undname.obj
 0001:00004134       ?getArgumentList@UnDecorator@@CA?AVDName@@XZ 0000000180005134 f   libvcruntime:undname.obj
 0001:000042e8       ?getArgumentTypes@UnDecorator@@CA?AVDName@@XZ 00000001800052e8 f   libvcruntime:undname.obj
 0001:00004434       ?getArrayAccess@UnDecorator@@CA?AVDName@@XZ 0000000180005434 f   libvcruntime:undname.obj
 0001:000044d0       ?getArrayObject@UnDecorator@@CA?AVDName@@XZ 00000001800054d0 f   libvcruntime:undname.obj
 0001:0000458c       ?getArrayType@UnDecorator@@CA?AVDName@@AEBV2@@Z 000000018000558c f i libvcruntime:undname.obj
 0001:000047f8       ?getBasedType@UnDecorator@@CA?AVDName@@XZ 00000001800057f8 f   libvcruntime:undname.obj
 0001:000048f0       ?getBasicDataType@UnDecorator@@CA?AVDName@@AEBV2@@Z 00000001800058f0 f   libvcruntime:undname.obj
 0001:00004ef4       ?getCallingConvention@UnDecorator@@CA?AVDName@@XZ 0000000180005ef4 f   libvcruntime:undname.obj
 0001:0000502c       ?getDataIndirectType@UnDecorator@@CA?AVDName@@AEBV2@W4IndirectionKind@@0H@Z 000000018000602c f   libvcruntime:undname.obj
 0001:00005950       ?getDataType@UnDecorator@@CA?AVDName@@PEAV2@@Z 0000000180006950 f   libvcruntime:undname.obj
 0001:00005a64       ?getDecoratedName@UnDecorator@@CA?AVDName@@XZ 0000000180006a64 f   libvcruntime:undname.obj
 0001:00005d4c       ?getDimension@UnDecorator@@CA?AVDName@@_N@Z 0000000180006d4c f   libvcruntime:undname.obj
 0001:00005e94       ?getDispatchTarget@UnDecorator@@CA?AVDName@@XZ 0000000180006e94 f   libvcruntime:undname.obj
 0001:00005ef4       ?getECSUDataType@UnDecorator@@CA?AVDName@@XZ 0000000180006ef4 f   libvcruntime:undname.obj
 0001:000060f0       ?getEnumType@UnDecorator@@CA?AVDName@@XZ 00000001800070f0 f i libvcruntime:undname.obj
 0001:00006220       ?getExtendedDataIndirectType@UnDecorator@@CA?AVDName@@AEAW4IndirectionKind@@AEA_NH@Z 0000000180007220 f   libvcruntime:undname.obj
 0001:00006424       ?getExternalDataType@UnDecorator@@CA?AVDName@@AEBV2@@Z 0000000180007424 f i libvcruntime:undname.obj
 0001:000064e4       ?getFloatingPoint@UnDecorator@@CA?AVDName@@H@Z 00000001800074e4 f   libvcruntime:undname.obj
 0001:0000664c       ?getFunctionIndirectType@UnDecorator@@CA?AVDName@@AEBV2@@Z 000000018000764c f   libvcruntime:undname.obj
 0001:00006b80       ?getLastChar@DNameStatusNode@@UEBADXZ 0000000180007b80 f i libvcruntime:undname.obj
 0001:00006b8c       ?getLastChar@charNode@@UEBADXZ 0000000180007b8c f i libvcruntime:undname.obj
 0001:00006b90       ?getLastChar@pDNameNode@@UEBADXZ 0000000180007b90 f i libvcruntime:undname.obj
 0001:00006bbc       ?getLastChar@pairNode@@UEBADXZ 0000000180007bbc f i libvcruntime:undname.obj
 0001:00006bf4       ?getLastChar@pcharNode@@UEBADXZ 0000000180007bf4 f i libvcruntime:undname.obj
 0001:00006c08       ?getLexicalFrame@UnDecorator@@CA?AVDName@@XZ 0000000180007c08 f i libvcruntime:undname.obj
 0001:00006c6c       ?getMemberAccess@UnDecorator@@CA?AVDName@@XZ 0000000180007c6c f   libvcruntime:undname.obj
 0001:00006d00       ?getMemoryWithBuffer@_HeapManager@@QEAAPEAX_K@Z 0000000180007d00 f   libvcruntime:undname.obj
 0001:00006d90       ?getNoexcept@UnDecorator@@CA?AVDName@@XZ 0000000180007d90 f   libvcruntime:undname.obj
 0001:00006df4       ?getNumberOfDimensions@UnDecorator@@CAHXZ 0000000180007df4 f   libvcruntime:undname.obj
 0001:00006e5c       ?getOperatorName@UnDecorator@@CA?AVDName@@_NPEA_N@Z 0000000180007e5c f i libvcruntime:undname.obj
 0001:0000780c       ?getPointerToMember@UnDecorator@@CA?AVDName@@XZ 000000018000880c f   libvcruntime:undname.obj
 0001:00007904       ?getPrimaryDataType@UnDecorator@@CA?AVDName@@AEBV2@@Z 0000000180008904 f   libvcruntime:undname.obj
 0001:00007bbc       ?getPtrRefDataType@UnDecorator@@CA?AVDName@@AEBV2@H@Z 0000000180008bbc f   libvcruntime:undname.obj
 0001:00007d88       ?getPtrRefType@UnDecorator@@CA?AVDName@@AEBV2@0W4IndirectionKind@@@Z 0000000180008d88 f   libvcruntime:undname.obj
 0001:00007f60       ?getRestrictionSpec@UnDecorator@@CA?AVDName@@XZ 0000000180008f60 f   libvcruntime:undname.obj
 0001:0000813c       ?getReturnType@UnDecorator@@CA?AVDName@@PEAV2@@Z 000000018000913c f   libvcruntime:undname.obj
 0001:00008170       ?getScope@UnDecorator@@CA?AVDName@@XZ 0000000180009170 f   libvcruntime:undname.obj
 0001:00008628       ?getScopedName@UnDecorator@@CA?AVDName@@XZ 0000000180009628 f   libvcruntime:undname.obj
 0001:00008768       ?getSignedDimension@UnDecorator@@CA?AVDName@@XZ 0000000180009768 f   libvcruntime:undname.obj
 0001:000087f0       ?getString@DNameStatusNode@@UEBAPEADPEAD0@Z 00000001800097f0 f i libvcruntime:undname.obj
 0001:00008838       ?getString@charNode@@UEBAPEADPEAD0@Z 0000000180009838 f i libvcruntime:undname.obj
 0001:0000884c       ?getString@pDNameNode@@UEBAPEADPEAD0@Z 000000018000984c f i libvcruntime:undname.obj
 0001:0000887c       ?getString@pairNode@@UEBAPEADPEAD0@Z 000000018000987c f i libvcruntime:undname.obj
 0001:000088c8       ?getString@pcharNode@@UEBAPEADPEAD0@Z 00000001800098c8 f i libvcruntime:undname.obj
 0001:00008900       ?getStringEncoding@UnDecorator@@CA?AVDName@@W4PrefixKind@@H@Z 0000000180009900 f   libvcruntime:undname.obj
 0001:00008a10       ?getStringObject@UnDecorator@@CA?AVDName@@XZ 0000000180009a10 f   libvcruntime:undname.obj
 0001:00008a78       ?getSymbolName@UnDecorator@@CA?AVDName@@XZ 0000000180009a78 f i libvcruntime:undname.obj
 0001:00008ac4       ?getTemplateArgumentList@UnDecorator@@CA?AVDName@@XZ 0000000180009ac4 f   libvcruntime:undname.obj
 0001:00008ce0       ?getTemplateName@UnDecorator@@CA?AVDName@@_N@Z 0000000180009ce0 f   libvcruntime:undname.obj
 0001:00008f74       ?getTemplateNonTypeArgument@UnDecorator@@CA?AVDName@@XZ 0000000180009f74 f   libvcruntime:undname.obj
 0001:000094c4       ?getTemplateTypeArgument@UnDecorator@@CA?AVDName@@XZ 000000018000a4c4 f   libvcruntime:undname.obj
 0001:0000962c       ?getThrowTypes@UnDecorator@@CA?AVDName@@XZ 000000018000a62c f   libvcruntime:undname.obj
 0001:00009650       ?getTypeEncoding@UnDecorator@@CAHXZ 000000018000a650 f i libvcruntime:undname.obj
 0001:00009a0c       ?getUndecoratedName@UnDecorator@@QEAAPEADPEADH@Z 000000018000aa0c f i libvcruntime:undname.obj
 0001:00009b60       ?getUnionObject@UnDecorator@@CA?AVDName@@XZ 000000018000ab60 f   libvcruntime:undname.obj
 0001:00009c38       ?getVCallThunkType@UnDecorator@@CA?AVDName@@XZ 000000018000ac38 f i libvcruntime:undname.obj
 0001:00009cb0       ?getValue@UnDecorator@@CA?AV?$optional@_K@std@@XZ 000000018000acb0 f   libvcruntime:undname.obj
 0001:00009d00       ?getValueObject@UnDecorator@@CA?AVDName@@XZ 000000018000ad00 f   libvcruntime:undname.obj
 0001:00009e40       ?getVdispMapType@UnDecorator@@CA?AVDName@@AEBV2@@Z 000000018000ae40 f i libvcruntime:undname.obj
 0001:00009ebc       ?getVfTableType@UnDecorator@@CA?AVDName@@AEBV2@@Z 000000018000aebc f i libvcruntime:undname.obj
 0001:0000a0c8       ?getZName@UnDecorator@@CA?AVDName@@_N0@Z 000000018000b0c8 f   libvcruntime:undname.obj
 0001:0000a39c       ?length@DNameStatusNode@@UEBAHXZ 000000018000b39c f i libvcruntime:undname.obj
 0001:0000a39c       ?raw_length@DNameStatusNode@@UEBAHXZ 000000018000b39c f i libvcruntime:undname.obj
 0001:0000a3a0       ?length@pDNameNode@@UEBAHXZ 000000018000b3a0 f i libvcruntime:undname.obj
 0001:0000a3c8       ?length@pairNode@@UEBAHXZ  000000018000b3c8 f i libvcruntime:undname.obj
 0001:0000a410       ?length@pcharNode@@UEBAHXZ 000000018000b410 f i libvcruntime:undname.obj
 0001:0000a410       ?raw_length@pcharNode@@UEBAHXZ 000000018000b410 f i libvcruntime:undname.obj
 0001:0000a414       ?parseDecoratedName@UnDecorator@@CA?AVDName@@XZ 000000018000b414 f   libvcruntime:undname.obj
 0001:0000a52c       ?raw_length@pDNameNode@@UEBAHXZ 000000018000b52c f i libvcruntime:undname.obj
 0001:0000a530       ?raw_length@pairNode@@UEBAHXZ 000000018000b530 f i libvcruntime:undname.obj
 0001:0000a534       __unDName                  000000018000b534 f   libvcruntime:undname.obj
 0001:0000a55c       __unDNameEx                000000018000b55c f   libvcruntime:undname.obj
 0001:0000a690       snprintf                   000000018000b690 f i libvcruntime:undname.obj
 0001:0000a6e8       sprintf_s                  000000018000b6e8 f i libvcruntime:undname.obj
 0001:0000a750       _NLG_Notify                000000018000b750 f   libvcruntime:notify.obj
 0001:0000a770       __NLG_Dispatch2            000000018000b770 f   libvcruntime:notify.obj
 0001:0000a780       __NLG_Return2              000000018000b780 f   libvcruntime:notify.obj
 0001:0000a784       __except_validate_context_record 000000018000b784 f   libvcruntime:jbcxrval.obj
 0001:0000a7d0       memcpy_repmovs             000000018000b7d0 f   libvcruntime:memcpy.obj
 0001:0000a7f0       memcpy                     000000018000b7f0 f   libvcruntime:memcpy.obj
 0001:0000a7f0       memmove                    000000018000b7f0 f   libvcruntime:memcpy.obj
 0001:0000ae68       __vcrt_freefls             000000018000be68 f   libvcruntime:per_thread_data.obj
 0001:0000ae88       __vcrt_freeptd             000000018000be88 f   libvcruntime:per_thread_data.obj
 0001:0000aed8       __vcrt_getptd              000000018000bed8 f   libvcruntime:per_thread_data.obj
 0001:0000aef4       __vcrt_getptd_noexit       000000018000bef4 f   libvcruntime:per_thread_data.obj
 0001:0000afb4       __vcrt_initialize_ptd      000000018000bfb4 f   libvcruntime:per_thread_data.obj
 0001:0000affc       __vcrt_uninitialize_ptd    000000018000bffc f   libvcruntime:per_thread_data.obj
 0001:0000b020       __vcrt_initialize_locks    000000018000c020 f   libvcruntime:locks.obj
 0001:0000b068       __vcrt_lock                000000018000c068 f   libvcruntime:locks.obj
 0001:0000b084       __vcrt_uninitialize_locks  000000018000c084 f   libvcruntime:locks.obj
 0001:0000b0bc       __vcrt_unlock              000000018000c0bc f   libvcruntime:locks.obj
 0001:0000b0d8       ??$_CallSETranslator@V__FrameHandler3@@@@YAHPEAUEHExceptionRecord@@PEA_KPEAU_CONTEXT@@PEAU_xDISPATCHER_CONTEXT@@PEBU_s_FuncInfo@@K1H@Z 000000018000c0d8 f i libvcruntime:risctrnsctrl.obj
 0001:0000b12c       ??$_CallSETranslator@V__FrameHandler4@@@@YAHPEAUEHExceptionRecord@@PEA_KPEAU_CONTEXT@@PEAU_xDISPATCHER_CONTEXT@@PEAUFuncInfo4@FH4@@K1H@Z 000000018000c12c f i libvcruntime:risctrnsctrl.obj
 0001:0000b180       ?CatchTryBlock@__FrameHandler3@@SAPEBU_s_TryBlockMapEntry@@PEBU_s_FuncInfo@@H@Z 000000018000c180 f   libvcruntime:risctrnsctrl.obj
 0001:0000b1e4       ?DecompFuncInfo@FH4@@YA_JPEAEAEAUFuncInfo4@1@_KH_N@Z 000000018000c1e4 f i libvcruntime:risctrnsctrl.obj
 0001:0000b318       ?ExecutionInCatch@__FrameHandler3@@SA_NPEAU_xDISPATCHER_CONTEXT@@PEBU_s_FuncInfo@@@Z 000000018000c318 f   libvcruntime:risctrnsctrl.obj
 0001:0000b344       ?ExecutionInCatch@__FrameHandler4@@SA_NPEAU_xDISPATCHER_CONTEXT@@PEAUFuncInfo4@FH4@@@Z 000000018000c344 f   libvcruntime:risctrnsctrl.obj
 0001:0000b34c       ?FrameUnwindToEmptyState@__FrameHandler3@@SAXPEA_KPEAU_xDISPATCHER_CONTEXT@@PEBU_s_FuncInfo@@@Z 000000018000c34c f   libvcruntime:risctrnsctrl.obj
 0001:0000b3b0       ?FrameUnwindToEmptyState@__FrameHandler4@@SAXPEA_KPEAU_xDISPATCHER_CONTEXT@@PEAUFuncInfo4@FH4@@@Z 000000018000c3b0 f   libvcruntime:risctrnsctrl.obj
 0001:0000b3e4       ?GetEstablisherFrame@__FrameHandler3@@SAPEA_KPEA_KPEAU_xDISPATCHER_CONTEXT@@PEBU_s_FuncInfo@@0@Z 000000018000c3e4 f   libvcruntime:risctrnsctrl.obj
 0001:0000b4b0       ?GetEstablisherFrame@__FrameHandler4@@SAPEA_KPEA_KPEAU_xDISPATCHER_CONTEXT@@PEAUFuncInfo4@FH4@@0@Z 000000018000c4b0 f   libvcruntime:risctrnsctrl.obj
 0001:0000b4d4       ?GetRangeOfTrysToCheck@__FrameHandler3@@SA?AU?$pair@Viterator@TryBlockMap@__FrameHandler3@@V123@@std@@AEAVTryBlockMap@1@HPEAU_xDISPATCHER_CONTEXT@@PEBU_s_FuncInfo@@H@Z 000000018000c4d4 f   libvcruntime:risctrnsctrl.obj
 0001:0000b614       ?GetRangeOfTrysToCheck@__FrameHandler4@@SA?AU?$pair@Viterator@TryBlockMap4@FH4@@V123@@std@@AEAVTryBlockMap4@FH4@@HPEAU_xDISPATCHER_CONTEXT@@PEAUFuncInfo4@5@H@Z 000000018000c614 f   libvcruntime:risctrnsctrl.obj
 0001:0000b780       ?UnwindNestedFrames@__FrameHandler3@@SAXPEA_KPEAUEHExceptionRecord@@PEAU_CONTEXT@@0PEAXPEBU_s_FuncInfo@@HHPEBU_s_HandlerType@@PEAU_xDISPATCHER_CONTEXT@@E@Z 000000018000c780 f   libvcruntime:risctrnsctrl.obj
 0001:0000b884       ?UnwindNestedFrames@__FrameHandler4@@SAXPEA_KPEAUEHExceptionRecord@@PEAU_CONTEXT@@0PEAXPEAUFuncInfo4@FH4@@HHPEAUHandlerType4@5@PEAU_xDISPATCHER_CONTEXT@@E@Z 000000018000c884 f   libvcruntime:risctrnsctrl.obj
 0001:0000b9a4       ?setBuffer@TryBlockMap4@FH4@@QEAAXViterator@12@@Z 000000018000c9a4 f i libvcruntime:risctrnsctrl.obj
 0001:0000bb68       _CreateFrameInfo           000000018000cb68 f   libvcruntime:risctrnsctrl.obj
 0001:0000bba4       _FindAndUnlinkFrame        000000018000cba4 f   libvcruntime:risctrnsctrl.obj
 0001:0000bbf8       _GetImageBase              000000018000cbf8 f   libvcruntime:risctrnsctrl.obj
 0001:0000bc0c       _GetThrowImageBase         000000018000cc0c f   libvcruntime:risctrnsctrl.obj
 0001:0000bc20       _SetImageBase              000000018000cc20 f   libvcruntime:risctrnsctrl.obj
 0001:0000bc38       _SetThrowImageBase         000000018000cc38 f   libvcruntime:risctrnsctrl.obj
 0001:0000bc50       __CxxFrameHandler3         000000018000cc50 f   libvcruntime:risctrnsctrl.obj
 0001:0000bcd8       __CxxFrameHandler4         000000018000ccd8 f   libvcruntime:risctrnsctrl.obj
 0001:0000bee8       __vcrt_FlsAlloc            000000018000cee8 f   libvcruntime:winapi_downlevel.obj
 0001:0000bf30       __vcrt_FlsFree             000000018000cf30 f   libvcruntime:winapi_downlevel.obj
 0001:0000bf78       __vcrt_FlsGetValue         000000018000cf78 f   libvcruntime:winapi_downlevel.obj
 0001:0000bfc0       __vcrt_FlsSetValue         000000018000cfc0 f   libvcruntime:winapi_downlevel.obj
 0001:0000c014       __vcrt_InitializeCriticalSectionEx 000000018000d014 f   libvcruntime:winapi_downlevel.obj
 0001:0000c078       ?GetCurrentState@__FrameHandler3@@SAHPEA_KPEAU_xDISPATCHER_CONTEXT@@PEBU_s_FuncInfo@@@Z 000000018000d078 f   libvcruntime:ehstate.obj
 0001:0000c0a0       ?GetUnwindTryBlock@__FrameHandler3@@SAHPEA_KPEAU_xDISPATCHER_CONTEXT@@PEBU_s_FuncInfo@@@Z 000000018000d0a0 f   libvcruntime:ehstate.obj
 0001:0000c0cc       ?SetState@__FrameHandler3@@SAXPEA_KPEBU_s_FuncInfo@@H@Z 000000018000d0cc f   libvcruntime:ehstate.obj
 0001:0000c0d8       ?SetUnwindTryBlock@__FrameHandler3@@SAXPEA_KPEAU_xDISPATCHER_CONTEXT@@PEBU_s_FuncInfo@@H@Z 000000018000d0d8 f   libvcruntime:ehstate.obj
 0001:0000c114       ?StateFromControlPc@__FrameHandler3@@SAHPEBU_s_FuncInfo@@PEAU_xDISPATCHER_CONTEXT@@@Z 000000018000d114 f   libvcruntime:ehstate.obj
 0001:0000c11c       ?StateFromControlPc@__FrameHandler4@@SAHPEAUFuncInfo4@FH4@@PEAU_xDISPATCHER_CONTEXT@@@Z 000000018000d11c f   libvcruntime:ehstate.obj
 0001:0000c124       ?StateFromIp@__FrameHandler3@@SAHPEBU_s_FuncInfo@@PEAU_xDISPATCHER_CONTEXT@@_K@Z 000000018000d124 f   libvcruntime:ehstate.obj
 0001:0000c18c       ?StateFromIp@__FrameHandler4@@SAHPEAUFuncInfo4@FH4@@PEAU_xDISPATCHER_CONTEXT@@_K@Z 000000018000d18c f   libvcruntime:ehstate.obj
 0001:0000d88c       ??$TypeMatchHelper@V__FrameHandler3@@@@YAHPEBU_s_HandlerType@@PEBU_s_CatchableType@@PEBU_s_ThrowInfo@@@Z 000000018000e88c f i libvcruntime:frame.obj
 0001:0000d9cc       ??$TypeMatchHelper@V__FrameHandler4@@@@YAHPEAUHandlerType4@FH4@@PEBU_s_CatchableType@@PEBU_s_ThrowInfo@@@Z 000000018000e9cc f i libvcruntime:frame.obj
 0001:0000db10       ??$__InternalCxxFrameHandler@V__FrameHandler3@@@@YA?AW4_EXCEPTION_DISPOSITION@@PEAUEHExceptionRecord@@PEA_KPEAU_CONTEXT@@PEAU_xDISPATCHER_CONTEXT@@PEBU_s_FuncInfo@@H1E@Z 000000018000eb10 f i libvcruntime:frame.obj
 0001:0000dd48       ??$__InternalCxxFrameHandler@V__FrameHandler4@@@@YA?AW4_EXCEPTION_DISPOSITION@@PEAUEHExceptionRecord@@PEA_KPEAU_CONTEXT@@PEAU_xDISPATCHER_CONTEXT@@PEAUFuncInfo4@FH4@@H1E@Z 000000018000ed48 f i libvcruntime:frame.obj
 0001:0000dfdc       ??$__InternalCxxFrameHandlerWrapper@V__FrameHandler3@@@@YA?AW4_EXCEPTION_DISPOSITION@@PEAUEHExceptionRecord@@PEA_KPEAU_CONTEXT@@PEAU_xDISPATCHER_CONTEXT@@PEBU_s_FuncInfo@@H1E@Z 000000018000efdc f i libvcruntime:frame.obj
 0001:0000dfe4       ??$__InternalCxxFrameHandlerWrapper@V__FrameHandler4@@@@YA?AW4_EXCEPTION_DISPOSITION@@PEAUEHExceptionRecord@@PEA_KPEAU_CONTEXT@@PEAU_xDISPATCHER_CONTEXT@@PEAUFuncInfo4@FH4@@H1E@Z 000000018000efe4 f i libvcruntime:frame.obj
 0001:0000e040       ??0HandlerMap4@FH4@@QEAA@PEBUTryBlockMapEntry4@1@_KH@Z 000000018000f040 f i libvcruntime:frame.obj
 0001:0000e0bc       ??0TryBlockMap4@FH4@@QEAA@PEBUFuncInfo4@1@_K@Z 000000018000f0bc f i libvcruntime:frame.obj
 0001:0000e194       ??0bad_exception@std@@QEAA@AEBV01@@Z 000000018000f194 f i libvcruntime:frame.obj
 0001:0000e1d0       ??0bad_exception@std@@QEAA@XZ 000000018000f1d0 f i libvcruntime:frame.obj
 0001:0000e1f0       ??0exception@std@@QEAA@AEBV01@@Z 000000018000f1f0 f i libvcruntime:frame.obj
 0001:0000e224       ??1bad_exception@std@@UEAA@XZ 000000018000f224 f i libvcruntime:frame.obj
 0001:0000e238       ??_Ebad_exception@std@@UEAAPEAXI@Z 000000018000f238 f i libvcruntime:frame.obj
 0001:0000e238       ??_Eexception@std@@UEAAPEAXI@Z 000000018000f238 f i libvcruntime:frame.obj
 0001:0000e238       ??_Gbad_exception@std@@UEAAPEAXI@Z 000000018000f238 f i libvcruntime:frame.obj
 0001:0000e238       ??_Gexception@std@@UEAAPEAXI@Z 000000018000f238 f i libvcruntime:frame.obj
 0001:0000e27c       ?CxxCallCatchBlock@__FrameHandler3@@SAPEAXPEAU_EXCEPTION_RECORD@@@Z 000000018000f27c f   libvcruntime:frame.obj
 0001:0000e468       ?CxxCallCatchBlock@__FrameHandler4@@SAPEAXPEAU_EXCEPTION_RECORD@@@Z 000000018000f468 f   libvcruntime:frame.obj
 0001:0000e6b8       ?DecompHandler@HandlerMap4@FH4@@AEAAXXZ 000000018000f6b8 f i libvcruntime:frame.obj
 0001:0000e904       ?FrameUnwindToState@__FrameHandler3@@SAXPEA_KPEAU_xDISPATCHER_CONTEXT@@PEBU_s_FuncInfo@@H@Z 000000018000f904 f   libvcruntime:frame.obj
 0001:0000ea90       ?FrameUnwindToState@__FrameHandler4@@SAXPEA_KPEAU_xDISPATCHER_CONTEXT@@PEAUFuncInfo4@FH4@@H@Z 000000018000fa90 f   libvcruntime:frame.obj
 0001:0000ed8c       ?GetHandlerSearchState@__FrameHandler3@@SAHPEA_KPEAU_xDISPATCHER_CONTEXT@@PEBU_s_FuncInfo@@@Z 000000018000fd8c f i libvcruntime:frame.obj
 0001:0000ef9c       ?ReadEntry@UWMap4@FH4@@AEAAXPEAPEAE@Z 000000018000ff9c f i libvcruntime:frame.obj
 0001:0000f038       ?_CallMemberFunction1@@YAXQEAX00@Z 0000000180010038 f i libvcruntime:frame.obj
 0001:0000f044       ?_CallMemberFunction2@@YAXQEAX00H@Z 0000000180010044 f i libvcruntime:frame.obj
 0001:0000f054       ?getStartStop@UWMap4@FH4@@QEAAXHHAEAViterator@12@0@Z 0000000180010054 f i libvcruntime:frame.obj
 0001:0000f124       ?getStateFromIterators@UWMap4@FH4@@SAHAEBViterator@12@H0H0@Z 0000000180010124 f i libvcruntime:frame.obj
 0001:0000f1d4       ?what@exception@std@@UEBAPEBDXZ 00000001800101d4 f i libvcruntime:frame.obj
 0001:0000f200       _CallSettingFrame          0000000180010200 f   libvcruntime:handlers.obj
 0001:0000f250       _CallSettingFrame_LookupContinuationIndex 0000000180010250 f   libvcruntime:handlers.obj
 0001:0000f280       _CallSettingFrame_NotifyContinuationAddr 0000000180010280 f   libvcruntime:handlers.obj
 0001:0000f2b0       _CallSettingFrameEncoded   00000001800102b0 f   libvcruntime:handlers.obj
 0001:0000f2f8       __std_exception_copy       00000001800102f8 f   libvcruntime:std_exception.obj
 0001:0000f388       __std_exception_destroy    0000000180010388 f   libvcruntime:std_exception.obj
 0001:0000f3b0       _CxxThrowException         00000001800103b0 f   libvcruntime:throw.obj
 0001:0000f450       _local_unwind              0000000180010450 f   libvcruntime:jmpuwind.obj
 0001:0000f47c       free                       000000018001047c f   libucrt:free.obj
 0001:0000f490       _initterm                  0000000180010490 f   libucrt:initterm.obj
 0001:0000f4d4       _initterm_e                00000001800104d4 f   libucrt:initterm.obj
 0001:0000f51c       _seh_filter_dll            000000018001051c f   libucrt:exception_filter.obj
 0001:0000f530       _seh_filter_exe            0000000180010530 f   libucrt:exception_filter.obj
 0001:0000f948       __acrt_initialize_thread_local_exit_callback 0000000180010948 f   libucrt:exit.obj
 0001:0000f950       _cexit                     0000000180010950 f   libucrt:exit.obj
 0001:0000f960       _exit                      0000000180010960 f   libucrt:exit.obj
 0001:0000f96c       _is_c_termination_complete 000000018001096c f   libucrt:exit.obj
 0001:0000fb3c       __acrt_allocate_buffer_for_argv 0000000180010b3c f   libucrt:argv_parsing.obj
 0001:0000fb9c       _configure_narrow_argv     0000000180010b9c f   libucrt:argv_parsing.obj
 0001:0000ff24       __dcrt_uninitialize_environments_nolock 0000000180010f24 f   libucrt:environment_initialization.obj
 0001:0000ff68       _initialize_narrow_environment 0000000180010f68 f   libucrt:environment_initialization.obj
 0001:000100cc       _execute_onexit_table      00000001800110cc f   libucrt:onexit.obj
 0001:00010110       _initialize_onexit_table   0000000180011110 f   libucrt:onexit.obj
 0001:00010170       __acrt_uninitialize_command_line 0000000180011170 f   libucrt:argv_data.obj
 0001:00010268       __acrt_initialize          0000000180011268 f   libucrt:initialization.obj
 0001:0001027c       __acrt_thread_attach       000000018001127c f   libucrt:initialization.obj
 0001:00010290       __acrt_thread_detach       0000000180011290 f   libucrt:initialization.obj
 0001:000102a0       __acrt_uninitialize        00000001800112a0 f   libucrt:initialization.obj
 0001:000102d8       __acrt_uninitialize_critical 00000001800112d8 f   libucrt:initialization.obj
 0001:000102e8       terminate                  00000001800112e8 f   libucrt:terminate.obj
 0001:00010314       abort                      0000000180011314 f   libucrt:abort.obj
 0001:0001036c       malloc                     000000018001136c f   libucrt:malloc.obj
 0001:00010374       strcpy_s                   0000000180011374 f   libucrt:strcpy_s.obj
 0001:00010584       ??$ensure_buffer_is_big_enough@D@formatting_buffer@__crt_stdio_output@@QEAA_N_KAEAV__crt_cached_ptd_host@@@Z 0000000180011584 f i libucrt:output.obj
 0001:0001062c       ??$parse_integer@KV?$c_string_character_source@D@__crt_strtox@@$0A@@__crt_strtox@@YAKAEAV__crt_cached_ptd_host@@V?$c_string_character_source@D@0@H_N@Z 000000018001162c f i libucrt:output.obj
 0001:000108e0       ??$type_case_integer@$07@?$output_processor@DV?$string_output_adapter@D@__crt_stdio_output@@V?$format_validation_base@DV?$string_output_adapter@D@__crt_stdio_output@@@2@@__crt_stdio_output@@AEAA_N_N@Z 00000001800118e0 f i libucrt:output.obj
 0001:000108e0       ??$type_case_integer@$07@?$output_processor@DV?$string_output_adapter@D@__crt_stdio_output@@V?$standard_base@DV?$string_output_adapter@D@__crt_stdio_output@@@2@@__crt_stdio_output@@AEAA_N_N@Z 00000001800118e0 f i libucrt:output.obj
 0001:00010ae4       ??$type_case_integer@$09@?$output_processor@DV?$string_output_adapter@D@__crt_stdio_output@@V?$format_validation_base@DV?$string_output_adapter@D@__crt_stdio_output@@@2@@__crt_stdio_output@@AEAA_N_N@Z 0000000180011ae4 f i libucrt:output.obj
 0001:00010ae4       ??$type_case_integer@$09@?$output_processor@DV?$string_output_adapter@D@__crt_stdio_output@@V?$standard_base@DV?$string_output_adapter@D@__crt_stdio_output@@@2@@__crt_stdio_output@@AEAA_N_N@Z 0000000180011ae4 f i libucrt:output.obj
 0001:00010ce8       ??$type_case_integer@$0BA@@?$output_processor@DV?$string_output_adapter@D@__crt_stdio_output@@V?$format_validation_base@DV?$string_output_adapter@D@__crt_stdio_output@@@2@@__crt_stdio_output@@AEAA_N_N@Z 0000000180011ce8 f i libucrt:output.obj
 0001:00010ce8       ??$type_case_integer@$0BA@@?$output_processor@DV?$string_output_adapter@D@__crt_stdio_output@@V?$standard_base@DV?$string_output_adapter@D@__crt_stdio_output@@@2@@__crt_stdio_output@@AEAA_N_N@Z 0000000180011ce8 f i libucrt:output.obj
 0001:00010eec       ??$type_case_integer_parse_into_buffer@I$07@?$output_processor@DV?$string_output_adapter@D@__crt_stdio_output@@V?$format_validation_base@DV?$string_output_adapter@D@__crt_stdio_output@@@2@@__crt_stdio_output@@AEAAXI_N@Z 0000000180011eec f i libucrt:output.obj
 0001:00010eec       ??$type_case_integer_parse_into_buffer@I$07@?$output_processor@DV?$string_output_adapter@D@__crt_stdio_output@@V?$standard_base@DV?$string_output_adapter@D@__crt_stdio_output@@@2@@__crt_stdio_output@@AEAAXI_N@Z 0000000180011eec f i libucrt:output.obj
 0001:00010f5c       ??$type_case_integer_parse_into_buffer@I$09@?$output_processor@DV?$string_output_adapter@D@__crt_stdio_output@@V?$format_validation_base@DV?$string_output_adapter@D@__crt_stdio_output@@@2@@__crt_stdio_output@@AEAAXI_N@Z 0000000180011f5c f i libucrt:output.obj
 0001:00010f5c       ??$type_case_integer_parse_into_buffer@I$09@?$output_processor@DV?$string_output_adapter@D@__crt_stdio_output@@V?$standard_base@DV?$string_output_adapter@D@__crt_stdio_output@@@2@@__crt_stdio_output@@AEAAXI_N@Z 0000000180011f5c f i libucrt:output.obj
 0001:00011008       ??$type_case_integer_parse_into_buffer@I$0BA@@?$output_processor@DV?$string_output_adapter@D@__crt_stdio_output@@V?$format_validation_base@DV?$string_output_adapter@D@__crt_stdio_output@@@2@@__crt_stdio_output@@AEAAXI_N@Z 0000000180012008 f i libucrt:output.obj
 0001:00011008       ??$type_case_integer_parse_into_buffer@I$0BA@@?$output_processor@DV?$string_output_adapter@D@__crt_stdio_output@@V?$standard_base@DV?$string_output_adapter@D@__crt_stdio_output@@@2@@__crt_stdio_output@@AEAAXI_N@Z 0000000180012008 f i libucrt:output.obj
 0001:0001108c       ??$type_case_integer_parse_into_buffer@_K$07@?$output_processor@DV?$string_output_adapter@D@__crt_stdio_output@@V?$format_validation_base@DV?$string_output_adapter@D@__crt_stdio_output@@@2@@__crt_stdio_output@@AEAAX_K_N@Z 000000018001208c f i libucrt:output.obj
 0001:0001108c       ??$type_case_integer_parse_into_buffer@_K$07@?$output_processor@DV?$string_output_adapter@D@__crt_stdio_output@@V?$standard_base@DV?$string_output_adapter@D@__crt_stdio_output@@@2@@__crt_stdio_output@@AEAAX_K_N@Z 000000018001208c f i libucrt:output.obj
 0001:000110fc       ??$type_case_integer_parse_into_buffer@_K$09@?$output_processor@DV?$string_output_adapter@D@__crt_stdio_output@@V?$format_validation_base@DV?$string_output_adapter@D@__crt_stdio_output@@@2@@__crt_stdio_output@@AEAAX_K_N@Z 00000001800120fc f i libucrt:output.obj
 0001:000110fc       ??$type_case_integer_parse_into_buffer@_K$09@?$output_processor@DV?$string_output_adapter@D@__crt_stdio_output@@V?$standard_base@DV?$string_output_adapter@D@__crt_stdio_output@@@2@@__crt_stdio_output@@AEAAX_K_N@Z 00000001800120fc f i libucrt:output.obj
 0001:000111ac       ??$type_case_integer_parse_into_buffer@_K$0BA@@?$output_processor@DV?$string_output_adapter@D@__crt_stdio_output@@V?$format_validation_base@DV?$string_output_adapter@D@__crt_stdio_output@@@2@@__crt_stdio_output@@AEAAX_K_N@Z 00000001800121ac f i libucrt:output.obj
 0001:000111ac       ??$type_case_integer_parse_into_buffer@_K$0BA@@?$output_processor@DV?$string_output_adapter@D@__crt_stdio_output@@V?$standard_base@DV?$string_output_adapter@D@__crt_stdio_output@@@2@@__crt_stdio_output@@AEAAX_K_N@Z 00000001800121ac f i libucrt:output.obj
 0001:00011230       ?crop_zeroes@__crt_stdio_output@@YAXPEADQEAU__crt_locale_pointers@@@Z 0000000180012230 f i libucrt:output.obj
 0001:000112a0       ?get_raw_ptd@__crt_cached_ptd_host@@QEAAPEAU__acrt_ptd@@XZ 00000001800122a0 f i libucrt:output.obj
 0001:00011308       ?parse_int_from_format_string@?$output_processor@DV?$string_output_adapter@D@__crt_stdio_output@@V?$format_validation_base@DV?$string_output_adapter@D@__crt_stdio_output@@@2@@__crt_stdio_output@@AEAA_NQEAH@Z 0000000180012308 f i libucrt:output.obj
 0001:00011308       ?parse_int_from_format_string@?$output_processor@DV?$string_output_adapter@D@__crt_stdio_output@@V?$standard_base@DV?$string_output_adapter@D@__crt_stdio_output@@@2@@__crt_stdio_output@@AEAA_NQEAH@Z 0000000180012308 f i libucrt:output.obj
 0001:00011398       ?process@?$output_processor@DV?$string_output_adapter@D@__crt_stdio_output@@V?$format_validation_base@DV?$string_output_adapter@D@__crt_stdio_output@@@2@@__crt_stdio_output@@QEAAHXZ 0000000180012398 f i libucrt:output.obj
 0001:0001171c       ?process@?$output_processor@DV?$string_output_adapter@D@__crt_stdio_output@@V?$standard_base@DV?$string_output_adapter@D@__crt_stdio_output@@@2@@__crt_stdio_output@@QEAAHXZ 000000018001271c f i libucrt:output.obj
 0001:00011a9c       ?state_case_size@?$output_processor@DV?$string_output_adapter@D@__crt_stdio_output@@V?$format_validation_base@DV?$string_output_adapter@D@__crt_stdio_output@@@2@@__crt_stdio_output@@AEAA_NXZ 0000000180012a9c f i libucrt:output.obj
 0001:00011a9c       ?state_case_size@?$output_processor@DV?$string_output_adapter@D@__crt_stdio_output@@V?$standard_base@DV?$string_output_adapter@D@__crt_stdio_output@@@2@@__crt_stdio_output@@AEAA_NXZ 0000000180012a9c f i libucrt:output.obj
 0001:00011c24       ?state_case_type@?$output_processor@DV?$string_output_adapter@D@__crt_stdio_output@@V?$format_validation_base@DV?$string_output_adapter@D@__crt_stdio_output@@@2@@__crt_stdio_output@@AEAA_NXZ 0000000180012c24 f i libucrt:output.obj
 0001:00011c24       ?state_case_type@?$output_processor@DV?$string_output_adapter@D@__crt_stdio_output@@V?$standard_base@DV?$string_output_adapter@D@__crt_stdio_output@@@2@@__crt_stdio_output@@AEAA_NXZ 0000000180012c24 f i libucrt:output.obj
 0001:00012028       ?type_case_Z@?$output_processor@DV?$string_output_adapter@D@__crt_stdio_output@@V?$format_validation_base@DV?$string_output_adapter@D@__crt_stdio_output@@@2@@__crt_stdio_output@@AEAA_NXZ 0000000180013028 f i libucrt:output.obj
 0001:00012028       ?type_case_Z@?$output_processor@DV?$string_output_adapter@D@__crt_stdio_output@@V?$standard_base@DV?$string_output_adapter@D@__crt_stdio_output@@@2@@__crt_stdio_output@@AEAA_NXZ 0000000180013028 f i libucrt:output.obj
 0001:000120a4       ?type_case_a@?$output_processor@DV?$string_output_adapter@D@__crt_stdio_output@@V?$format_validation_base@DV?$string_output_adapter@D@__crt_stdio_output@@@2@@__crt_stdio_output@@AEAA_NXZ 00000001800130a4 f i libucrt:output.obj
 0001:000120a4       ?type_case_a@?$output_processor@DV?$string_output_adapter@D@__crt_stdio_output@@V?$standard_base@DV?$string_output_adapter@D@__crt_stdio_output@@@2@@__crt_stdio_output@@AEAA_NXZ 00000001800130a4 f i libucrt:output.obj
 0001:000122f8       ?type_case_c_tchar@?$output_processor@DV?$string_output_adapter@D@__crt_stdio_output@@V?$format_validation_base@DV?$string_output_adapter@D@__crt_stdio_output@@@2@@__crt_stdio_output@@AEAA_ND@Z 00000001800132f8 f i libucrt:output.obj
 0001:000122f8       ?type_case_c_tchar@?$output_processor@DV?$string_output_adapter@D@__crt_stdio_output@@V?$standard_base@DV?$string_output_adapter@D@__crt_stdio_output@@@2@@__crt_stdio_output@@AEAA_ND@Z 00000001800132f8 f i libucrt:output.obj
 0001:000123cc       ?type_case_n@?$output_processor@DV?$string_output_adapter@D@__crt_stdio_output@@V?$format_validation_base@DV?$string_output_adapter@D@__crt_stdio_output@@@2@@__crt_stdio_output@@AEAA_NXZ 00000001800133cc f i libucrt:output.obj
 0001:000123cc       ?type_case_n@?$output_processor@DV?$string_output_adapter@D@__crt_stdio_output@@V?$standard_base@DV?$string_output_adapter@D@__crt_stdio_output@@@2@@__crt_stdio_output@@AEAA_NXZ 00000001800133cc f i libucrt:output.obj
 0001:00012484       ?type_case_s@?$output_processor@DV?$string_output_adapter@D@__crt_stdio_output@@V?$format_validation_base@DV?$string_output_adapter@D@__crt_stdio_output@@@2@@__crt_stdio_output@@AEAA_NXZ 0000000180013484 f i libucrt:output.obj
 0001:00012484       ?type_case_s@?$output_processor@DV?$string_output_adapter@D@__crt_stdio_output@@V?$standard_base@DV?$string_output_adapter@D@__crt_stdio_output@@@2@@__crt_stdio_output@@AEAA_NXZ 0000000180013484 f i libucrt:output.obj
 0001:00012520       ?update_locale_slow@__crt_cached_ptd_host@@AEAAXXZ 0000000180013520 f i libucrt:output.obj
 0001:00012598       ?write_string@?$string_output_adapter@D@__crt_stdio_output@@QEBAXQEBDHQEAHAEAV__crt_cached_ptd_host@@@Z 0000000180013598 f i libucrt:output.obj
 0001:0001263c       __stdio_common_vsprintf    000000018001363c f   libucrt:output.obj
 0001:00012890       __stdio_common_vsprintf_s  0000000180013890 f   libucrt:output.obj
 0001:000129a4       ??$parse_integer@KV?$c_string_character_source@D@__crt_strtox@@$00@__crt_strtox@@YAKAEAV__crt_cached_ptd_host@@V?$c_string_character_source@D@0@H_N@Z 00000001800139a4 f i libucrt:atox.obj
 0001:00012c94       _ischartype_l              0000000180013c94 f i libucrt:atox.obj
 0001:00012d0c       atol                       0000000180013d0c f   libucrt:atox.obj
 0001:00012dd0       strncmp                    0000000180013dd0 f   libucrt:strncmp.obj
 0001:00012e50       calloc                     0000000180013e50 f   libucrt:calloc.obj
 0001:00012e58       wcsncmp                    0000000180013e58 f   libucrt:wcsncmp.obj
 0001:00012e84       _free_base                 0000000180013e84 f   libucrt:free_base.obj
 0001:00013238       __acrt_freeptd             0000000180014238 f   libucrt:per_thread_data.obj
 0001:0001327c       __acrt_getptd              000000018001427c f   libucrt:per_thread_data.obj
 0001:00013350       __acrt_getptd_head         0000000180014350 f   libucrt:per_thread_data.obj
 0001:000133f4       __acrt_getptd_noexit       00000001800143f4 f   libucrt:per_thread_data.obj
 0001:000134bc       __acrt_getptd_noexit_explicit 00000001800144bc f   libucrt:per_thread_data.obj
 0001:0001357c       __acrt_initialize_ptd      000000018001457c f   libucrt:per_thread_data.obj
 0001:000135b8       __acrt_uninitialize_ptd    00000001800145b8 f   libucrt:per_thread_data.obj
 0001:000135dc       __acrt_initialize_locks    00000001800145dc f   libucrt:locks.obj
 0001:00013624       __acrt_lock                0000000180014624 f   libucrt:locks.obj
 0001:00013640       __acrt_uninitialize_locks  0000000180014640 f   libucrt:locks.obj
 0001:00013678       __acrt_unlock              0000000180014678 f   libucrt:locks.obj
 0001:00013694       __acrt_app_verifier_enabled 0000000180014694 f   libucrt:peb_access.obj
 0001:000136b0       __acrt_is_secure_process   00000001800146b0 f   libucrt:peb_access.obj
 0001:000136c8       __acrt_get_process_end_policy 00000001800146c8 f   libucrt:win_policies.obj
 0001:000136f8       ?get_raw_ptd_noexit@__crt_cached_ptd_host@@QEAAPEAU__acrt_ptd@@XZ 00000001800146f8 f i libucrt:invalid_parameter.obj
 0001:00013764       ?value@?$dual_state_global@P6AXPEB_W00I_K@Z@__crt_state_management@@QEAAAEAP6AXPEB_W00I_K@ZAEAV__crt_cached_ptd_host@@@Z 0000000180014764 f i libucrt:invalid_parameter.obj
 0001:000137b0       __acrt_call_reportfault    00000001800147b0 f   libucrt:invalid_parameter.obj
 0001:0001390c       __acrt_initialize_invalid_parameter_handler 000000018001490c f   libucrt:invalid_parameter.obj
 0001:00013914       _invalid_parameter         0000000180014914 f   libucrt:invalid_parameter.obj
 0001:000139b0       _invalid_parameter_internal 00000001800149b0 f   libucrt:invalid_parameter.obj
 0001:00013a7c       _invalid_parameter_noinfo  0000000180014a7c f   libucrt:invalid_parameter.obj
 0001:00013a9c       _invoke_watson             0000000180014a9c f   libucrt:invalid_parameter.obj
 0001:00013ae4       __acrt_errno_from_os_error 0000000180014ae4 f   libucrt:errno.obj
 0001:00013b2c       __acrt_errno_map_os_error  0000000180014b2c f   libucrt:errno.obj
 0001:00013b74       __acrt_errno_map_os_error_ptd 0000000180014b74 f   libucrt:errno.obj
 0001:00013b98       __doserrno                 0000000180014b98 f   libucrt:errno.obj
 0001:00013bb8       _errno                     0000000180014bb8 f   libucrt:errno.obj
 0001:00013bd8       _calloc_base               0000000180014bd8 f   libucrt:calloc_base.obj
 0001:00013c64       ??$__acrt_convert_wcs_mbs_cp@D_WV<lambda_7c9dea7b4ca7285d2cdb541a38da6275>@@U__crt_win32_buffer_internal_dynamic_resizing@@@@YAHQEBDAEAV?$__crt_win32_buffer@_WU__crt_win32_buffer_internal_dynamic_resizing@@@@AEBV<lambda_7c9dea7b4ca7285d2cdb541a38da6275>@@I@Z 0000000180014c64 f i libucrt:argv_wildcards.obj
 0001:00013de0       ??$__acrt_convert_wcs_mbs_cp@_WDV<lambda_d8593a27d1aa8c02be35c86a17d324c4>@@U__crt_win32_buffer_internal_dynamic_resizing@@@@YAHQEB_WAEAV?$__crt_win32_buffer@DU__crt_win32_buffer_internal_dynamic_resizing@@@@AEBV<lambda_d8593a27d1aa8c02be35c86a17d324c4>@@I@Z 0000000180014de0 f i libucrt:argv_wildcards.obj
 0001:00014684       ??0_LocaleUpdate@@QEAA@QEAU__crt_locale_pointers@@@Z 0000000180015684 f i libucrt:argv_wildcards.obj
 0001:00014720       __acrt_expand_narrow_argv_wildcards 0000000180015720 f   libucrt:argv_wildcards.obj
 0001:00014728       ??$__acrt_convert_wcs_mbs_cp@_WDV<lambda_f788ae46380686e8b737efdd8c720d07>@@U__crt_win32_buffer_no_resizing@@@@YAHQEB_WAEAV?$__crt_win32_buffer@DU__crt_win32_buffer_no_resizing@@@@AEBV<lambda_f788ae46380686e8b737efdd8c720d07>@@I@Z 0000000180015728 f i libucrt:getmodulefilenamea.obj
 0001:00014844       __acrt_GetModuleFileNameA  0000000180015844 f   libucrt:getmodulefilenamea.obj
 0001:00015160       __acrt_initialize_multibyte 0000000180016160 f   libucrt:mbctype.obj
 0001:000151c0       __acrt_update_thread_multibyte_data 00000001800161c0 f   libucrt:mbctype.obj
 0001:000151dc       _setmbcp_nolock            00000001800161dc f   libucrt:mbctype.obj
 0001:00015510       _ismbblead                 0000000180016510 f   libucrt:ismbbyte.obj
 0001:00015524       __acrt_initialize_command_line 0000000180016524 f   libucrt:argv_data.obj
 0001:0001554c       __acrt_MultiByteToWideChar 000000018001654c f   libucrt:multibytetowidechar.obj
 0001:000155dc       __acrt_WideCharToMultiByte 00000001800165dc f   libucrt:widechartomultibyte.obj
 0001:000156bc       __dcrt_get_narrow_environment_from_os 00000001800166bc f   libucrt:get_environment_from_os.obj
 0001:000157cc       _recalloc_base             00000001800167cc f   libucrt:recalloc.obj
 0001:00015a20       __acrt_AppPolicyGetProcessTerminationMethodInternal 0000000180016a20 f   libucrt:winapi_thunks.obj
 0001:00015a78       __acrt_AreFileApisANSI     0000000180016a78 f   libucrt:winapi_thunks.obj
 0001:00015abc       __acrt_FlsAlloc            0000000180016abc f   libucrt:winapi_thunks.obj
 0001:00015ac4       __acrt_FlsFree             0000000180016ac4 f   libucrt:winapi_thunks.obj
 0001:00015acc       __acrt_FlsGetValue         0000000180016acc f   libucrt:winapi_thunks.obj
 0001:00015ad4       __acrt_FlsSetValue         0000000180016ad4 f   libucrt:winapi_thunks.obj
 0001:00015adc       __acrt_InitializeCriticalSectionEx 0000000180016adc f   libucrt:winapi_thunks.obj
 0001:00015b4c       __acrt_LCMapStringEx       0000000180016b4c f   libucrt:winapi_thunks.obj
 0001:00015c38       __acrt_LocaleNameToLCID    0000000180016c38 f   libucrt:winapi_thunks.obj
 0001:00015c98       __acrt_initialize_winapi_thunks 0000000180016c98 f   libucrt:winapi_thunks.obj
 0001:00015cbc       __acrt_uninitialize_winapi_thunks 0000000180016cbc f   libucrt:winapi_thunks.obj
 0001:00015d00       __acrt_initialize_heap     0000000180016d00 f   libucrt:heap_handle.obj
 0001:00015d1c       __acrt_uninitialize_heap   0000000180016d1c f   libucrt:heap_handle.obj
 0001:00015f20       __acrt_initialize_lowio    0000000180016f20 f   libucrt:ioinit.obj
 0001:00015f5c       __acrt_uninitialize_lowio  0000000180016f5c f   libucrt:ioinit.obj
 0001:00015f9c       __acrt_execute_initializers 0000000180016f9c f   libucrt:shared_initialization.obj
 0001:00016030       __acrt_execute_uninitializers 0000000180017030 f   libucrt:shared_initialization.obj
 0001:00016078       __acrt_initialize_new_handler 0000000180017078 f   libucrt:new_handler.obj
 0001:00016080       _callnewh                  0000000180017080 f   libucrt:new_handler.obj
 0001:000160c0       _query_new_handler         00000001800170c0 f   libucrt:new_handler.obj
 0001:00016140       __acrt_get_sigabrt_handler 0000000180017140 f   libucrt:signal.obj
 0001:00016170       __acrt_initialize_signal_handlers 0000000180017170 f   libucrt:signal.obj
 0001:00016190       raise                      0000000180017190 f   libucrt:signal.obj
 0001:0001640c       __acrt_has_user_matherr    000000018001740c f   libucrt:matherr.obj
 0001:0001642c       __acrt_initialize_user_matherr 000000018001742c f   libucrt:matherr.obj
 0001:00016434       __acrt_invoke_user_matherr 0000000180017434 f   libucrt:matherr.obj
 0001:00016650       __acrt_stdio_flush_nolock  0000000180017650 f   libucrt:fflush.obj
 0001:000166dc       _fflush_nolock             00000001800176dc f   libucrt:fflush.obj
 0001:000167b0       _flushall                  00000001800177b0 f   libucrt:fflush.obj
 0001:000167b8       __acrt_initialize_stdio    00000001800177b8 f   libucrt:_file.obj
 0001:000168d8       __acrt_uninitialize_stdio  00000001800178d8 f   libucrt:_file.obj
 0001:00016934       _lock_file                 0000000180017934 f   libucrt:_file.obj
 0001:00016940       _unlock_file               0000000180017940 f   libucrt:_file.obj
 0001:0001694c       _malloc_base               000000018001794c f   libucrt:malloc_base.obj
 0001:000169ac       strnlen                    00000001800179ac f   libucrt:strnlen.obj
 0001:00016afc       wcsnlen                    0000000180017afc f   libucrt:strnlen.obj
 0001:00016cd4       __acrt_update_locale_info  0000000180017cd4 f   libucrt:locale_update.obj
 0001:00016d08       __acrt_update_locale_info_explicit 0000000180017d08 f   libucrt:locale_update.obj
 0001:00016d40       __acrt_update_multibyte_info 0000000180017d40 f   libucrt:locale_update.obj
 0001:00016d74       __acrt_update_multibyte_info_explicit 0000000180017d74 f   libucrt:locale_update.obj
 0001:000178c0       __acrt_fp_format           00000001800188c0 f   libucrt:cvt.obj
 0001:00017ba8       _wctomb_internal           0000000180018ba8 f   libucrt:wctomb.obj
 0001:00017d58       _mbtowc_internal           0000000180018d58 f   libucrt:mbtowc.obj
 0001:00017ed0       _fileno                    0000000180018ed0 f   libucrt:fileno.obj
 0001:00017ef8       _get_printf_count_output   0000000180018ef8 f   libucrt:printf_count_output.obj
 0001:00017f80       __acrt_set_locale_changed  0000000180018f80 f   libucrt:wsetlocale.obj
 0001:00017f8c       __acrt_uninitialize_locale 0000000180018f8c f   libucrt:wsetlocale.obj
 0001:00017fbc       __pctype_func              0000000180018fbc f   libucrt:ctype.obj
 0001:00017fec       _isctype_l                 0000000180018fec f   libucrt:isctype.obj
 0001:000180f4       __acrt_add_locale_ref      00000001800190f4 f   libucrt:locale_refcounting.obj
 0001:00018180       __acrt_free_locale         0000000180019180 f   libucrt:locale_refcounting.obj
 0001:000182f8       __acrt_locale_add_lc_time_reference 00000001800192f8 f   libucrt:locale_refcounting.obj
 0001:00018320       __acrt_locale_free_lc_time_if_unreferenced 0000000180019320 f   libucrt:locale_refcounting.obj
 0001:00018358       __acrt_locale_release_lc_time_reference 0000000180019358 f   libucrt:locale_refcounting.obj
 0001:00018380       __acrt_release_locale_ref  0000000180019380 f   libucrt:locale_refcounting.obj
 0001:00018428       __acrt_update_thread_locale_data 0000000180019428 f   libucrt:locale_refcounting.obj
 0001:00018498       _updatetlocinfoEx_nolock   0000000180019498 f   libucrt:locale_refcounting.obj
 0001:00018500       _query_new_mode            0000000180019500 f   libucrt:new_mode.obj
 0001:00018510       qsort                      0000000180019510 f   libucrt:qsort.obj
 0001:00018920       strncpy_s                  0000000180019920 f   libucrt:strncpy_s.obj
 0001:00018ab0       strpbrk                    0000000180019ab0 f   libucrt:strpbrk.obj
 0001:00018e78       _mbsdec                    0000000180019e78 f   libucrt:mbsdec.obj
 0001:00018e80       _mbsdec_l                  0000000180019e80 f   libucrt:mbsdec.obj
 0001:00018f14       __acrt_GetStringTypeA      0000000180019f14 f   libucrt:getstringtypea.obj
 0001:000193d8       __acrt_LCMapStringA        000000018001a3d8 f   libucrt:lcmapstringa.obj
 0001:00019488       _msize_base                000000018001a488 f   libucrt:msize.obj
 0001:000194c4       _realloc_base              000000018001a4c4 f   libucrt:realloc_base.obj
 0001:00019540       __acrt_DownlevelLocaleNameToLCID 000000018001a540 f   libucrt:lcidtoname_downlevel.obj
 0001:000195e4       __acrt_lowio_create_handle_array 000000018001a5e4 f   libucrt:osfinfo.obj
 0001:0001968c       __acrt_lowio_destroy_handle_array 000000018001a68c f   libucrt:osfinfo.obj
 0001:000196dc       __acrt_lowio_ensure_fh_exists 000000018001a6dc f   libucrt:osfinfo.obj
 0001:00019784       __acrt_lowio_lock_fh       000000018001a784 f   libucrt:osfinfo.obj
 0001:000197ac       __acrt_lowio_unlock_fh     000000018001a7ac f   libucrt:osfinfo.obj
 0001:000197d4       _free_osfhnd               000000018001a7d4 f   libucrt:osfinfo.obj
 0001:00019890       _get_osfhandle             000000018001a890 f   libucrt:osfinfo.obj
 0001:00019994       _commit                    000000018001a994 f   libucrt:commit.obj
 0001:0001a230       _write_internal            000000018001b230 f   libucrt:write.obj
 0001:0001a350       _write_nolock              000000018001b350 f   libucrt:write.obj
 0001:0001a658       _fcloseall                 000000018001b658 f   libucrt:closeall.obj
 0001:0001a70c       __acrt_stdio_free_buffer_nolock 000000018001b70c f   libucrt:_freebuf.obj
 0001:0001a750       _isatty                    000000018001b750 f   libucrt:isatty.obj
 0001:0001a880       __acrt_fp_strflt_to_string 000000018001b880 f   libucrt:_fptostr.obj
 0001:0001a990       ?divide@__crt_strtox@@YA_KAEAUbig_integer@1@AEBU21@@Z 000000018001b990 f i libucrt:cfout.obj
 0001:0001ae2c       __acrt_fltout              000000018001be2c f   libucrt:cfout.obj
 0001:0001c144       fegetround                 000000018001d144 f   libucrt:fegetround.obj
 0001:0001c158       ?__c32rtomb_utf8@__crt_mbstring@@YA_KPEAD_UPEAU_Mbstatet@@AEAV__crt_cached_ptd_host@@@Z 000000018001d158 f   libucrt:c32rtomb.obj
 0001:0001c1fc       ?__mbrtowc_utf8@__crt_mbstring@@YA_KPEA_WPEBD_KPEAU_Mbstatet@@AEAV__crt_cached_ptd_host@@@Z 000000018001d1fc f   libucrt:mbrtowc.obj
 0001:0001c240       ?__mbsrtowcs_utf8@__crt_mbstring@@YA_KPEA_WPEAPEBD_KPEAU_Mbstatet@@AEAV__crt_cached_ptd_host@@@Z 000000018001d240 f   libucrt:mbrtowc.obj
 0001:0001c3e4       __acrt_locale_free_monetary 000000018001d3e4 f   libucrt:initmon.obj
 0001:0001c4f0       __acrt_locale_free_numeric 000000018001d4f0 f   libucrt:initnum.obj
 0001:0001c590       __acrt_locale_free_time    000000018001d590 f   libucrt:inittime.obj
 0001:0001c698       __strncnt                  000000018001d698 f   libucrt:strncnt.obj
 0001:0001c6b0       __ascii_wcsnicmp           000000018001d6b0 f   libucrt:wcsnicmp.obj
 0001:0001c6fc       _query_app_type            000000018001d6fc f   libucrt:report_runtime_error.obj
 0001:0001c7b0       _lseeki64_nolock_internal  000000018001d7b0 f   libucrt:lseek.obj
 0001:0001c7b8       _putwch_nolock             000000018001d7b8 f   libucrt:putwch.obj
 0001:0001c918       fclose                     000000018001d918 f   libucrt:fclose.obj
 0001:0001c9b0       _controlfp_s               000000018001d9b0 f   libucrt:contrlfp.obj
 0001:0001ca14       fegetenv                   000000018001da14 f   libucrt:fegetenv.obj
 0001:0001ca34       fesetenv                   000000018001da34 f   libucrt:fesetenv.obj
 0001:0001ca8c       feholdexcept               000000018001da8c f   libucrt:feholdexcept.obj
 0001:0001cadc       ceil                       000000018001dadc f   libucrt:ceil.obj
 0001:0001cba0       log10                      000000018001dba0 f   libucrt:log10.obj
 0001:0001d14c       __acrt_fenv_get_common_round_control 000000018001e14c f   libucrt:_fenvutils.obj
 0001:0001d158       __acrt_fenv_get_control    000000018001e158 f   libucrt:_fenvutils.obj
 0001:0001d23c       __acrt_fenv_get_status     000000018001e23c f   libucrt:_fenvutils.obj
 0001:0001d294       __acrt_fenv_set_control    000000018001e294 f   libucrt:_fenvutils.obj
 0001:0001d3cc       __acrt_fenv_set_status     000000018001e3cc f   libucrt:_fenvutils.obj
 0001:0001d440       ?reset_and_return@__crt_mbstring@@YA_K_KPEAU_Mbstatet@@@Z 000000018001e440 f   libucrt:common_utf8.obj
 0001:0001d448       ?return_illegal_sequence@__crt_mbstring@@YA_KPEAU_Mbstatet@@AEAV__crt_cached_ptd_host@@@Z 000000018001e448 f   libucrt:common_utf8.obj
 0001:0001d45c       ?__mbrtoc32_utf8@__crt_mbstring@@YA_KPEA_UPEBD_KPEAU_Mbstatet@@AEAV__crt_cached_ptd_host@@@Z 000000018001e45c f   libucrt:mbrtoc32.obj
 0001:0001d638       __dcrt_lowio_ensure_console_output_initialized 000000018001e638 f   libucrt:initcon.obj
 0001:0001d68c       __dcrt_terminate_console_output 000000018001e68c f   libucrt:initcon.obj
 0001:0001d6a8       __dcrt_write_console       000000018001e6a8 f   libucrt:initcon.obj
 0001:0001d7e0       _close_internal            000000018001e7e0 f   libucrt:close.obj
 0001:0001d8a4       _close_nolock_internal     000000018001e8a4 f   libucrt:close.obj
 0001:0001d974       ?__acrt_stdio_free_stream@@YAXV__crt_stdio_stream@@@Z 000000018001e974 f   libucrt:stream.obj
 0001:0001d990       _clearfp                   000000018001e990 f   libucrt:ieee.obj
 0001:0001d9fc       _control87                 000000018001e9fc f   libucrt:ieee.obj
 0001:0001ddc4       _handle_error              000000018001edc4 f   libucrt:libm_error.obj
 0001:0001deec       _handle_nan                000000018001eeec f   libucrt:libm_error.obj
 0001:0001df10       __acrt_initialize_fma3     000000018001ef10 f   libucrt:fma3_available.obj
 0001:0001df80       _log10_special             000000018001ef80 f   libucrt:log_special.obj
 0001:0001e050       _get_fpsr                  000000018001f050 f   libucrt:fpsr.obj
 0001:0001e060       _set_fpsr                  000000018001f060 f   libucrt:fpsr.obj
 0001:0001e06a       _fclrf                     000000018001f06a f   libucrt:fpsr.obj
 0001:0001e07e       _frnd                      000000018001f07e f   libucrt:fpsr.obj
 0001:0001e0a0       _raise_exc                 000000018001f0a0 f   libucrt:fpexcept.obj
 0001:0001e0c8       _raise_exc_ex              000000018001f0c8 f   libucrt:fpexcept.obj
 0001:0001e3d0       _set_errno_from_matherr    000000018001f3d0 f   libucrt:fpexcept.obj
 0001:0001e400       _clrfp                     000000018001f400 f   libucrt:fpctrl.obj
 0001:0001e420       _ctrlfp                    000000018001f420 f   libucrt:fpctrl.obj
 0001:0001e49c       _set_statfp                000000018001f49c f   libucrt:fpctrl.obj
 0001:0001e4bc       _statfp                    000000018001f4bc f   libucrt:fpctrl.obj
 0001:0001e4d0       _FindPESection             000000018001f4d0 f   LIBCMT:pesect.obj
 0001:0001e520       _IsNonwritableInCurrentImage 000000018001f520 f   LIBCMT:pesect.obj
 0001:0001e570       _ValidateImageBase         000000018001f570 f   LIBCMT:pesect.obj
 0001:0001e59c       __GSHandlerCheck           000000018001f59c f   LIBCMT:gshandler.obj
 0001:0001e5bc       __GSHandlerCheckCommon     000000018001f5bc f   LIBCMT:gshandler.obj
 0001:0001e630       __security_check_cookie    000000018001f630 f   LIBCMT:amdsecgs.obj
 0001:0001e650       __GSHandlerCheck_SEH       000000018001f650 f   LIBCMT:gshandlerseh.obj
 0001:0001e6d8       __raise_securityfailure    000000018001f6d8 f   LIBCMT:gs_report.obj
 0001:0001e70c       __report_gsfailure         000000018001f70c f   LIBCMT:gs_report.obj
 0001:0001e7e0       __report_rangecheckfailure 000000018001f7e0 f   LIBCMT:gs_report.obj
 0001:0001e7f4       __report_securityfailure   000000018001f7f4 f   LIBCMT:gs_report.obj
 0001:0001e990       __chkstk                   000000018001f990 f   LIBCMT:chkstk.obj
 0001:0001e990       _alloca_probe              000000018001f990 f   LIBCMT:chkstk.obj
 0001:0001e9e0       __GSHandlerCheck_EH        000000018001f9e0 f   LIBCMT:gshandlereh.obj
 0001:0001ea60       __C_specific_handler_noexcept 000000018001fa60 f   libvcruntime:chandler_noexcept.obj
 0001:0001eaac       strrchr                    000000018001faac f   libvcruntime:strrchr.obj
 0001:0001ec00       memcmp                     000000018001fc00 f   libvcruntime:memcmp.obj
 0001:0001ece0       _guard_dispatch_icall_nop  000000018001fce0 f   LIBCMT:guard_dispatch.obj
 0001:0001ed00       _guard_xfg_dispatch_icall_nop 000000018001fd00 f   LIBCMT:guard_xfg_dispatch.obj
 0002:00000000       __imp_LoadLibraryA         0000000180021000     kernel32:KERNEL32.dll
 0002:00000008       __imp_CloseHandle          0000000180021008     kernel32:KERNEL32.dll
 0002:00000010       __imp_RaiseException       0000000180021010     kernel32:KERNEL32.dll
 0002:00000018       __imp_GetLastError         0000000180021018     kernel32:KERNEL32.dll
 0002:00000020       __imp_GetSystemInfo        0000000180021020     kernel32:KERNEL32.dll
 0002:00000028       __imp_VirtualProtect       0000000180021028     kernel32:KERNEL32.dll
 0002:00000030       __imp_VirtualQuery         0000000180021030     kernel32:KERNEL32.dll
 0002:00000038       __imp_FreeLibrary          0000000180021038     kernel32:KERNEL32.dll
 0002:00000040       __imp_GetModuleHandleW     0000000180021040     kernel32:KERNEL32.dll
 0002:00000048       __imp_GetProcAddress       0000000180021048     kernel32:KERNEL32.dll
 0002:00000050       __imp_LoadLibraryExA       0000000180021050     kernel32:KERNEL32.dll
 0002:00000058       __imp_InitializeSListHead  0000000180021058     kernel32:KERNEL32.dll
 0002:00000060       __imp_QueryPerformanceCounter 0000000180021060     kernel32:KERNEL32.dll
 0002:00000068       __imp_GetCurrentProcessId  0000000180021068     kernel32:KERNEL32.dll
 0002:00000070       __imp_GetCurrentThreadId   0000000180021070     kernel32:KERNEL32.dll
 0002:00000078       __imp_GetSystemTimeAsFileTime 0000000180021078     kernel32:KERNEL32.dll
 0002:00000080       __imp_RtlCaptureContext    0000000180021080     kernel32:KERNEL32.dll
 0002:00000088       __imp_RtlLookupFunctionEntry 0000000180021088     kernel32:KERNEL32.dll
 0002:00000090       __imp_RtlVirtualUnwind     0000000180021090     kernel32:KERNEL32.dll
 0002:00000098       __imp_IsDebuggerPresent    0000000180021098     kernel32:KERNEL32.dll
 0002:000000a0       __imp_UnhandledExceptionFilter 00000001800210a0     kernel32:KERNEL32.dll
 0002:000000a8       __imp_SetUnhandledExceptionFilter 00000001800210a8     kernel32:KERNEL32.dll
 0002:000000b0       __imp_GetStartupInfoW      00000001800210b0     kernel32:KERNEL32.dll
 0002:000000b8       __imp_IsProcessorFeaturePresent 00000001800210b8     kernel32:KERNEL32.dll
 0002:000000c0       __imp_InterlockedPushEntrySList 00000001800210c0     kernel32:KERNEL32.dll
 0002:000000c8       __imp_InterlockedFlushSList 00000001800210c8     kernel32:KERNEL32.dll
 0002:000000d0       __imp_RtlUnwindEx          00000001800210d0     kernel32:KERNEL32.dll
 0002:000000d8       __imp_SetLastError         00000001800210d8     kernel32:KERNEL32.dll
 0002:000000e0       __imp_EnterCriticalSection 00000001800210e0     kernel32:KERNEL32.dll
 0002:000000e8       __imp_LeaveCriticalSection 00000001800210e8     kernel32:KERNEL32.dll
 0002:000000f0       __imp_DeleteCriticalSection 00000001800210f0     kernel32:KERNEL32.dll
 0002:000000f8       __imp_InitializeCriticalSectionAndSpinCount 00000001800210f8     kernel32:KERNEL32.dll
 0002:00000100       __imp_TlsAlloc             0000000180021100     kernel32:KERNEL32.dll
 0002:00000108       __imp_TlsGetValue          0000000180021108     kernel32:KERNEL32.dll
 0002:00000110       __imp_TlsSetValue          0000000180021110     kernel32:KERNEL32.dll
 0002:00000118       __imp_TlsFree              0000000180021118     kernel32:KERNEL32.dll
 0002:00000120       __imp_LoadLibraryExW       0000000180021120     kernel32:KERNEL32.dll
 0002:00000128       __imp_EncodePointer        0000000180021128     kernel32:KERNEL32.dll
 0002:00000130       __imp_RtlPcToFileHeader    0000000180021130     kernel32:KERNEL32.dll
 0002:00000138       __imp_RtlUnwind            0000000180021138     kernel32:KERNEL32.dll
 0002:00000140       __imp_GetCurrentProcess    0000000180021140     kernel32:KERNEL32.dll
 0002:00000148       __imp_ExitProcess          0000000180021148     kernel32:KERNEL32.dll
 0002:00000150       __imp_TerminateProcess     0000000180021150     kernel32:KERNEL32.dll
 0002:00000158       __imp_GetModuleHandleExW   0000000180021158     kernel32:KERNEL32.dll
 0002:00000160       __imp_GetModuleFileNameW   0000000180021160     kernel32:KERNEL32.dll
 0002:00000168       __imp_HeapFree             0000000180021168     kernel32:KERNEL32.dll
 0002:00000170       __imp_HeapAlloc            0000000180021170     kernel32:KERNEL32.dll
 0002:00000178       __imp_FindClose            0000000180021178     kernel32:KERNEL32.dll
 0002:00000180       __imp_FindFirstFileExW     0000000180021180     kernel32:KERNEL32.dll
 0002:00000188       __imp_FindNextFileW        0000000180021188     kernel32:KERNEL32.dll
 0002:00000190       __imp_IsValidCodePage      0000000180021190     kernel32:KERNEL32.dll
 0002:00000198       __imp_GetACP               0000000180021198     kernel32:KERNEL32.dll
 0002:000001a0       __imp_GetOEMCP             00000001800211a0     kernel32:KERNEL32.dll
 0002:000001a8       __imp_GetCPInfo            00000001800211a8     kernel32:KERNEL32.dll
 0002:000001b0       __imp_GetCommandLineA      00000001800211b0     kernel32:KERNEL32.dll
 0002:000001b8       __imp_GetCommandLineW      00000001800211b8     kernel32:KERNEL32.dll
 0002:000001c0       __imp_MultiByteToWideChar  00000001800211c0     kernel32:KERNEL32.dll
 0002:000001c8       __imp_WideCharToMultiByte  00000001800211c8     kernel32:KERNEL32.dll
 0002:000001d0       __imp_GetEnvironmentStringsW 00000001800211d0     kernel32:KERNEL32.dll
 0002:000001d8       __imp_FreeEnvironmentStringsW 00000001800211d8     kernel32:KERNEL32.dll
 0002:000001e0       __imp_FlsAlloc             00000001800211e0     kernel32:KERNEL32.dll
 0002:000001e8       __imp_FlsGetValue          00000001800211e8     kernel32:KERNEL32.dll
 0002:000001f0       __imp_FlsSetValue          00000001800211f0     kernel32:KERNEL32.dll
 0002:000001f8       __imp_FlsFree              00000001800211f8     kernel32:KERNEL32.dll
 0002:00000200       __imp_LCMapStringW         0000000180021200     kernel32:KERNEL32.dll
 0002:00000208       __imp_GetProcessHeap       0000000180021208     kernel32:KERNEL32.dll
 0002:00000210       __imp_GetStdHandle         0000000180021210     kernel32:KERNEL32.dll
 0002:00000218       __imp_GetFileType          0000000180021218     kernel32:KERNEL32.dll
 0002:00000220       __imp_GetStringTypeW       0000000180021220     kernel32:KERNEL32.dll
 0002:00000228       __imp_HeapSize             0000000180021228     kernel32:KERNEL32.dll
 0002:00000230       __imp_HeapReAlloc          0000000180021230     kernel32:KERNEL32.dll
 0002:00000238       __imp_SetStdHandle         0000000180021238     kernel32:KERNEL32.dll
 0002:00000240       __imp_FlushFileBuffers     0000000180021240     kernel32:KERNEL32.dll
 0002:00000248       __imp_WriteFile            0000000180021248     kernel32:KERNEL32.dll
 0002:00000250       __imp_GetConsoleOutputCP   0000000180021250     kernel32:KERNEL32.dll
 0002:00000258       __imp_GetConsoleMode       0000000180021258     kernel32:KERNEL32.dll
 0002:00000260       __imp_SetFilePointerEx     0000000180021260     kernel32:KERNEL32.dll
 0002:00000268       __imp_CreateFileW          0000000180021268     kernel32:KERNEL32.dll
 0002:00000270       __imp_WriteConsoleW        0000000180021270     kernel32:KERNEL32.dll
 0002:00000278       \177KERNEL32_NULL_THUNK_DATA 0000000180021278     kernel32:KERNEL32.dll
 0002:00000280       __guard_check_icall_fptr   0000000180021280     LIBCMT:guard_support.obj
 0002:00000288       __guard_xfg_check_icall_fptr 0000000180021288     LIBCMT:guard_support.obj
 0002:00000290       __guard_dispatch_icall_fptr 0000000180021290     LIBCMT:guard_support.obj
 0002:00000298       __guard_xfg_dispatch_icall_fptr 0000000180021298     LIBCMT:guard_support.obj
 0002:000002a0       __guard_xfg_table_dispatch_icall_fptr 00000001800212a0     LIBCMT:guard_support.obj
 0002:000002a8       __castguard_check_failure_os_handled_fptr 00000001800212a8     LIBCMT:guard_support.obj
 0002:000002b0       __guard_memcpy_fptr        00000001800212b0     libvcruntime:softmemtag.obj
 0002:000002b8       __xc_a                     00000001800212b8     LIBCMT:initializers.obj
 0002:000002f0       __xc_z                     00000001800212f0     LIBCMT:initializers.obj
 0002:000002f8       __xi_a                     00000001800212f8     LIBCMT:initializers.obj
 0002:00000300       __acrt_multibyte_initializer 0000000180021300     libucrt:multibyte_initializer.obj
 0002:00000308       __acrt_stdio_initializer   0000000180021308     libucrt:stdio_initializer.obj
 0002:00000310       __acrt_tran_fma3_initializer 0000000180021310     libucrt:fma3_initializer.obj
 0002:00000318       __xi_z                     0000000180021318     LIBCMT:initializers.obj
 0002:00000320       __xp_a                     0000000180021320     LIBCMT:initializers.obj
 0002:00000328       __acrt_locale_terminator   0000000180021328     libucrt:locale_initializer.obj
 0002:00000330       __dcrt_console_output_terminator 0000000180021330     libucrt:console_output_initializer.obj
 0002:00000338       __acrt_stdio_terminator    0000000180021338     libucrt:stdio_initializer.obj
 0002:00000340       __xp_z                     0000000180021340     LIBCMT:initializers.obj
 0002:00000348       __xt_a                     0000000180021348     LIBCMT:initializers.obj
 0002:00000350       __xt_z                     0000000180021350     LIBCMT:initializers.obj
 0002:00000380       ??_7PxFoundation@physx@@6B@ 0000000180021380     Cooking.obj
 0002:000003f0       ??_C@_0FA@HHHMOFPF@C?3?2Users?2umtim?2Desktop?2Client45@ 00000001800213f0     Cooking.obj
 0002:00000440       ??_C@_0EJ@CKBNKCDM@C?3?2Users?2umtim?2Desktop?2Client45@ 0000000180021440     Cooking.obj
 0002:00000490       ??_C@_0BM@OIFKLHDN@?$DMallocation?5names?5disabled?$DO@ 0000000180021490     Cooking.obj
 0002:000004b0       __xmm@000000003a83126f3a83126f3a83126f 00000001800214b0     Cooking.obj
 0002:000004c0       __xmm@00000000ba83126fba83126fba83126f 00000001800214c0     Cooking.obj
 0002:000004d0       __xmm@3a83126f3a83126f3a83126f3a83126f 00000001800214d0     Cooking.obj
 0002:000004e0       __xmm@ba83126fba83126fba83126fba83126f 00000001800214e0     Cooking.obj
 0002:000004f0       ??_C@_0BA@EGLNOO@PhysXFoundation@ 00000001800214f0     WindowsCookingDelayLoadHook.obj
 0002:00000500       ??_C@_0M@ILKNCJKN@PhysXCommon@ 0000000180021500     WindowsCookingDelayLoadHook.obj
 0002:00000510       __sz_PhysXCommon_64_dll    0000000180021510     PhysXCommon_64:PhysXCommon_64.dll
 0002:00000530       __sz_PhysXFoundation_64_dll 0000000180021530     PhysXFoundation_64:PhysXFoundation_64.dll
 0002:00000548       ??_C@_1BK@DBDEIDLH@?$AAK?$AAE?$AAR?$AAN?$AAE?$AAL?$AA3?$AA2?$AA?4?$AAD?$AAL?$AAL@ 0000000180021548     Delayimp:delayhlp.obj
 0002:00000568       ??_C@_0BI@OMNLIJDB@AcquireSRWLockExclusive@ 0000000180021568     Delayimp:delayhlp.obj
 0002:00000580       ??_C@_0BI@HMIEPCNJ@ReleaseSRWLockExclusive@ 0000000180021580     Delayimp:delayhlp.obj
 0002:00000598       __pfnDliFailureHook2       0000000180021598     Delayimp:delayhk1.obj
 0002:000005a8       ??_7type_info@@6B@         00000001800215a8     LIBCMT:std_type_info_static.obj
 0002:000005b0       _pDefaultRawDllMain        00000001800215b0     LIBCMT:dll_dllmain.obj
 0002:000005b0       _pRawDllMain               00000001800215b0     LIBCMT:dll_dllmain.obj
 0002:000005c0       _load_config_used          00000001800215c0     LIBCMT:loadcfg.obj
 0002:00000700       __xmm@ffffffffffffffffffffffffffffffff 0000000180021700     LIBCMT:utility.obj
 0002:00000710       _pDestructExceptionObject  0000000180021710     libvcruntime:ehhelpers.obj
 0002:00000e30       ??_C@_08EHJDFFNH@__based?$CI@ 0000000180021e30     libvcruntime:undname.obj
 0002:00000e40       ??_C@_07KOLFKCDI@__cdecl@  0000000180021e40     libvcruntime:undname.obj
 0002:00000e48       ??_C@_08GHMPAG@__pascal@   0000000180021e48     libvcruntime:undname.obj
 0002:00000e58       ??_C@_09IFJBGAPI@__stdcall@ 0000000180021e58     libvcruntime:undname.obj
 0002:00000e68       ??_C@_0L@NPHFGOKO@__thiscall@ 0000000180021e68     libvcruntime:undname.obj
 0002:00000e78       ??_C@_0L@JMKHOMEK@__fastcall@ 0000000180021e78     libvcruntime:undname.obj
 0002:00000e88       ??_C@_0N@BCKKPABJ@__vectorcall@ 0000000180021e88     libvcruntime:undname.obj
 0002:00000e98       ??_C@_09HIJEGCPM@__clrcall@ 0000000180021e98     libvcruntime:undname.obj
 0002:00000ea4       ??_C@_06GHPCKEAG@__eabi@   0000000180021ea4     libvcruntime:undname.obj
 0002:00000eb0       ??_C@_09IOPIDJLG@__swift_1@ 0000000180021eb0     libvcruntime:undname.obj
 0002:00000ec0       ??_C@_09KFNFGKHF@__swift_2@ 0000000180021ec0     libvcruntime:undname.obj
 0002:00000ed0       ??_C@_09LMMOFLDE@__swift_3@ 0000000180021ed0     libvcruntime:undname.obj
 0002:00000ee0       ??_C@_07JOMMBBKO@__ptr64@  0000000180021ee0     libvcruntime:undname.obj
 0002:00000ee8       ??_C@_0L@PILCLIHE@__restrict@ 0000000180021ee8     libvcruntime:undname.obj
 0002:00000ef8       ??_C@_0M@GFIIJFMG@__unaligned@ 0000000180021ef8     libvcruntime:undname.obj
 0002:00000f08       ??_C@_09DHDLOLLB@restrict?$CI@ 0000000180021f08     libvcruntime:undname.obj
 0002:00000f12       ??_C@_00CNPNBAHC@@         0000000180021f12     libvcruntime:undname.obj
 0002:00000f14       ??_C@_04NIHEBCM@?5new@     0000000180021f14     libvcruntime:undname.obj
 0002:00000f20       ??_C@_07FPCDHGMM@?5delete@ 0000000180021f20     libvcruntime:undname.obj
 0002:00000f28       ??_C@_01NEMOKFLO@?$DN@     0000000180021f28     libvcruntime:undname.obj
 0002:00000f2c       ??_C@_02GPIOPFAK@?$DO?$DO@ 0000000180021f2c     libvcruntime:undname.obj
 0002:00000f30       ??_C@_02FODMEDOG@?$DM?$DM@ 0000000180021f30     libvcruntime:undname.obj
 0002:00000f34       ??_C@_01DCLJPIOD@?$CB@     0000000180021f34     libvcruntime:undname.obj
 0002:00000f38       ??_C@_02EGOFBIJA@?$DN?$DN@ 0000000180021f38     libvcruntime:undname.obj
 0002:00000f3c       ??_C@_02FDNJECIE@?$CB?$DN@ 0000000180021f3c     libvcruntime:undname.obj
 0002:00000f40       ??_C@_02GPECMEKF@?$FL?$FN@ 0000000180021f40     libvcruntime:undname.obj
 0002:00000f48       ??_C@_08LHJFAFGD@operator@ 0000000180021f48     libvcruntime:undname.obj
 0002:00000f54       ??_C@_02HBOOOICD@?9?$DO@   0000000180021f54     libvcruntime:undname.obj
 0002:00000f58       ??_C@_01NBENCBCI@?$CK@     0000000180021f58     libvcruntime:undname.obj
 0002:00000f5c       ??_C@_02ECNGHCIF@?$CL?$CL@ 0000000180021f5c     libvcruntime:undname.obj
 0002:00000f60       ??_C@_02BAABKJLB@?9?9@     0000000180021f60     libvcruntime:undname.obj
 0002:00000f64       ??_C@_01JOAMLHOP@?9@       0000000180021f64     libvcruntime:undname.obj
 0002:00000f68       ??_C@_01MIFGBAGJ@?$CL@     0000000180021f68     libvcruntime:undname.obj
 0002:00000f6c       ??_C@_01HNPIGOCE@?$CG@     0000000180021f6c     libvcruntime:undname.obj
 0002:00000f70       ??_C@_03MNHNFDLC@?9?$DO?$CK@ 0000000180021f70     libvcruntime:undname.obj
 0002:00000f74       ??_C@_01KMDKNFGN@?1@       0000000180021f74     libvcruntime:undname.obj
 0002:00000f78       ??_C@_01FGNFDNOH@?$CF@     0000000180021f78     libvcruntime:undname.obj
 0002:00000f7c       ??_C@_01MNNFJEPP@?$DM@     0000000180021f7c     libvcruntime:undname.obj
 0002:00000f80       ??_C@_02EHCHHCKH@?$DM?$DN@ 0000000180021f80     libvcruntime:undname.obj
 0002:00000f84       ??_C@_01PPODPGHN@?$DO@     0000000180021f84     libvcruntime:undname.obj
 0002:00000f88       ??_C@_02EEKDKGMJ@?$DO?$DN@ 0000000180021f88     libvcruntime:undname.obj
 0002:00000f8c       ??_C@_01IHBHIGKO@?0@       0000000180021f8c     libvcruntime:undname.obj
 0002:00000f90       ??_C@_02HCKGKOFO@?$CI?$CJ@ 0000000180021f90     libvcruntime:undname.obj
 0002:00000f94       ??_C@_01PJKLJHI@?$HO@      0000000180021f94     libvcruntime:undname.obj
 0002:00000f98       ??_C@_01JKBOJNNK@?$FO@     0000000180021f98     libvcruntime:undname.obj
 0002:00000f9c       ??_C@_01DNKMNLPK@?$HM@     0000000180021f9c     libvcruntime:undname.obj
 0002:00000fa0       ??_C@_02PPKAJPJL@?$CG?$CG@ 0000000180021fa0     libvcruntime:undname.obj
 0002:00000fa4       ??_C@_02NONPIBCD@?$HM?$HM@ 0000000180021fa4     libvcruntime:undname.obj
 0002:00000fa8       ??_C@_02FPIMKNGF@?$CK?$DN@ 0000000180021fa8     libvcruntime:undname.obj
 0002:00000fac       ??_C@_02FOEOMHFC@?$CL?$DN@ 0000000180021fac     libvcruntime:undname.obj
 0002:00000fb0       ??_C@_02FKMDLLOA@?9?$DN@   0000000180021fb0     libvcruntime:undname.obj
 0002:00000fb4       ??_C@_02FJEHGPIO@?1?$DN@   0000000180021fb4     libvcruntime:undname.obj
 0002:00000fb8       ??_C@_02FENAOKFI@?$CF?$DN@ 0000000180021fb8     libvcruntime:undname.obj
 0002:00000fbc       ??_C@_03IKFCCPFF@?$DO?$DO?$DN@ 0000000180021fbc     libvcruntime:undname.obj
 0002:00000fc0       ??_C@_03CDNPDDLA@?$DM?$DM?$DN@ 0000000180021fc0     libvcruntime:undname.obj
 0002:00000fc4       ??_C@_02FGJGFEAB@?$CG?$DN@ 0000000180021fc4     libvcruntime:undname.obj
 0002:00000fc8       ??_C@_02DHLNPPGH@?$HM?$DN@ 0000000180021fc8     libvcruntime:undname.obj
 0002:00000fcc       ??_C@_02MHEGNOJ@?$FO?$DN@  0000000180021fcc     libvcruntime:undname.obj
 0002:00000fd0       ??_C@_09IFPLHPGF@?$GAvftable?8@ 0000000180021fd0     libvcruntime:undname.obj
 0002:00000fe0       ??_C@_09BLBHBJP@?$GAvbtable?8@ 0000000180021fe0     libvcruntime:undname.obj
 0002:00000ff0       ??_C@_07FEEIOKP@?$GAvcall?8@ 0000000180021ff0     libvcruntime:undname.obj
 0002:00000ff8       ??_C@_08LLFFHHDJ@?$GAtypeof?8@ 0000000180021ff8     libvcruntime:undname.obj
 0002:00001008       ??_C@_0BF@KDPPACIK@?$GAlocal?5static?5guard?8@ 0000000180022008     libvcruntime:undname.obj
 0002:00001020       ??_C@_08OBABFOLI@?$GAstring?8@ 0000000180022020     libvcruntime:undname.obj
 0002:00001030       ??_C@_0BD@JDLKDPAB@?$GAvbase?5destructor?8@ 0000000180022030     libvcruntime:undname.obj
 0002:00001048       ??_C@_0BN@DEGPLNFK@?$GAvector?5deleting?5destructor?8@ 0000000180022048     libvcruntime:undname.obj
 0002:00001068       ??_C@_0BO@OBMKPJIG@?$GAdefault?5constructor?5closure?8@ 0000000180022068     libvcruntime:undname.obj
 0002:00001088       ??_C@_0BN@IMDCHIKM@?$GAscalar?5deleting?5destructor?8@ 0000000180022088     libvcruntime:undname.obj
 0002:000010a8       ??_C@_0BO@PFGOCPJJ@?$GAvector?5constructor?5iterator?8@ 00000001800220a8     libvcruntime:undname.obj
 0002:000010c8       ??_C@_0BN@LFPFMEDL@?$GAvector?5destructor?5iterator?8@ 00000001800220c8     libvcruntime:undname.obj
 0002:000010e8       ??_C@_0CE@IKBNEHA@?$GAvector?5vbase?5constructor?5itera@ 00000001800220e8     libvcruntime:undname.obj
 0002:00001110       ??_C@_0BL@NILFHHPC@?$GAvirtual?5displacement?5map?8@ 0000000180022110     libvcruntime:undname.obj
 0002:00001130       ??_C@_0CB@JONCMFFK@?$GAeh?5vector?5constructor?5iterator@ 0000000180022130     libvcruntime:undname.obj
 0002:00001158       ??_C@_0CA@GCEOPDGL@?$GAeh?5vector?5destructor?5iterator?8@ 0000000180022158     libvcruntime:undname.obj
 0002:00001178       ??_C@_0CH@OOJPLCPH@?$GAeh?5vector?5vbase?5constructor?5it@ 0000000180022178     libvcruntime:undname.obj
 0002:000011a0       ??_C@_0BL@LLKPOHJI@?$GAcopy?5constructor?5closure?8@ 00000001800221a0     libvcruntime:undname.obj
 0002:000011c0       ??_C@_0BA@KBCDOMBN@?$GAudt?5returning?8@ 00000001800221c0     libvcruntime:undname.obj
 0002:000011d0       ??_C@_03KLGMFNMG@?$GAEH@   00000001800221d0     libvcruntime:undname.obj
 0002:000011d4       ??_C@_05KHLCHHI@?$GARTTI@  00000001800221d4     libvcruntime:undname.obj
 0002:000011e0       ??_C@_0BA@KKLDJDLB@?$GAlocal?5vftable?8@ 00000001800221e0     libvcruntime:undname.obj
 0002:000011f0       ??_C@_0CE@IIHCMGGL@?$GAlocal?5vftable?5constructor?5clos@ 00000001800221f0     libvcruntime:undname.obj
 0002:00001214       ??_C@_06FHBGPFGH@?5new?$FL?$FN@ 0000000180022214     libvcruntime:undname.obj
 0002:00001220       ??_C@_09LBNFPBCA@?5delete?$FL?$FN@ 0000000180022220     libvcruntime:undname.obj
 0002:00001230       ??_C@_0P@HJKNJFNN@?$GAomni?5callsig?8@ 0000000180022230     libvcruntime:undname.obj
 0002:00001240       ??_C@_0BL@CNOONJFP@?$GAplacement?5delete?5closure?8@ 0000000180022240     libvcruntime:undname.obj
 0002:00001260       ??_C@_0BN@CKNJLHMB@?$GAplacement?5delete?$FL?$FN?5closure?8@ 0000000180022260     libvcruntime:undname.obj
 0002:00001280       ??_C@_0CG@CFDHKGGD@?$GAmanaged?5vector?5constructor?5ite@ 0000000180022280     libvcruntime:undname.obj
 0002:000012a8       ??_C@_0CF@IMGKMJNO@?$GAmanaged?5vector?5destructor?5iter@ 00000001800222a8     libvcruntime:undname.obj
 0002:000012d0       ??_C@_0CG@HLDDJMAG@?$GAeh?5vector?5copy?5constructor?5ite@ 00000001800222d0     libvcruntime:undname.obj
 0002:000012f8       ??_C@_0CM@FCBBDIGB@?$GAeh?5vector?5vbase?5copy?5construct@ 00000001800222f8     libvcruntime:undname.obj
 0002:00001328       ??_C@_0BL@CLIPGLGB@?$GAdynamic?5initializer?5for?5?8@ 0000000180022328     libvcruntime:undname.obj
 0002:00001348       ??_C@_0CB@PDBIFEP@?$GAdynamic?5atexit?5destructor?5for?5@ 0000000180022348     libvcruntime:undname.obj
 0002:00001370       ??_C@_0CD@CGAJBKEJ@?$GAvector?5copy?5constructor?5iterat@ 0000000180022370     libvcruntime:undname.obj
 0002:00001398       ??_C@_0CJ@GJELGAMM@?$GAvector?5vbase?5copy?5constructor?5@ 0000000180022398     libvcruntime:undname.obj
 0002:000013c8       ??_C@_0CL@FGIJHLCE@?$GAmanaged?5vector?5copy?5constructo@ 00000001800223c8     libvcruntime:undname.obj
 0002:000013f8       ??_C@_0BM@PMGGMLDN@?$GAlocal?5static?5thread?5guard?8@ 00000001800223f8     libvcruntime:undname.obj
 0002:00001418       ??_C@_0N@BDNMDMOL@operator?5?$CC?$CC?5@ 0000000180022418     libvcruntime:undname.obj
 0002:00001428       ??_C@_0BC@GGEBGALA@operator?5co_await@ 0000000180022428     libvcruntime:undname.obj
 0002:00001440       ??_C@_0M@GAAIMMOH@operator?$DM?$DN?$DO@ 0000000180022440     libvcruntime:undname.obj
 0002:00001450       ??_C@_0BC@DAFEJGAK@?5Type?5Descriptor?8@ 0000000180022450     libvcruntime:undname.obj
 0002:00001468       ??_C@_0BM@LDKODKLH@?5Base?5Class?5Descriptor?5at?5?$CI@ 0000000180022468     libvcruntime:undname.obj
 0002:00001488       ??_C@_0BD@LGICGFMM@?5Base?5Class?5Array?8@ 0000000180022488     libvcruntime:undname.obj
 0002:000014a0       ??_C@_0BN@MECKDCOJ@?5Class?5Hierarchy?5Descriptor?8@ 00000001800224a0     libvcruntime:undname.obj
 0002:000014c0       ??_C@_0BK@CFCOFLF@?5Complete?5Object?5Locator?8@ 00000001800224c0     libvcruntime:undname.obj
 0002:000014e0       ??_C@_0BG@JNJLAMPM@?$GAanonymous?5namespace?8@ 00000001800224e0     libvcruntime:undname.obj
 0002:000014f8       ??_C@_04HEJADOOB@CV?3?5@   00000001800224f8     libvcruntime:undname.obj
 0002:00001500       ??_C@_02MOLJINC@?3?3@      0000000180022500     libvcruntime:undname.obj
 0002:00001508       ??_C@_0BE@JAEOCHPE@template?9parameter?9@ 0000000180022508     libvcruntime:undname.obj
 0002:00001520       ??_C@_0BF@LNLGBBNL@?$GAtemplate?9parameter?9@ 0000000180022520     libvcruntime:undname.obj
 0002:00001538       ??_C@_0O@KHGCOMHP@generic?9type?9@ 0000000180022538     libvcruntime:undname.obj
 0002:00001548       ??_C@_0P@ODDENDLM@?$GAgeneric?9type?9@ 0000000180022548     libvcruntime:undname.obj
 0002:00001558       ??_C@_02OHHJMEON@?8?8@     0000000180022558     libvcruntime:undname.obj
 0002:00001560       ??_C@_0BN@IBLMMFAP@?$GAnon?9type?9template?9parameter@ 0000000180022560     libvcruntime:undname.obj
 0002:00001580       ??_C@_03DLDNIBIK@?$CFlf@   0000000180022580     libvcruntime:undname.obj
 0002:00001584       ??_C@_04OFALKAJ@?$DP?$DP_C@ 0000000180022584     libvcruntime:undname.obj
 0002:0000158c       ??_C@_03KHICJKCI@?4?4?4@   000000018002258c     libvcruntime:undname.obj
 0002:00001590       ??_C@_04HIBGFPH@NULL@      0000000180022590     libvcruntime:undname.obj
 0002:00001598       ??_C@_02DPKJAMEF@?$CFd@    0000000180022598     libvcruntime:undname.obj
 0002:000015a0       ??_C@_0BK@IHCCFNEL@?$GAtemplate?9type?9parameter?9@ 00000001800225a0     libvcruntime:undname.obj
 0002:000015c0       ??_C@_0BK@OFCNNNKO@?$GAgeneric?9class?9parameter?9@ 00000001800225c0     libvcruntime:undname.obj
 0002:000015e0       ??_C@_0BL@NGJBLFIL@?$GAgeneric?9method?9parameter?9@ 00000001800225e0     libvcruntime:undname.obj
 0002:00001600       ??_C@_07OHNGEDJK@nullptr@  0000000180022600     libvcruntime:undname.obj
 0002:00001608       ??_C@_06COJIGPIB@lambda@   0000000180022608     libvcruntime:undname.obj
 0002:00001610       ??_C@_04GKJNKENE@void@     0000000180022610     libvcruntime:undname.obj
 0002:00001618       ??_C@_0BE@EODMJLIF@?$GAtemplate?9parameter@ 0000000180022618     libvcruntime:undname.obj
 0002:0000162c       ??_C@_03OPGICMGF@?$HN?8?5@ 000000018002262c     libvcruntime:undname.obj
 0002:00001630       ??_C@_02IGFCGPIL@?$HN?8@   0000000180022630     libvcruntime:undname.obj
 0002:00001638       ??_C@_0N@CBHHHENL@?$GAvtordispex?$HL@ 0000000180022638     libvcruntime:undname.obj
 0002:00001648       ??_C@_0L@GHPFDFH@?$GAvtordisp?$HL@ 0000000180022648     libvcruntime:undname.obj
 0002:00001658       ??_C@_0L@HNGCOGAE@?$GAadjustor?$HL@ 0000000180022658     libvcruntime:undname.obj
 0002:00001668       ??_C@_0CB@KJDOOODE@?$GAlocal?5static?5destructor?5helper@ 0000000180022668     libvcruntime:undname.obj
 0002:00001690       ??_C@_0DB@ILEFOCIJ@?$GAtemplate?5static?5data?5member?5co@ 0000000180022690     libvcruntime:undname.obj
 0002:000016c8       ??_C@_0DA@HGFJFBBE@?$GAtemplate?5static?5data?5member?5de@ 00000001800226c8     libvcruntime:undname.obj
 0002:000016f8       ??_C@_07PGOEDBHP@static?5@ 00000001800226f8     libvcruntime:undname.obj
 0002:00001700       ??_C@_08NIEOINHE@virtual?5@ 0000000180022700     libvcruntime:undname.obj
 0002:00001710       ??_C@_09LAPHOOG@private?3?5@ 0000000180022710     libvcruntime:undname.obj
 0002:00001720       ??_C@_0M@GAIFPFIP@protected?3?5@ 0000000180022720     libvcruntime:undname.obj
 0002:00001730       ??_C@_08GPDDCMKI@public?3?5@ 0000000180022730     libvcruntime:undname.obj
 0002:00001740       ??_C@_08KJLFOPNE@?$FLthunk?$FN?3@ 0000000180022740     libvcruntime:undname.obj
 0002:00001750       ??_C@_0M@DHNBOJMP@extern?5?$CCC?$CC?5@ 0000000180022750     libvcruntime:undname.obj
 0002:0000175c       ??_C@_02KCKGHPCA@?$CJ?5@   000000018002275c     libvcruntime:undname.obj
 0002:00001760       ??_C@_05CIHEBHNO@char?5@   0000000180022760     libvcruntime:undname.obj
 0002:00001768       ??_C@_06EHJMALKF@short?5@  0000000180022768     libvcruntime:undname.obj
 0002:00001770       ??_C@_04LAHKHJMA@int?5@    0000000180022770     libvcruntime:undname.obj
 0002:00001778       ??_C@_05CJIMAING@long?5@   0000000180022778     libvcruntime:undname.obj
 0002:00001780       ??_C@_09EBBEKKIH@unsigned?5@ 0000000180022780     libvcruntime:undname.obj
 0002:0000178c       ??_C@_05BEFAKPML@void?5@   000000018002278c     libvcruntime:undname.obj
 0002:00001798       ??_C@_09GAIEOBLP@volatile?5@ 0000000180022798     libvcruntime:undname.obj
 0002:000017a8       ??_C@_08PABEKFH@volatile@  00000001800227a8     libvcruntime:undname.obj
 0002:000017b8       ??_C@_0BA@LKIJLKPP@std?3?3nullptr_t?5@ 00000001800227b8     libvcruntime:undname.obj
 0002:000017c8       ??_C@_0P@GCOCNKDM@std?3?3nullptr_t@ 00000001800227c8     libvcruntime:undname.obj
 0002:000017d8       ??_C@_0L@EGPHHEKN@?$DMellipsis?$DO@ 00000001800227d8     libvcruntime:undname.obj
 0002:000017e4       ??_C@_04EENFHACM@?0?4?4?4@ 00000001800227e4     libvcruntime:undname.obj
 0002:000017f0       ??_C@_0M@ELJOJFFH@?0?$DMellipsis?$DO@ 00000001800227f0     libvcruntime:undname.obj
 0002:00001800       ??_C@_09DNHFEOJI@?5noexcept@ 0000000180022800     libvcruntime:undname.obj
 0002:0000180c       ??_C@_03PBJBJNON@cpu@      000000018002280c     libvcruntime:undname.obj
 0002:00001810       ??_C@_03DCBBJBAA@amp@      0000000180022810     libvcruntime:undname.obj
 0002:00001814       ??_C@_02KEGNLNML@?0?5@     0000000180022814     libvcruntime:undname.obj
 0002:00001818       ??_C@_04ENMBGAPA@char@     0000000180022818     libvcruntime:undname.obj
 0002:00001820       ??_C@_05BFKKPKCG@short@    0000000180022820     libvcruntime:undname.obj
 0002:00001828       ??_C@_03JBIPMCLC@int@      0000000180022828     libvcruntime:undname.obj
 0002:0000182c       ??_C@_04GOKPGOLB@long@     000000018002282c     libvcruntime:undname.obj
 0002:00001834       ??_C@_05KNFBNCOH@float@    0000000180022834     libvcruntime:undname.obj
 0002:0000183c       ??_C@_06BNJCAIGJ@double@   000000018002283c     libvcruntime:undname.obj
 0002:00001844       ??_C@_04DDKJGDCM@bool@     0000000180022844     libvcruntime:undname.obj
 0002:0000184c       ??_C@_06EBGKOKIG@__int8@   000000018002284c     libvcruntime:undname.obj
 0002:00001858       ??_C@_07ICFHOGAF@__int16@  0000000180022858     libvcruntime:undname.obj
 0002:00001860       ??_C@_07OFLPPHGP@__int32@  0000000180022860     libvcruntime:undname.obj
 0002:00001868       ??_C@_07LFCOJCAC@__int64@  0000000180022868     libvcruntime:undname.obj
 0002:00001870       ??_C@_08GAHOLHEO@__int128@ 0000000180022870     libvcruntime:undname.obj
 0002:00001880       ??_C@_09EEKGDCPH@?$DMunknown?$DO@ 0000000180022880     libvcruntime:undname.obj
 0002:00001890       ??_C@_07CFHGOPCN@char8_t@  0000000180022890     libvcruntime:undname.obj
 0002:00001898       ??_C@_08HBIPOFJB@char16_t@ 0000000180022898     libvcruntime:undname.obj
 0002:000018a8       ??_C@_08IECNCBKG@char32_t@ 00000001800228a8     libvcruntime:undname.obj
 0002:000018b8       ??_C@_07CLGGIAMF@wchar_t@  00000001800228b8     libvcruntime:undname.obj
 0002:000018c0       ??_C@_04HAPDLBFF@auto@     00000001800228c0     libvcruntime:undname.obj
 0002:000018c8       ??_C@_0P@LHCGKIGK@decltype?$CIauto?$CJ@ 00000001800228c8     libvcruntime:undname.obj
 0002:000018d8       ??_C@_05PCNBGHCF@this?5@   00000001800228d8     libvcruntime:undname.obj
 0002:000018e0       ??_C@_06GCICPBLB@__w64?5@  00000001800228e0     libvcruntime:undname.obj
 0002:000018e8       ??_C@_07NFANNNEC@UNKNOWN@  00000001800228e8     libvcruntime:undname.obj
 0002:000018f0       ??_C@_07EDHNAJHC@signed?5@ 00000001800228f0     libvcruntime:undname.obj
 0002:000018f8       ??_C@_05BNCCCJPP@const@    00000001800228f8     libvcruntime:undname.obj
 0002:00001900       ??_C@_09EFNPDFFP@?5volatile@ 0000000180022900     libvcruntime:undname.obj
 0002:00001910       ??_C@_0P@GCIFDJCJ@?$GAunknown?5ecsu?8@ 0000000180022910     libvcruntime:undname.obj
 0002:00001920       ??_C@_06MOJHIBMG@union?5@  0000000180022920     libvcruntime:undname.obj
 0002:00001928       ??_C@_07DIBCDNGL@struct?5@ 0000000180022928     libvcruntime:undname.obj
 0002:00001930       ??_C@_06LJBABKPM@class?5@  0000000180022930     libvcruntime:undname.obj
 0002:00001938       ??_C@_08KOFANOFK@coclass?5@ 0000000180022938     libvcruntime:undname.obj
 0002:00001948       ??_C@_0N@DLIEFKNA@cointerface?5@ 0000000180022948     libvcruntime:undname.obj
 0002:00001958       ??_C@_05LJGMCFOG@enum?5@   0000000180022958     libvcruntime:undname.obj
 0002:00001960       ??_C@_06LIJLOJAG@const?5@  0000000180022960     libvcruntime:undname.obj
 0002:00001968       ??_C@_02KJPKDIBN@?$CG?5@   0000000180022968     libvcruntime:undname.obj
 0002:0000196c       ??_C@_03PCKGMOPB@?$CG?$CG?5@ 000000018002296c     libvcruntime:undname.obj
 0002:00001970       ??_C@_0M@EALIELKG@cli?3?3array?$DM@ 0000000180022970     libvcruntime:undname.obj
 0002:00001980       ??_C@_0O@GKABPPIF@cli?3?3pin_ptr?$DM@ 0000000180022980     libvcruntime:undname.obj
 0002:00001990       ??_C@_02GOGNNPBN@?$CJ?$FL@ 0000000180022990     libvcruntime:undname.obj
 0002:00001994       ??_C@_06EEGAIFAK@?$HLflat?$HN@ 0000000180022994     libvcruntime:undname.obj
 0002:0000199c       ??_C@_05JIBOFOHK@?$HLfor?5@ 000000018002299c     libvcruntime:undname.obj
 0002:000019a4       ??_C@_02MDINNEEG@s?5@      00000001800229a4     libvcruntime:undname.obj
 0002:000019b0       ??_7charNode@@6B@          00000001800229b0     libvcruntime:undname.obj
 0002:000019d8       ??_7pcharNode@@6B@         00000001800229d8     libvcruntime:undname.obj
 0002:00001a00       ??_7pDNameNode@@6B@        0000000180022a00     libvcruntime:undname.obj
 0002:00001a28       ??_7DNameStatusNode@@6B@   0000000180022a28     libvcruntime:undname.obj
 0002:00001a50       ??_7pairNode@@6B@          0000000180022a50     libvcruntime:undname.obj
 0002:00001b70       ??_C@_04OKOHEJBO@?5?$DP?$DP?5@ 0000000180022b70     libvcruntime:undname.obj
 0002:00001b80       ?nodes@?1??make@DNameStatusNode@@SAPEBV2@W4DNameStatus@@@Z@4QBV2@B 0000000180022b80     libvcruntime:undname.obj
 0002:00001bc0       ?s_negLengthTab@FH4@@3QBCB 0000000180022bc0     libvcruntime:risctrnsctrl.obj
 0002:00001bd0       ?s_shiftTab@FH4@@3QBEB     0000000180022bd0     libvcruntime:risctrnsctrl.obj
 0002:00001d30       ??_C@_1DM@KHCHBNEB@?$AAa?$AAp?$AAi?$AA?9?$AAm?$AAs?$AA?9?$AAw?$AAi?$AAn?$AA?9?$AAc?$AAo?$AAr?$AAe@ 0000000180022d30     libvcruntime:winapi_downlevel.obj
 0002:00001d70       ??_C@_1DK@LPPGFMPP@?$AAa?$AAp?$AAi?$AA?9?$AAm?$AAs?$AA?9?$AAw?$AAi?$AAn?$AA?9?$AAc?$AAo?$AAr?$AAe@ 0000000180022d70     libvcruntime:winapi_downlevel.obj
 0002:00001db0       ??_C@_1BC@GDMECMAK@?$AAk?$AAe?$AAr?$AAn?$AAe?$AAl?$AA3?$AA2@ 0000000180022db0     libvcruntime:winapi_downlevel.obj
 0002:00001dc8       ??_C@_1BA@PFFKHIOG@?$AAa?$AAp?$AAi?$AA?9?$AAm?$AAs?$AA?9@ 0000000180022dc8     libvcruntime:winapi_downlevel.obj
 0002:00001de0       ??_C@_08KNHFBNJ@FlsAlloc@  0000000180022de0     libvcruntime:winapi_downlevel.obj
 0002:00001df8       ??_C@_07PEJMOBNF@FlsFree@  0000000180022df8     libvcruntime:winapi_downlevel.obj
 0002:00001e08       ??_C@_0M@GDNOONDI@FlsGetValue@ 0000000180022e08     libvcruntime:winapi_downlevel.obj
 0002:00001e20       ??_C@_0M@JCPCPOEF@FlsSetValue@ 0000000180022e20     libvcruntime:winapi_downlevel.obj
 0002:00001e38       ??_C@_0BM@HCFOFFN@InitializeCriticalSectionEx@ 0000000180022e38     libvcruntime:winapi_downlevel.obj
 0002:00001e60       ??_7exception@std@@6B@     0000000180022e60     libvcruntime:frame.obj
 0002:00001e70       ??_C@_0BC@EOODALEL@Unknown?5exception@ 0000000180022e70     libvcruntime:frame.obj
 0002:00001e90       ??_7bad_exception@std@@6B@ 0000000180022e90     libvcruntime:frame.obj
 0002:00001ea0       ??_C@_0O@DPKOEFFH@bad?5exception@ 0000000180022ea0     libvcruntime:frame.obj
 0002:00001eb0       __acrt_exception_action_table 0000000180022eb0     libucrt:exception_filter.obj
 0002:00001f70       __acrt_signal_action_table_count 0000000180022f70     libucrt:exception_filter.obj
 0002:00001f78       __acrt_signal_action_first_fpe_index 0000000180022f78     libucrt:exception_filter.obj
 0002:00001f80       __acrt_signal_action_fpe_count 0000000180022f80     libucrt:exception_filter.obj
 0002:00001fd8       ??_C@_1BI@BGOHAHKC@?$AAm?$AAs?$AAc?$AAo?$AAr?$AAe?$AAe?$AA?4?$AAd?$AAl?$AAl@ 0000000180022fd8     libucrt:exit.obj
 0002:00001ff0       ??_C@_0P@MIGLKIOC@CorExitProcess@ 0000000180022ff0     libucrt:exit.obj
 0002:00002150       ?standard_lookup_table_spectre@__crt_stdio_output@@3V?$spectre_mitigated_lookup_table@Ustate_transition_pair@__crt_stdio_output@@$0IA@@1@B 0000000180023150     libucrt:output.obj
 0002:00002250       ?format_validation_lookup_table_spectre@__crt_stdio_output@@3V?$spectre_mitigated_lookup_table@Ustate_transition_pair@__crt_stdio_output@@$0IA@@1@B 0000000180023250     libucrt:output.obj
 0002:00002350       ??_C@_1O@CEDCILHN@?$AA?$CI?$AAn?$AAu?$AAl?$AAl?$AA?$CJ@ 0000000180023350     libucrt:output.obj
 0002:00002360       ??_C@_06OJHGLDPL@?$CInull?$CJ@ 0000000180023360     libucrt:output.obj
 0002:000024f8       ??_C@_1M@HPNHIDJI@?$AAj?$AAa?$AA?9?$AAJ?$AAP@ 00000001800234f8     libucrt:mbctype.obj
 0002:00002508       ??_C@_1M@BIBDDEMK@?$AAz?$AAh?$AA?9?$AAC?$AAN@ 0000000180023508     libucrt:mbctype.obj
 0002:00002518       ??_C@_1M@JLOOOEGK@?$AAk?$AAo?$AA?9?$AAK?$AAR@ 0000000180023518     libucrt:mbctype.obj
 0002:00002528       ??_C@_1M@CLNBBOPM@?$AAz?$AAh?$AA?9?$AAT?$AAW@ 0000000180023528     libucrt:mbctype.obj
 0002:000025f0       ??_C@_1EA@JGEFHKEI@?$AAa?$AAp?$AAi?$AA?9?$AAm?$AAs?$AA?9?$AAw?$AAi?$AAn?$AA?9?$AAc?$AAo?$AAr?$AAe@ 00000001800235f0     libucrt:winapi_thunks.obj
 0002:00002630       ??_C@_1DI@KMEPCBPN@?$AAa?$AAp?$AAi?$AA?9?$AAm?$AAs?$AA?9?$AAw?$AAi?$AAn?$AA?9?$AAc?$AAo?$AAr?$AAe@ 0000000180023630     libucrt:winapi_thunks.obj
 0002:00002668       ??_C@_1DI@IJCEHOCB@?$AAa?$AAp?$AAi?$AA?9?$AAm?$AAs?$AA?9?$AAw?$AAi?$AAn?$AA?9?$AAc?$AAo?$AAr?$AAe@ 0000000180023668     libucrt:winapi_thunks.obj
 0002:000026a0       ??_C@_1EI@MPIAOHOC@?$AAa?$AAp?$AAi?$AA?9?$AAm?$AAs?$AA?9?$AAw?$AAi?$AAn?$AA?9?$AAc?$AAo?$AAr?$AAe@ 00000001800236a0     libucrt:winapi_thunks.obj
 0002:000026f0       ??_C@_1FK@FPHCKFIE@?$AAa?$AAp?$AAi?$AA?9?$AAm?$AAs?$AA?9?$AAw?$AAi?$AAn?$AA?9?$AAc?$AAo?$AAr?$AAe@ 00000001800236f0     libucrt:winapi_thunks.obj
 0002:00002750       ??_C@_1EM@DILCGIIO@?$AAa?$AAp?$AAi?$AA?9?$AAm?$AAs?$AA?9?$AAw?$AAi?$AAn?$AA?9?$AAc?$AAo?$AAr?$AAe@ 0000000180023750     libucrt:winapi_thunks.obj
 0002:000027a0       ??_C@_1DM@LNCGDDPN@?$AAa?$AAp?$AAi?$AA?9?$AAm?$AAs?$AA?9?$AAw?$AAi?$AAn?$AA?9?$AAc?$AAo?$AAr?$AAe@ 00000001800237a0     libucrt:winapi_thunks.obj
 0002:000027e0       ??_C@_1DO@FPAPJEMD@?$AAa?$AAp?$AAi?$AA?9?$AAm?$AAs?$AA?9?$AAw?$AAi?$AAn?$AA?9?$AAc?$AAo?$AAr?$AAe@ 00000001800237e0     libucrt:winapi_thunks.obj
 0002:00002820       ??_C@_1DK@NDHNAHIO@?$AAa?$AAp?$AAi?$AA?9?$AAm?$AAs?$AA?9?$AAw?$AAi?$AAn?$AA?9?$AAc?$AAo?$AAr?$AAe@ 0000000180023820     libucrt:winapi_thunks.obj
 0002:00002860       ??_C@_1DM@KGHDGBCM@?$AAa?$AAp?$AAi?$AA?9?$AAm?$AAs?$AA?9?$AAw?$AAi?$AAn?$AA?9?$AAc?$AAo?$AAr?$AAe@ 0000000180023860     libucrt:winapi_thunks.obj
 0002:000028a0       ??_C@_1EO@IJIOEFOH@?$AAa?$AAp?$AAi?$AA?9?$AAm?$AAs?$AA?9?$AAw?$AAi?$AAn?$AA?9?$AAr?$AAt?$AAc?$AAo@ 00000001800238a0     libucrt:winapi_thunks.obj
 0002:000028f0       ??_C@_1FG@HHGEKANL@?$AAa?$AAp?$AAi?$AA?9?$AAm?$AAs?$AA?9?$AAw?$AAi?$AAn?$AA?9?$AAs?$AAe?$AAc?$AAu@ 00000001800238f0     libucrt:winapi_thunks.obj
 0002:00002950       ??_C@_1EG@DBIOJECG@?$AAe?$AAx?$AAt?$AA?9?$AAm?$AAs?$AA?9?$AAw?$AAi?$AAn?$AA?9?$AAn?$AAt?$AAu?$AAs@ 0000000180023950     libucrt:winapi_thunks.obj
 0002:000029a0       ??_C@_1EO@FIHMJCLF@?$AAe?$AAx?$AAt?$AA?9?$AAm?$AAs?$AA?9?$AAw?$AAi?$AAn?$AA?9?$AAn?$AAt?$AAu?$AAs@ 00000001800239a0     libucrt:winapi_thunks.obj
 0002:000029f0       ??_C@_1BC@DNHGCMLG@?$AAa?$AAd?$AAv?$AAa?$AAp?$AAi?$AA3?$AA2@ 00000001800239f0     libucrt:winapi_thunks.obj
 0002:00002a08       ??_C@_1BG@CJPGBMEF@?$AAk?$AAe?$AAr?$AAn?$AAe?$AAl?$AAb?$AAa?$AAs?$AAe@ 0000000180023a08     libucrt:winapi_thunks.obj
 0002:00002a20       ??_C@_1M@OAIMIKLP@?$AAn?$AAt?$AAd?$AAl?$AAl@ 0000000180023a20     libucrt:winapi_thunks.obj
 0002:00002a30       ??_C@_1EG@DPGNFKGC@?$AAa?$AAp?$AAi?$AA?9?$AAm?$AAs?$AA?9?$AAw?$AAi?$AAn?$AA?9?$AAa?$AAp?$AAp?$AAm@ 0000000180023a30     libucrt:winapi_thunks.obj
 0002:00002a78       ??_C@_1O@BCCLBEOE@?$AAu?$AAs?$AAe?$AAr?$AA3?$AA2@ 0000000180023a78     libucrt:winapi_thunks.obj
 0002:00002a88       ??_C@_1BA@IAIFMGEF@?$AAe?$AAx?$AAt?$AA?9?$AAm?$AAs?$AA?9@ 0000000180023a88     libucrt:winapi_thunks.obj
 0002:00002aa0       ??_C@_0BA@FHFNEAED@AreFileApisANSI@ 0000000180023aa0     libucrt:winapi_thunks.obj
 0002:00002ac0       ??_C@_0O@KKBNKAPF@LCMapStringEx@ 0000000180023ac0     libucrt:winapi_thunks.obj
 0002:00002ad8       ??_C@_0BB@HBDEELFH@LocaleNameToLCID@ 0000000180023ad8     libucrt:winapi_thunks.obj
 0002:00002af0       ??_C@_0CF@OJOFEIGO@AppPolicyGetProcessTerminationM@ 0000000180023af0     libucrt:winapi_thunks.obj
 0002:00002b20       __lc_time_c                0000000180023b20     libucrt:nlsdata.obj
 0002:00002de0       ??_C@_03KOEHGMDN@Sun@      0000000180023de0     libucrt:nlsdata.obj
 0002:00002de4       ??_C@_03PDAGKDH@Mon@       0000000180023de4     libucrt:nlsdata.obj
 0002:00002de8       ??_C@_03NAGEINEP@Tue@      0000000180023de8     libucrt:nlsdata.obj
 0002:00002dec       ??_C@_03MHOMLAJA@Wed@      0000000180023dec     libucrt:nlsdata.obj
 0002:00002df0       ??_C@_03IOFIKPDN@Thu@      0000000180023df0     libucrt:nlsdata.obj
 0002:00002df4       ??_C@_03IDIOELNC@Fri@      0000000180023df4     libucrt:nlsdata.obj
 0002:00002df8       ??_C@_03FEFJNEK@Sat@       0000000180023df8     libucrt:nlsdata.obj
 0002:00002dfc       ??_C@_06OOPIFAJ@Sunday@    0000000180023dfc     libucrt:nlsdata.obj
 0002:00002e04       ??_C@_06JLEDEDGH@Monday@   0000000180023e04     libucrt:nlsdata.obj
 0002:00002e10       ??_C@_07BAAGCFCM@Tuesday@  0000000180023e10     libucrt:nlsdata.obj
 0002:00002e18       ??_C@_09DLIGFAKA@Wednesday@ 0000000180023e18     libucrt:nlsdata.obj
 0002:00002e28       ??_C@_08HACCIKIA@Thursday@ 0000000180023e28     libucrt:nlsdata.obj
 0002:00002e34       ??_C@_06JECMNKMI@Friday@   0000000180023e34     libucrt:nlsdata.obj
 0002:00002e40       ??_C@_08INBOOONO@Saturday@ 0000000180023e40     libucrt:nlsdata.obj
 0002:00002e4c       ??_C@_03JIHJHPIE@Jan@      0000000180023e4c     libucrt:nlsdata.obj
 0002:00002e50       ??_C@_03HJBDCHOM@Feb@      0000000180023e50     libucrt:nlsdata.obj
 0002:00002e54       ??_C@_03ODNJBKGA@Mar@      0000000180023e54     libucrt:nlsdata.obj
 0002:00002e58       ??_C@_03LEOLGMJP@Apr@      0000000180023e58     libucrt:nlsdata.obj
 0002:00002e5c       ??_C@_03CNMDKL@May@        0000000180023e5c     libucrt:nlsdata.obj
 0002:00002e60       ??_C@_03IDFGHECI@Jun@      0000000180023e60     libucrt:nlsdata.obj
 0002:00002e64       ??_C@_03LBGABGKK@Jul@      0000000180023e64     libucrt:nlsdata.obj
 0002:00002e68       ??_C@_03IFJFEIGA@Aug@      0000000180023e68     libucrt:nlsdata.obj
 0002:00002e6c       ??_C@_03GGCAPAJC@Sep@      0000000180023e6c     libucrt:nlsdata.obj
 0002:00002e70       ??_C@_03BMAOKBAD@Oct@      0000000180023e70     libucrt:nlsdata.obj
 0002:00002e74       ??_C@_03JPJOFNIA@Nov@      0000000180023e74     libucrt:nlsdata.obj
 0002:00002e78       ??_C@_03MKABNOCG@Dec@      0000000180023e78     libucrt:nlsdata.obj
 0002:00002e80       ??_C@_07CGJPFGJA@January@  0000000180023e80     libucrt:nlsdata.obj
 0002:00002e88       ??_C@_08GNJGEPFN@February@ 0000000180023e88     libucrt:nlsdata.obj
 0002:00002e94       ??_C@_05HPCKOFNC@March@    0000000180023e94     libucrt:nlsdata.obj
 0002:00002e9c       ??_C@_05DMJDNLEJ@April@    0000000180023e9c     libucrt:nlsdata.obj
 0002:00002ea4       ??_C@_04CNLMGBGM@June@     0000000180023ea4     libucrt:nlsdata.obj
 0002:00002eac       ??_C@_04MIEPOIFP@July@     0000000180023eac     libucrt:nlsdata.obj
 0002:00002eb4       ??_C@_06LBBHFDDG@August@   0000000180023eb4     libucrt:nlsdata.obj
 0002:00002ec0       ??_C@_09BHHEALKD@September@ 0000000180023ec0     libucrt:nlsdata.obj
 0002:00002ed0       ??_C@_07JJNFCEND@October@  0000000180023ed0     libucrt:nlsdata.obj
 0002:00002ed8       ??_C@_08HCHEGEOA@November@ 0000000180023ed8     libucrt:nlsdata.obj
 0002:00002ee8       ??_C@_08EDHMEBNP@December@ 0000000180023ee8     libucrt:nlsdata.obj
 0002:00002ef4       ??_C@_02DEDBPAFC@AM@       0000000180023ef4     libucrt:nlsdata.obj
 0002:00002ef8       ??_C@_02CJNFDJBF@PM@       0000000180023ef8     libucrt:nlsdata.obj
 0002:00002f00       ??_C@_08BPBNCDIB@MM?1dd?1yy@ 0000000180023f00     libucrt:nlsdata.obj
 0002:00002f10       ??_C@_0BE@CKGJFCPC@dddd?0?5MMMM?5dd?0?5yyyy@ 0000000180023f10     libucrt:nlsdata.obj
 0002:00002f28       ??_C@_08JCCMCCIL@HH?3mm?3ss@ 0000000180023f28     libucrt:nlsdata.obj
 0002:00002f38       ??_C@_17MBGCMIPB@?$AAS?$AAu?$AAn@ 0000000180023f38     libucrt:nlsdata.obj
 0002:00002f40       ??_C@_17KBOMKBF@?$AAM?$AAo?$AAn@ 0000000180023f40     libucrt:nlsdata.obj
 0002:00002f48       ??_C@_17BMKGEGOJ@?$AAT?$AAu?$AAe@ 0000000180023f48     libucrt:nlsdata.obj
 0002:00002f50       ??_C@_17CJEDCEPE@?$AAW?$AAe?$AAd@ 0000000180023f50     libucrt:nlsdata.obj
 0002:00002f58       ??_C@_17PDPHAADD@?$AAT?$AAh?$AAu@ 0000000180023f58     libucrt:nlsdata.obj
 0002:00002f60       ??_C@_17HFOLPPLP@?$AAF?$AAr?$AAi@ 0000000180023f60     libucrt:nlsdata.obj
 0002:00002f68       ??_C@_17GGIBDPIH@?$AAS?$AAa?$AAt@ 0000000180023f68     libucrt:nlsdata.obj
 0002:00002f70       ??_C@_1O@IHNHDHPB@?$AAS?$AAu?$AAn?$AAd?$AAa?$AAy@ 0000000180023f70     libucrt:nlsdata.obj
 0002:00002f80       ??_C@_1O@MMNBFLIA@?$AAM?$AAo?$AAn?$AAd?$AAa?$AAy@ 0000000180023f80     libucrt:nlsdata.obj
 0002:00002f90       ??_C@_1BA@ENFBFFEK@?$AAT?$AAu?$AAe?$AAs?$AAd?$AAa?$AAy@ 0000000180023f90     libucrt:nlsdata.obj
 0002:00002fa0       ??_C@_1BE@EBOGMDOH@?$AAW?$AAe?$AAd?$AAn?$AAe?$AAs?$AAd?$AAa?$AAy@ 0000000180023fa0     libucrt:nlsdata.obj
 0002:00002fb8       ??_C@_1BC@HHMNLIHE@?$AAT?$AAh?$AAu?$AAr?$AAs?$AAd?$AAa?$AAy@ 0000000180023fb8     libucrt:nlsdata.obj
 0002:00002fd0       ??_C@_1O@PDICJHAG@?$AAF?$AAr?$AAi?$AAd?$AAa?$AAy@ 0000000180023fd0     libucrt:nlsdata.obj
 0002:00002fe0       ??_C@_1BC@ENMNNPAJ@?$AAS?$AAa?$AAt?$AAu?$AAr?$AAd?$AAa?$AAy@ 0000000180023fe0     libucrt:nlsdata.obj
 0002:00002ff8       ??_C@_17DKNBKCHM@?$AAJ?$AAa?$AAn@ 0000000180023ff8     libucrt:nlsdata.obj
 0002:00003000       ??_C@_17LMDJEKJN@?$AAF?$AAe?$AAb@ 0000000180024000     libucrt:nlsdata.obj
 0002:00003008       ??_C@_17CKNLEDEC@?$AAM?$AAa?$AAr@ 0000000180024008     libucrt:nlsdata.obj
 0002:00003010       ??_C@_17LFPOIHDD@?$AAA?$AAp?$AAr@ 0000000180024010     libucrt:nlsdata.obj
 0002:00003018       ??_C@_17PNNKMEED@?$AAM?$AAa?$AAy@ 0000000180024018     libucrt:nlsdata.obj
 0002:00003020       ??_C@_17KCJGOCPB@?$AAJ?$AAu?$AAn@ 0000000180024020     libucrt:nlsdata.obj
 0002:00003028       ??_C@_17IJPCKHK@?$AAJ?$AAu?$AAl@ 0000000180024028     libucrt:nlsdata.obj
 0002:00003030       ??_C@_17ICPELBCN@?$AAA?$AAu?$AAg@ 0000000180024030     libucrt:nlsdata.obj
 0002:00003038       ??_C@_17HCHCOKMG@?$AAS?$AAe?$AAp@ 0000000180024038     libucrt:nlsdata.obj
 0002:00003040       ??_C@_17FNLKOI@?$AAO?$AAc?$AAt@ 0000000180024040     libucrt:nlsdata.obj
 0002:00003048       ??_C@_17BBDMLCIG@?$AAN?$AAo?$AAv@ 0000000180024048     libucrt:nlsdata.obj
 0002:00003050       ??_C@_17EGKACKIF@?$AAD?$AAe?$AAc@ 0000000180024050     libucrt:nlsdata.obj
 0002:00003058       ??_C@_1BA@EFMEIEBA@?$AAJ?$AAa?$AAn?$AAu?$AAa?$AAr?$AAy@ 0000000180024058     libucrt:nlsdata.obj
 0002:00003068       ??_C@_1BC@JGDDFFAM@?$AAF?$AAe?$AAb?$AAr?$AAu?$AAa?$AAr?$AAy@ 0000000180024068     libucrt:nlsdata.obj
 0002:00003080       ??_C@_1M@IKEENEDF@?$AAM?$AAa?$AAr?$AAc?$AAh@ 0000000180024080     libucrt:nlsdata.obj
 0002:00003090       ??_C@_1M@GJNLMHFD@?$AAA?$AAp?$AAr?$AAi?$AAl@ 0000000180024090     libucrt:nlsdata.obj
 0002:000030a0       ??_C@_19EPFLPGAP@?$AAJ?$AAu?$AAn?$AAe@ 00000001800240a0     libucrt:nlsdata.obj
 0002:000030b0       ??_C@_19BIFMLPCD@?$AAJ?$AAu?$AAl?$AAy@ 00000001800240b0     libucrt:nlsdata.obj
 0002:000030c0       ??_C@_1O@PAHLKOAC@?$AAA?$AAu?$AAg?$AAu?$AAs?$AAt@ 00000001800240c0     libucrt:nlsdata.obj
 0002:000030d0       ??_C@_1BE@DKAAMBJL@?$AAS?$AAe?$AAp?$AAt?$AAe?$AAm?$AAb?$AAe?$AAr@ 00000001800240d0     libucrt:nlsdata.obj
 0002:000030e8       ??_C@_1BA@EPANDLNG@?$AAO?$AAc?$AAt?$AAo?$AAb?$AAe?$AAr@ 00000001800240e8     libucrt:nlsdata.obj
 0002:000030f8       ??_C@_1BC@BGLIFPF@?$AAN?$AAo?$AAv?$AAe?$AAm?$AAb?$AAe?$AAr@ 00000001800240f8     libucrt:nlsdata.obj
 0002:00003110       ??_C@_1BC@FEMKIFH@?$AAD?$AAe?$AAc?$AAe?$AAm?$AAb?$AAe?$AAr@ 0000000180024110     libucrt:nlsdata.obj
 0002:00003124       ??_C@_15ODEHAHHF@?$AAA?$AAM@ 0000000180024124     libucrt:nlsdata.obj
 0002:0000312c       ??_C@_15CLMNNGEL@?$AAP?$AAM@ 000000018002412c     libucrt:nlsdata.obj
 0002:00003138       ??_C@_1BC@IEBCMHCM@?$AAM?$AAM?$AA?1?$AAd?$AAd?$AA?1?$AAy?$AAy@ 0000000180024138     libucrt:nlsdata.obj
 0002:00003150       ??_C@_1CI@KNAKOEBC@?$AAd?$AAd?$AAd?$AAd?$AA?0?$AA?5?$AAM?$AAM?$AAM?$AAM?$AA?5?$AAd?$AAd?$AA?0?$AA?5@ 0000000180024150     libucrt:nlsdata.obj
 0002:00003178       ??_C@_1BC@GDGBMEMK@?$AAH?$AAH?$AA?3?$AAm?$AAm?$AA?3?$AAs?$AAs@ 0000000180024178     libucrt:nlsdata.obj
 0002:00003190       ??_C@_1M@BMHNFIME@?$AAe?$AAn?$AA?9?$AAU?$AAS@ 0000000180024190     libucrt:nlsdata.obj
 0002:00003220       ??_C@_03OEIAHPBN@INF@      0000000180024220     libucrt:cvt.obj
 0002:00003224       ??_C@_03OJHLLCGB@inf@      0000000180024224     libucrt:cvt.obj
 0002:00003228       ??_C@_03LKNCIKJB@NAN@      0000000180024228     libucrt:cvt.obj
 0002:0000322c       ??_C@_03LHCJEHON@nan@      000000018002422c     libucrt:cvt.obj
 0002:00003230       ??_C@_09OFJJIMPC@NAN?$CISNAN?$CJ@ 0000000180024230     libucrt:cvt.obj
 0002:00003240       ??_C@_09IPFBKMDL@nan?$CIsnan?$CJ@ 0000000180024240     libucrt:cvt.obj
 0002:00003250       ??_C@_08IKHNHAJ@NAN?$CIIND?$CJ@ 0000000180024250     libucrt:cvt.obj
 0002:00003260       ??_C@_08OFCDMILK@nan?$CIind?$CJ@ 0000000180024260     libucrt:cvt.obj
 0002:0000326c       ??_C@_05KLBDPFGC@e?$CL000@ 000000018002426c     libucrt:cvt.obj
 0002:00003280       __newctype                 0000000180024280     libucrt:ctype.obj
 0002:00003580       __newclmap                 0000000180024580     libucrt:ctype.obj
 0002:00003700       __newcumap                 0000000180024700     libucrt:ctype.obj
 0002:000046c0       ??_C@_15EMKDOKLE@?$AAa?$AAr@ 00000001800256c0     libucrt:lcidtoname_downlevel.obj
 0002:000046c8       ??_C@_15KNPADPLH@?$AAb?$AAg@ 00000001800256c8     libucrt:lcidtoname_downlevel.obj
 0002:000046d0       ??_C@_15EDMHLDMO@?$AAc?$AAa@ 00000001800256d0     libucrt:lcidtoname_downlevel.obj
 0002:000046d8       ??_C@_1O@BPEAJADD@?$AAz?$AAh?$AA?9?$AAC?$AAH?$AAS@ 00000001800256d8     libucrt:lcidtoname_downlevel.obj
 0002:000046e8       ??_C@_15LJNHCMNK@?$AAc?$AAs@ 00000001800256e8     libucrt:lcidtoname_downlevel.obj
 0002:000046f0       ??_C@_15FOMCIDHG@?$AAd?$AAa@ 00000001800256f0     libucrt:lcidtoname_downlevel.obj
 0002:000046f8       ??_C@_15NBKABECB@?$AAd?$AAe@ 00000001800256f8     libucrt:lcidtoname_downlevel.obj
 0002:00004700       ??_C@_15GHPEIIAO@?$AAe?$AAl@ 0000000180025700     libucrt:lcidtoname_downlevel.obj
 0002:00004708       ??_C@_15MNPNEAIF@?$AAe?$AAn@ 0000000180025708     libucrt:lcidtoname_downlevel.obj
 0002:00004710       ??_C@_15GPIOMPMH@?$AAe?$AAs@ 0000000180025710     libucrt:lcidtoname_downlevel.obj
 0002:00004718       ??_C@_15NGLOAKJC@?$AAf?$AAi@ 0000000180025718     libucrt:lcidtoname_downlevel.obj
 0002:00004720       ??_C@_15FBKGNKAM@?$AAf?$AAr@ 0000000180025720     libucrt:lcidtoname_downlevel.obj
 0002:00004728       ??_C@_15KGGCNEFK@?$AAh?$AAe@ 0000000180025728     libucrt:lcidtoname_downlevel.obj
 0002:00004730       ??_C@_15PGHLIDMF@?$AAh?$AAu@ 0000000180025730     libucrt:lcidtoname_downlevel.obj
 0002:00004738       ??_C@_15BIEMAPLM@?$AAi?$AAs@ 0000000180025738     libucrt:lcidtoname_downlevel.obj
 0002:00004740       ??_C@_15IFJLDHAF@?$AAi?$AAt@ 0000000180025740     libucrt:lcidtoname_downlevel.obj
 0002:00004748       ??_C@_15GEMIOCAG@?$AAj?$AAa@ 0000000180025748     libucrt:lcidtoname_downlevel.obj
 0002:00004750       ??_C@_15EPELEGJA@?$AAk?$AAo@ 0000000180025750     libucrt:lcidtoname_downlevel.obj
 0002:00004758       ??_C@_15NDDHIMN@?$AAn?$AAl@ 0000000180025758     libucrt:lcidtoname_downlevel.obj
 0002:00004760       ??_C@_15BPIGNHCD@?$AAn?$AAo@ 0000000180025760     libucrt:lcidtoname_downlevel.obj
 0002:00004768       ??_C@_15DEOPBLCG@?$AAp?$AAl@ 0000000180025768     libucrt:lcidtoname_downlevel.obj
 0002:00004770       ??_C@_15KBECGEFG@?$AAp?$AAt@ 0000000180025770     libucrt:lcidtoname_downlevel.obj
 0002:00004778       ??_C@_15GLJCBFMD@?$AAr?$AAo@ 0000000180025778     libucrt:lcidtoname_downlevel.obj
 0002:00004780       ??_C@_15FEDGKCDI@?$AAr?$AAu@ 0000000180025780     libucrt:lcidtoname_downlevel.obj
 0002:00004788       ??_C@_15GLKMLLHM@?$AAh?$AAr@ 0000000180025788     libucrt:lcidtoname_downlevel.obj
 0002:00004790       ??_C@_15CPKMFBDB@?$AAs?$AAk@ 0000000180025790     libucrt:lcidtoname_downlevel.obj
 0002:00004798       ??_C@_15BAAIOGMK@?$AAs?$AAq@ 0000000180025798     libucrt:lcidtoname_downlevel.obj
 0002:000047a0       ??_C@_15INNPNOHD@?$AAs?$AAv@ 00000001800257a0     libucrt:lcidtoname_downlevel.obj
 0002:000047a8       ??_C@_15CABMMOGH@?$AAt?$AAh@ 00000001800257a8     libucrt:lcidtoname_downlevel.obj
 0002:000047b0       ??_C@_15BPLIHJJM@?$AAt?$AAr@ 00000001800257b0     libucrt:lcidtoname_downlevel.obj
 0002:000047b8       ??_C@_15NEOEKKDJ@?$AAu?$AAr@ 00000001800257b8     libucrt:lcidtoname_downlevel.obj
 0002:000047c0       ??_C@_15NFICGAJK@?$AAi?$AAd@ 00000001800257c0     libucrt:lcidtoname_downlevel.obj
 0002:000047c8       ??_C@_15PJPFLCCM@?$AAu?$AAk@ 00000001800257c8     libucrt:lcidtoname_downlevel.obj
 0002:000047d0       ??_C@_15HPJPHDM@?$AAb?$AAe@ 00000001800257d0     libucrt:lcidtoname_downlevel.obj
 0002:000047d8       ??_C@_15LCHLGJII@?$AAs?$AAl@ 00000001800257d8     libucrt:lcidtoname_downlevel.obj
 0002:000047e0       ??_C@_15PCFJPHHO@?$AAe?$AAt@ 00000001800257e0     libucrt:lcidtoname_downlevel.obj
 0002:000047e8       ??_C@_15HPFPGODN@?$AAl?$AAv@ 00000001800257e8     libucrt:lcidtoname_downlevel.obj
 0002:000047f0       ??_C@_15NFFGKGLG@?$AAl?$AAt@ 00000001800257f0     libucrt:lcidtoname_downlevel.obj
 0002:000047f8       ??_C@_15BDAKCCHN@?$AAf?$AAa@ 00000001800257f8     libucrt:lcidtoname_downlevel.obj
 0002:00004800       ??_C@_15NFGIAIAJ@?$AAv?$AAi@ 0000000180025800     libucrt:lcidtoname_downlevel.obj
 0002:00004808       ??_C@_15LMKNDMHN@?$AAh?$AAy@ 0000000180025808     libucrt:lcidtoname_downlevel.obj
 0002:00004810       ??_C@_15IJBHMCFL@?$AAa?$AAz@ 0000000180025810     libucrt:lcidtoname_downlevel.obj
 0002:00004818       ??_C@_15EKOFJABL@?$AAe?$AAu@ 0000000180025818     libucrt:lcidtoname_downlevel.obj
 0002:00004820       ??_C@_15BGHADCNK@?$AAm?$AAk@ 0000000180025820     libucrt:lcidtoname_downlevel.obj
 0002:00004828       ??_C@_15JDNICKHM@?$AAa?$AAf@ 0000000180025828     libucrt:lcidtoname_downlevel.obj
 0002:00004830       ??_C@_15KPJEDBKD@?$AAk?$AAa@ 0000000180025830     libucrt:lcidtoname_downlevel.obj
 0002:00004838       ??_C@_15PDNFFFEO@?$AAf?$AAo@ 0000000180025838     libucrt:lcidtoname_downlevel.obj
 0002:00004840       ??_C@_15OMLEGLOC@?$AAh?$AAi@ 0000000180025840     libucrt:lcidtoname_downlevel.obj
 0002:00004848       ??_C@_15IDNNENKK@?$AAm?$AAs@ 0000000180025848     libucrt:lcidtoname_downlevel.obj
 0002:00004850       ??_C@_15MACJNBMH@?$AAk?$AAk@ 0000000180025850     libucrt:lcidtoname_downlevel.obj
 0002:00004858       ??_C@_15DKDJEOND@?$AAk?$AAy@ 0000000180025858     libucrt:lcidtoname_downlevel.obj
 0002:00004860       ??_C@_15DFGDLJBG@?$AAs?$AAw@ 0000000180025860     libucrt:lcidtoname_downlevel.obj
 0002:00004868       ??_C@_15BBFAICNG@?$AAu?$AAz@ 0000000180025868     libucrt:lcidtoname_downlevel.obj
 0002:00004870       ??_C@_15DKNDCGEA@?$AAt?$AAt@ 0000000180025870     libucrt:lcidtoname_downlevel.obj
 0002:00004878       ??_C@_15MGIFMDPL@?$AAp?$AAa@ 0000000180025878     libucrt:lcidtoname_downlevel.obj
 0002:00004880       ??_C@_15HCNDBBA@?$AAg?$AAu@ 0000000180025880     libucrt:lcidtoname_downlevel.obj
 0002:00004888       ??_C@_15FNBEIBON@?$AAt?$AAa@ 0000000180025888     libucrt:lcidtoname_downlevel.obj
 0002:00004890       ??_C@_15NCHGBGLK@?$AAt?$AAe@ 0000000180025890     libucrt:lcidtoname_downlevel.obj
 0002:00004898       ??_C@_15PHPHCBPF@?$AAk?$AAn@ 0000000180025898     libucrt:lcidtoname_downlevel.obj
 0002:000048a0       ??_C@_15DLGBCKMP@?$AAm?$AAr@ 00000001800258a0     libucrt:lcidtoname_downlevel.obj
 0002:000048a8       ??_C@_15EABBLBFF@?$AAs?$AAa@ 00000001800258a8     libucrt:lcidtoname_downlevel.obj
 0002:000048b0       ??_C@_15CBKOMCOI@?$AAm?$AAn@ 00000001800258b0     libucrt:lcidtoname_downlevel.obj
 0002:000048b8       ??_C@_15CKDMCJAF@?$AAg?$AAl@ 00000001800258b8     libucrt:lcidtoname_downlevel.obj
 0002:000048c0       ??_C@_17CNJFBPG@?$AAk?$AAo?$AAk@ 00000001800258c0     libucrt:lcidtoname_downlevel.obj
 0002:000048c8       ??_C@_17FFBJICPL@?$AAs?$AAy?$AAr@ 00000001800258c8     libucrt:lcidtoname_downlevel.obj
 0002:000048d0       ??_C@_17KPNDCPAF@?$AAd?$AAi?$AAv@ 00000001800258d0     libucrt:lcidtoname_downlevel.obj
 0002:000048d8       ??_C@_11LOCGONAA@@         00000001800258d8     libucrt:lcidtoname_downlevel.obj
 0002:000048e0       ??_C@_1M@OKAHONE@?$AAa?$AAr?$AA?9?$AAS?$AAA@ 00000001800258e0     libucrt:lcidtoname_downlevel.obj
 0002:000048f0       ??_C@_1M@FFFIGIGK@?$AAb?$AAg?$AA?9?$AAB?$AAG@ 00000001800258f0     libucrt:lcidtoname_downlevel.obj
 0002:00004900       ??_C@_1M@BJNKEDC@?$AAc?$AAa?$AA?9?$AAE?$AAS@ 0000000180025900     libucrt:lcidtoname_downlevel.obj
 0002:00004910       ??_C@_1M@IJJHFJHA@?$AAc?$AAs?$AA?9?$AAC?$AAZ@ 0000000180025910     libucrt:lcidtoname_downlevel.obj
 0002:00004920       ??_C@_1M@CLPEOBGI@?$AAd?$AAa?$AA?9?$AAD?$AAK@ 0000000180025920     libucrt:lcidtoname_downlevel.obj
 0002:00004930       ??_C@_1M@MCMADGCB@?$AAd?$AAe?$AA?9?$AAD?$AAE@ 0000000180025930     libucrt:lcidtoname_downlevel.obj
 0002:00004940       ??_C@_1M@OOCKEMAM@?$AAe?$AAl?$AA?9?$AAG?$AAR@ 0000000180025940     libucrt:lcidtoname_downlevel.obj
 0002:00004950       ??_C@_1M@DDNJFGID@?$AAf?$AAi?$AA?9?$AAF?$AAI@ 0000000180025950     libucrt:lcidtoname_downlevel.obj
 0002:00004960       ??_C@_1M@GLIPPMAC@?$AAf?$AAr?$AA?9?$AAF?$AAR@ 0000000180025960     libucrt:lcidtoname_downlevel.obj
 0002:00004970       ??_C@_1M@GFMCHPE@?$AAh?$AAe?$AA?9?$AAI?$AAL@ 0000000180025970     libucrt:lcidtoname_downlevel.obj
 0002:00004980       ??_C@_1M@MHLPGNKM@?$AAh?$AAu?$AA?9?$AAH?$AAU@ 0000000180025980     libucrt:lcidtoname_downlevel.obj
 0002:00004990       ??_C@_1M@LPDDNNPN@?$AAi?$AAs?$AA?9?$AAI?$AAS@ 0000000180025990     libucrt:lcidtoname_downlevel.obj
 0002:000049a0       ??_C@_1M@MADIPODN@?$AAi?$AAt?$AA?9?$AAI?$AAT@ 00000001800259a0     libucrt:lcidtoname_downlevel.obj
 0002:000049b0       ??_C@_1M@IHBJJGG@?$AAn?$AAl?$AA?9?$AAN?$AAL@ 00000001800259b0     libucrt:lcidtoname_downlevel.obj
 0002:000049c0       ??_C@_1M@EANAGDL@?$AAn?$AAb?$AA?9?$AAN?$AAO@ 00000001800259c0     libucrt:lcidtoname_downlevel.obj
 0002:000049d0       ??_C@_1M@NEIEMEGP@?$AAp?$AAl?$AA?9?$AAP?$AAL@ 00000001800259d0     libucrt:lcidtoname_downlevel.obj
 0002:000049e0       ??_C@_1M@BOCFIGEP@?$AAp?$AAt?$AA?9?$AAB?$AAR@ 00000001800259e0     libucrt:lcidtoname_downlevel.obj
 0002:000049f0       ??_C@_1M@IMPFOPBG@?$AAr?$AAo?$AA?9?$AAR?$AAO@ 00000001800259f0     libucrt:lcidtoname_downlevel.obj
 0002:00004a00       ??_C@_1M@IDNNEJMM@?$AAr?$AAu?$AA?9?$AAR?$AAU@ 0000000180025a00     libucrt:lcidtoname_downlevel.obj
 0002:00004a10       ??_C@_1M@LILEEOGM@?$AAh?$AAr?$AA?9?$AAH?$AAR@ 0000000180025a10     libucrt:lcidtoname_downlevel.obj
 0002:00004a20       ??_C@_1M@FKIFEHPB@?$AAs?$AAk?$AA?9?$AAS?$AAK@ 0000000180025a20     libucrt:lcidtoname_downlevel.obj
 0002:00004a30       ??_C@_1M@LJMAMNPJ@?$AAs?$AAq?$AA?9?$AAA?$AAL@ 0000000180025a30     libucrt:lcidtoname_downlevel.obj
 0002:00004a40       ??_C@_1M@GIAKDKJK@?$AAs?$AAv?$AA?9?$AAS?$AAE@ 0000000180025a40     libucrt:lcidtoname_downlevel.obj
 0002:00004a50       ??_C@_1M@MKJKIKCL@?$AAt?$AAh?$AA?9?$AAT?$AAH@ 0000000180025a50     libucrt:lcidtoname_downlevel.obj
 0002:00004a60       ??_C@_1M@MFLCCMPB@?$AAt?$AAr?$AA?9?$AAT?$AAR@ 0000000180025a60     libucrt:lcidtoname_downlevel.obj
 0002:00004a70       ??_C@_1M@OIJHDKJN@?$AAu?$AAr?$AA?9?$AAP?$AAK@ 0000000180025a70     libucrt:lcidtoname_downlevel.obj
 0002:00004a80       ??_C@_1M@LHIPCIEK@?$AAi?$AAd?$AA?9?$AAI?$AAD@ 0000000180025a80     libucrt:lcidtoname_downlevel.obj
 0002:00004a90       ??_C@_1M@MFMOBGI@?$AAu?$AAk?$AA?9?$AAU?$AAA@ 0000000180025a90     libucrt:lcidtoname_downlevel.obj
 0002:00004aa0       ??_C@_1M@OBGLJIPL@?$AAb?$AAe?$AA?9?$AAB?$AAY@ 0000000180025aa0     libucrt:lcidtoname_downlevel.obj
 0002:00004ab0       ??_C@_1M@BCFAJEAD@?$AAs?$AAl?$AA?9?$AAS?$AAI@ 0000000180025ab0     libucrt:lcidtoname_downlevel.obj
 0002:00004ac0       ??_C@_1M@FKFFEDDN@?$AAe?$AAt?$AA?9?$AAE?$AAE@ 0000000180025ac0     libucrt:lcidtoname_downlevel.obj
 0002:00004ad0       ??_C@_1M@KGKKAACI@?$AAl?$AAv?$AA?9?$AAL?$AAV@ 0000000180025ad0     libucrt:lcidtoname_downlevel.obj
 0002:00004ae0       ??_C@_1M@IFGBIJO@?$AAl?$AAt?$AA?9?$AAL?$AAT@ 0000000180025ae0     libucrt:lcidtoname_downlevel.obj
 0002:00004af0       ??_C@_1M@FGEAHEDM@?$AAf?$AAa?$AA?9?$AAI?$AAR@ 0000000180025af0     libucrt:lcidtoname_downlevel.obj
 0002:00004b00       ??_C@_1M@KBMAIBFN@?$AAv?$AAi?$AA?9?$AAV?$AAN@ 0000000180025b00     libucrt:lcidtoname_downlevel.obj
 0002:00004b10       ??_C@_1M@GPCBKDJK@?$AAh?$AAy?$AA?9?$AAA?$AAM@ 0000000180025b10     libucrt:lcidtoname_downlevel.obj
 0002:00004b20       ??_C@_1BG@BECMDDJB@?$AAa?$AAz?$AA?9?$AAA?$AAZ?$AA?9?$AAL?$AAa?$AAt?$AAn@ 0000000180025b20     libucrt:lcidtoname_downlevel.obj
 0002:00004b38       ??_C@_1M@MAOFCAEA@?$AAe?$AAu?$AA?9?$AAE?$AAS@ 0000000180025b38     libucrt:lcidtoname_downlevel.obj
 0002:00004b48       ??_C@_1M@IGHABKPI@?$AAm?$AAk?$AA?9?$AAM?$AAK@ 0000000180025b48     libucrt:lcidtoname_downlevel.obj
 0002:00004b58       ??_C@_1M@IAIGNEJG@?$AAt?$AAn?$AA?9?$AAZ?$AAA@ 0000000180025b58     libucrt:lcidtoname_downlevel.obj
 0002:00004b68       ??_C@_1M@IIJCOJFA@?$AAx?$AAh?$AA?9?$AAZ?$AAA@ 0000000180025b68     libucrt:lcidtoname_downlevel.obj
 0002:00004b78       ??_C@_1M@LGPJHNJH@?$AAz?$AAu?$AA?9?$AAZ?$AAA@ 0000000180025b78     libucrt:lcidtoname_downlevel.obj
 0002:00004b88       ??_C@_1M@HOKAOIO@?$AAa?$AAf?$AA?9?$AAZ?$AAA@ 0000000180025b88     libucrt:lcidtoname_downlevel.obj
 0002:00004b98       ??_C@_1M@DPCLHLIE@?$AAk?$AAa?$AA?9?$AAG?$AAE@ 0000000180025b98     libucrt:lcidtoname_downlevel.obj
 0002:00004ba8       ??_C@_1M@BLKMHJBI@?$AAf?$AAo?$AA?9?$AAF?$AAO@ 0000000180025ba8     libucrt:lcidtoname_downlevel.obj
 0002:00004bb8       ??_C@_1M@LGGJAPPB@?$AAh?$AAi?$AA?9?$AAI?$AAN@ 0000000180025bb8     libucrt:lcidtoname_downlevel.obj
 0002:00004bc8       ??_C@_1M@FIKPIHFE@?$AAm?$AAt?$AA?9?$AAM?$AAT@ 0000000180025bc8     libucrt:lcidtoname_downlevel.obj
 0002:00004bd8       ??_C@_1M@HEGGPBFA@?$AAs?$AAe?$AA?9?$AAN?$AAO@ 0000000180025bd8     libucrt:lcidtoname_downlevel.obj
 0002:00004be8       ??_C@_1M@EIBJEEPA@?$AAm?$AAs?$AA?9?$AAM?$AAY@ 0000000180025be8     libucrt:lcidtoname_downlevel.obj
 0002:00004bf8       ??_C@_1M@FHLBGMPP@?$AAk?$AAk?$AA?9?$AAK?$AAZ@ 0000000180025bf8     libucrt:lcidtoname_downlevel.obj
 0002:00004c08       ??_C@_1M@NGJJLCGI@?$AAk?$AAy?$AA?9?$AAK?$AAG@ 0000000180025c08     libucrt:lcidtoname_downlevel.obj
 0002:00004c18       ??_C@_1M@GIENNBFC@?$AAs?$AAw?$AA?9?$AAK?$AAE@ 0000000180025c18     libucrt:lcidtoname_downlevel.obj
 0002:00004c28       ??_C@_1BG@NDGMJIMJ@?$AAu?$AAz?$AA?9?$AAU?$AAZ?$AA?9?$AAL?$AAa?$AAt?$AAn@ 0000000180025c28     libucrt:lcidtoname_downlevel.obj
 0002:00004c40       ??_C@_1M@IDCCIHBC@?$AAt?$AAt?$AA?9?$AAR?$AAU@ 0000000180025c40     libucrt:lcidtoname_downlevel.obj
 0002:00004c50       ??_C@_1M@LOICPMOJ@?$AAb?$AAn?$AA?9?$AAI?$AAN@ 0000000180025c50     libucrt:lcidtoname_downlevel.obj
 0002:00004c60       ??_C@_1M@KPKKNEAH@?$AAp?$AAa?$AA?9?$AAI?$AAN@ 0000000180025c60     libucrt:lcidtoname_downlevel.obj
 0002:00004c70       ??_C@_1M@PJGPPBOG@?$AAg?$AAu?$AA?9?$AAI?$AAN@ 0000000180025c70     libucrt:lcidtoname_downlevel.obj
 0002:00004c80       ??_C@_1M@KMKMOPHI@?$AAt?$AAa?$AA?9?$AAI?$AAN@ 0000000180025c80     libucrt:lcidtoname_downlevel.obj
 0002:00004c90       ??_C@_1M@KFEHEPAC@?$AAt?$AAe?$AA?9?$AAI?$AAN@ 0000000180025c90     libucrt:lcidtoname_downlevel.obj
 0002:00004ca0       ??_C@_1M@CDCLMGHI@?$AAk?$AAn?$AA?9?$AAI?$AAN@ 0000000180025ca0     libucrt:lcidtoname_downlevel.obj
 0002:00004cb0       ??_C@_1M@MIODLDKF@?$AAm?$AAl?$AA?9?$AAI?$AAN@ 0000000180025cb0     libucrt:lcidtoname_downlevel.obj
 0002:00004cc0       ??_C@_1M@PBIEACPO@?$AAm?$AAr?$AA?9?$AAI?$AAN@ 0000000180025cc0     libucrt:lcidtoname_downlevel.obj
 0002:00004cd0       ??_C@_1M@NIDEAGPH@?$AAs?$AAa?$AA?9?$AAI?$AAN@ 0000000180025cd0     libucrt:lcidtoname_downlevel.obj
 0002:00004ce0       ??_C@_1M@FHIHCBIO@?$AAm?$AAn?$AA?9?$AAM?$AAN@ 0000000180025ce0     libucrt:lcidtoname_downlevel.obj
 0002:00004cf0       ??_C@_1M@JAIJPENP@?$AAc?$AAy?$AA?9?$AAG?$AAB@ 0000000180025cf0     libucrt:lcidtoname_downlevel.obj
 0002:00004d00       ??_C@_1M@PHGFBEPN@?$AAg?$AAl?$AA?9?$AAE?$AAS@ 0000000180025d00     libucrt:lcidtoname_downlevel.obj
 0002:00004d10       ??_C@_1O@KPIPDNCP@?$AAk?$AAo?$AAk?$AA?9?$AAI?$AAN@ 0000000180025d10     libucrt:lcidtoname_downlevel.obj
 0002:00004d20       ??_C@_1O@KNHJLDJA@?$AAs?$AAy?$AAr?$AA?9?$AAS?$AAY@ 0000000180025d20     libucrt:lcidtoname_downlevel.obj
 0002:00004d30       ??_C@_1O@MKEKBLAH@?$AAd?$AAi?$AAv?$AA?9?$AAM?$AAV@ 0000000180025d30     libucrt:lcidtoname_downlevel.obj
 0002:00004d40       ??_C@_1O@OHDCKDDF@?$AAq?$AAu?$AAz?$AA?9?$AAB?$AAO@ 0000000180025d40     libucrt:lcidtoname_downlevel.obj
 0002:00004d50       ??_C@_1M@LEPJNLFD@?$AAn?$AAs?$AA?9?$AAZ?$AAA@ 0000000180025d50     libucrt:lcidtoname_downlevel.obj
 0002:00004d60       ??_C@_1M@OMLEIIJB@?$AAm?$AAi?$AA?9?$AAN?$AAZ@ 0000000180025d60     libucrt:lcidtoname_downlevel.obj
 0002:00004d70       ??_C@_1M@PMPEAILG@?$AAa?$AAr?$AA?9?$AAI?$AAQ@ 0000000180025d70     libucrt:lcidtoname_downlevel.obj
 0002:00004d80       ??_C@_1M@CNKPNOEE@?$AAd?$AAe?$AA?9?$AAC?$AAH@ 0000000180025d80     libucrt:lcidtoname_downlevel.obj
 0002:00004d90       ??_C@_1M@LKMGMLKO@?$AAe?$AAn?$AA?9?$AAG?$AAB@ 0000000180025d90     libucrt:lcidtoname_downlevel.obj
 0002:00004da0       ??_C@_1M@PGKJFFGL@?$AAe?$AAs?$AA?9?$AAM?$AAX@ 0000000180025da0     libucrt:lcidtoname_downlevel.obj
 0002:00004db0       ??_C@_1M@DNNANBDC@?$AAf?$AAr?$AA?9?$AAB?$AAE@ 0000000180025db0     libucrt:lcidtoname_downlevel.obj
 0002:00004dc0       ??_C@_1M@HLGMDFHM@?$AAi?$AAt?$AA?9?$AAC?$AAH@ 0000000180025dc0     libucrt:lcidtoname_downlevel.obj
 0002:00004dd0       ??_C@_1M@CLLBGJH@?$AAn?$AAl?$AA?9?$AAB?$AAE@ 0000000180025dd0     libucrt:lcidtoname_downlevel.obj
 0002:00004de0       ??_C@_1M@BODBOGLF@?$AAn?$AAn?$AA?9?$AAN?$AAO@ 0000000180025de0     libucrt:lcidtoname_downlevel.obj
 0002:00004df0       ??_C@_1M@HFFAHKAD@?$AAp?$AAt?$AA?9?$AAP?$AAT@ 0000000180025df0     libucrt:lcidtoname_downlevel.obj
 0002:00004e00       ??_C@_1BG@LNOAKHIE@?$AAs?$AAr?$AA?9?$AAS?$AAP?$AA?9?$AAL?$AAa?$AAt?$AAn@ 0000000180025e00     libucrt:lcidtoname_downlevel.obj
 0002:00004e18       ??_C@_1M@HBMHBGAK@?$AAs?$AAv?$AA?9?$AAF?$AAI@ 0000000180025e18     libucrt:lcidtoname_downlevel.obj
 0002:00004e28       ??_C@_1BG@DGCJGJBE@?$AAa?$AAz?$AA?9?$AAA?$AAZ?$AA?9?$AAC?$AAy?$AAr?$AAl@ 0000000180025e28     libucrt:lcidtoname_downlevel.obj
 0002:00004e40       ??_C@_1M@KEJDAAHB@?$AAs?$AAe?$AA?9?$AAS?$AAE@ 0000000180025e40     libucrt:lcidtoname_downlevel.obj
 0002:00004e50       ??_C@_1M@HEIBJJAD@?$AAm?$AAs?$AA?9?$AAB?$AAN@ 0000000180025e50     libucrt:lcidtoname_downlevel.obj
 0002:00004e60       ??_C@_1BG@PBGJMCEM@?$AAu?$AAz?$AA?9?$AAU?$AAZ?$AA?9?$AAC?$AAy?$AAr?$AAl@ 0000000180025e60     libucrt:lcidtoname_downlevel.obj
 0002:00004e78       ??_C@_1O@LAOBCMDF@?$AAq?$AAu?$AAz?$AA?9?$AAE?$AAC@ 0000000180025e78     libucrt:lcidtoname_downlevel.obj
 0002:00004e88       ??_C@_1M@POEEMAIO@?$AAa?$AAr?$AA?9?$AAE?$AAG@ 0000000180025e88     libucrt:lcidtoname_downlevel.obj
 0002:00004e98       ??_C@_1M@EFAKDEDL@?$AAz?$AAh?$AA?9?$AAH?$AAK@ 0000000180025e98     libucrt:lcidtoname_downlevel.obj
 0002:00004ea8       ??_C@_1M@HKKIJHGI@?$AAd?$AAe?$AA?9?$AAA?$AAT@ 0000000180025ea8     libucrt:lcidtoname_downlevel.obj
 0002:00004eb8       ??_C@_1M@KBFBEHJF@?$AAe?$AAn?$AA?9?$AAA?$AAU@ 0000000180025eb8     libucrt:lcidtoname_downlevel.obj
 0002:00004ec8       ??_C@_1M@MNPLFAAH@?$AAe?$AAs?$AA?9?$AAE?$AAS@ 0000000180025ec8     libucrt:lcidtoname_downlevel.obj
 0002:00004ed8       ??_C@_1M@HJOOJFMA@?$AAf?$AAr?$AA?9?$AAC?$AAA@ 0000000180025ed8     libucrt:lcidtoname_downlevel.obj
 0002:00004ee8       ??_C@_1BG@JPOFPNAB@?$AAs?$AAr?$AA?9?$AAS?$AAP?$AA?9?$AAC?$AAy?$AAr?$AAl@ 0000000180025ee8     libucrt:lcidtoname_downlevel.obj
 0002:00004f00       ??_C@_1M@LNFOCMOB@?$AAs?$AAe?$AA?9?$AAF?$AAI@ 0000000180025f00     libucrt:lcidtoname_downlevel.obj
 0002:00004f10       ??_C@_1O@MGJBOAMB@?$AAq?$AAu?$AAz?$AA?9?$AAP?$AAE@ 0000000180025f10     libucrt:lcidtoname_downlevel.obj
 0002:00004f20       ??_C@_1M@GJINLBOK@?$AAa?$AAr?$AA?9?$AAL?$AAY@ 0000000180025f20     libucrt:lcidtoname_downlevel.obj
 0002:00004f30       ??_C@_1M@GGMNHJNL@?$AAz?$AAh?$AA?9?$AAS?$AAG@ 0000000180025f30     libucrt:lcidtoname_downlevel.obj
 0002:00004f40       ??_C@_1M@HOIKODND@?$AAd?$AAe?$AA?9?$AAL?$AAU@ 0000000180025f40     libucrt:lcidtoname_downlevel.obj
 0002:00004f50       ??_C@_1M@DDOCCGFG@?$AAe?$AAn?$AA?9?$AAC?$AAA@ 0000000180025f50     libucrt:lcidtoname_downlevel.obj
 0002:00004f60       ??_C@_1M@BNOEMJLF@?$AAe?$AAs?$AA?9?$AAG?$AAT@ 0000000180025f60     libucrt:lcidtoname_downlevel.obj
 0002:00004f70       ??_C@_1M@EOGNKEK@?$AAf?$AAr?$AA?9?$AAC?$AAH@ 0000000180025f70     libucrt:lcidtoname_downlevel.obj
 0002:00004f80       ??_C@_1M@FLIDJFHL@?$AAh?$AAr?$AA?9?$AAB?$AAA@ 0000000180025f80     libucrt:lcidtoname_downlevel.obj
 0002:00004f90       ??_C@_1O@FMCELNAJ@?$AAs?$AAm?$AAj?$AA?9?$AAN?$AAO@ 0000000180025f90     libucrt:lcidtoname_downlevel.obj
 0002:00004fa0       ??_C@_1M@JHGLJMGJ@?$AAa?$AAr?$AA?9?$AAD?$AAZ@ 0000000180025fa0     libucrt:lcidtoname_downlevel.obj
 0002:00004fb0       ??_C@_1M@JKKFDCNP@?$AAz?$AAh?$AA?9?$AAM?$AAO@ 0000000180025fb0     libucrt:lcidtoname_downlevel.obj
 0002:00004fc0       ??_C@_1M@GEEFALPE@?$AAd?$AAe?$AA?9?$AAL?$AAI@ 0000000180025fc0     libucrt:lcidtoname_downlevel.obj
 0002:00004fd0       ??_C@_1M@IGEOFBG@?$AAe?$AAn?$AA?9?$AAN?$AAZ@ 0000000180025fd0     libucrt:lcidtoname_downlevel.obj
 0002:00004fe0       ??_C@_1M@KDBONEHP@?$AAe?$AAs?$AA?9?$AAC?$AAR@ 0000000180025fe0     libucrt:lcidtoname_downlevel.obj
 0002:00004ff0       ??_C@_1M@FHMDOHNN@?$AAf?$AAr?$AA?9?$AAL?$AAU@ 0000000180025ff0     libucrt:lcidtoname_downlevel.obj
 0002:00005000       ??_C@_1BG@NFKKMAFG@?$AAb?$AAs?$AA?9?$AAB?$AAA?$AA?9?$AAL?$AAa?$AAt?$AAn@ 0000000180026000     libucrt:lcidtoname_downlevel.obj
 0002:00005018       ??_C@_1O@IMNBEMCI@?$AAs?$AAm?$AAj?$AA?9?$AAS?$AAE@ 0000000180026018     libucrt:lcidtoname_downlevel.obj
 0002:00005028       ??_C@_1M@DHHMBNDP@?$AAa?$AAr?$AA?9?$AAM?$AAA@ 0000000180026028     libucrt:lcidtoname_downlevel.obj
 0002:00005038       ??_C@_1M@BNBLJCGH@?$AAe?$AAn?$AA?9?$AAI?$AAE@ 0000000180026038     libucrt:lcidtoname_downlevel.obj
 0002:00005048       ??_C@_1M@GEPAFMDL@?$AAe?$AAs?$AA?9?$AAP?$AAA@ 0000000180026048     libucrt:lcidtoname_downlevel.obj
 0002:00005058       ??_C@_1M@OJONDMDL@?$AAf?$AAr?$AA?9?$AAM?$AAC@ 0000000180026058     libucrt:lcidtoname_downlevel.obj
 0002:00005068       ??_C@_1BG@OBCNFJB@?$AAs?$AAr?$AA?9?$AAB?$AAA?$AA?9?$AAL?$AAa?$AAt?$AAn@ 0000000180026068     libucrt:lcidtoname_downlevel.obj
 0002:00005080       ??_C@_1O@KEMEEGPO@?$AAs?$AAm?$AAa?$AA?9?$AAN?$AAO@ 0000000180026080     libucrt:lcidtoname_downlevel.obj
 0002:00005090       ??_C@_1M@ELMGFODK@?$AAa?$AAr?$AA?9?$AAT?$AAN@ 0000000180026090     libucrt:lcidtoname_downlevel.obj
 0002:000050a0       ??_C@_1M@BHDLHFAF@?$AAe?$AAn?$AA?9?$AAZ?$AAA@ 00000001800260a0     libucrt:lcidtoname_downlevel.obj
 0002:000050b0       ??_C@_1M@BMGIGLIF@?$AAe?$AAs?$AA?9?$AAD?$AAO@ 00000001800260b0     libucrt:lcidtoname_downlevel.obj
 0002:000050c0       ??_C@_1BG@CMBHIPBE@?$AAs?$AAr?$AA?9?$AAB?$AAA?$AA?9?$AAC?$AAy?$AAr?$AAl@ 00000001800260c0     libucrt:lcidtoname_downlevel.obj
 0002:000050d8       ??_C@_1O@HEDBLHNP@?$AAs?$AAm?$AAa?$AA?9?$AAS?$AAE@ 00000001800260d8     libucrt:lcidtoname_downlevel.obj
 0002:000050e8       ??_C@_1M@DAGCADIM@?$AAa?$AAr?$AA?9?$AAO?$AAM@ 00000001800260e8     libucrt:lcidtoname_downlevel.obj
 0002:000050f8       ??_C@_1M@FODLMICG@?$AAe?$AAn?$AA?9?$AAJ?$AAM@ 00000001800260f8     libucrt:lcidtoname_downlevel.obj
 0002:00005108       ??_C@_1M@DNMLCIHB@?$AAe?$AAs?$AA?9?$AAV?$AAE@ 0000000180026108     libucrt:lcidtoname_downlevel.obj
 0002:00005118       ??_C@_1O@EOKHMKJK@?$AAs?$AAm?$AAs?$AA?9?$AAF?$AAI@ 0000000180026118     libucrt:lcidtoname_downlevel.obj
 0002:00005128       ??_C@_1M@CAFJMKOF@?$AAa?$AAr?$AA?9?$AAY?$AAE@ 0000000180026128     libucrt:lcidtoname_downlevel.obj
 0002:00005138       ??_C@_1M@CBFHIJLI@?$AAe?$AAn?$AA?9?$AAC?$AAB@ 0000000180026138     libucrt:lcidtoname_downlevel.obj
 0002:00005148       ??_C@_1M@BGNFLDN@?$AAe?$AAs?$AA?9?$AAC?$AAO@ 0000000180026148     libucrt:lcidtoname_downlevel.obj
 0002:00005158       ??_C@_1O@JMPHMAMC@?$AAs?$AAm?$AAn?$AA?9?$AAF?$AAI@ 0000000180026158     libucrt:lcidtoname_downlevel.obj
 0002:00005168       ??_C@_1M@JLANABKE@?$AAa?$AAr?$AA?9?$AAS?$AAY@ 0000000180026168     libucrt:lcidtoname_downlevel.obj
 0002:00005178       ??_C@_1M@HPKGCFGN@?$AAe?$AAn?$AA?9?$AAB?$AAZ@ 0000000180026178     libucrt:lcidtoname_downlevel.obj
 0002:00005188       ??_C@_1M@OLJCMLGM@?$AAe?$AAs?$AA?9?$AAP?$AAE@ 0000000180026188     libucrt:lcidtoname_downlevel.obj
 0002:00005198       ??_C@_1M@MKKGFKLE@?$AAa?$AAr?$AA?9?$AAJ?$AAO@ 0000000180026198     libucrt:lcidtoname_downlevel.obj
 0002:000051a8       ??_C@_1M@EKPGLDNI@?$AAe?$AAn?$AA?9?$AAT?$AAT@ 00000001800261a8     libucrt:lcidtoname_downlevel.obj
 0002:000051b8       ??_C@_1M@OONGHFHE@?$AAe?$AAs?$AA?9?$AAA?$AAR@ 00000001800261b8     libucrt:lcidtoname_downlevel.obj
 0002:000051c8       ??_C@_1M@OOJFGBHE@?$AAa?$AAr?$AA?9?$AAL?$AAB@ 00000001800261c8     libucrt:lcidtoname_downlevel.obj
 0002:000051d8       ??_C@_1M@GCEJHNEG@?$AAe?$AAn?$AA?9?$AAZ?$AAW@ 00000001800261d8     libucrt:lcidtoname_downlevel.obj
 0002:000051e8       ??_C@_1M@JNOCAHJI@?$AAe?$AAs?$AA?9?$AAE?$AAC@ 00000001800261e8     libucrt:lcidtoname_downlevel.obj
 0002:000051f8       ??_C@_1M@JEFHPGGB@?$AAa?$AAr?$AA?9?$AAK?$AAW@ 00000001800261f8     libucrt:lcidtoname_downlevel.obj
 0002:00005208       ??_C@_1M@MLKIBJOJ@?$AAe?$AAn?$AA?9?$AAP?$AAH@ 0000000180026208     libucrt:lcidtoname_downlevel.obj
 0002:00005218       ??_C@_1M@BDNIPEND@?$AAe?$AAs?$AA?9?$AAC?$AAL@ 0000000180026218     libucrt:lcidtoname_downlevel.obj
 0002:00005228       ??_C@_1M@MPNMEKBD@?$AAa?$AAr?$AA?9?$AAA?$AAE@ 0000000180026228     libucrt:lcidtoname_downlevel.obj
 0002:00005238       ??_C@_1M@KBJALCPI@?$AAe?$AAs?$AA?9?$AAU?$AAY@ 0000000180026238     libucrt:lcidtoname_downlevel.obj
 0002:00005248       ??_C@_1M@LLCCOAGA@?$AAa?$AAr?$AA?9?$AAB?$AAH@ 0000000180026248     libucrt:lcidtoname_downlevel.obj
 0002:00005258       ??_C@_1M@PBFNCDEL@?$AAe?$AAs?$AA?9?$AAP?$AAY@ 0000000180026258     libucrt:lcidtoname_downlevel.obj
 0002:00005268       ??_C@_1M@EDGINPNP@?$AAa?$AAr?$AA?9?$AAQ?$AAA@ 0000000180026268     libucrt:lcidtoname_downlevel.obj
 0002:00005278       ??_C@_1M@MKDBIIJI@?$AAe?$AAs?$AA?9?$AAB?$AAO@ 0000000180026278     libucrt:lcidtoname_downlevel.obj
 0002:00005288       ??_C@_1M@CPKKEBLD@?$AAe?$AAs?$AA?9?$AAS?$AAV@ 0000000180026288     libucrt:lcidtoname_downlevel.obj
 0002:00005298       ??_C@_1M@NDBGMMJL@?$AAe?$AAs?$AA?9?$AAH?$AAN@ 0000000180026298     libucrt:lcidtoname_downlevel.obj
 0002:000052a8       ??_C@_1M@JIJIBHDP@?$AAe?$AAs?$AA?9?$AAN?$AAI@ 00000001800262a8     libucrt:lcidtoname_downlevel.obj
 0002:000052b8       ??_C@_1M@CGFMKEEK@?$AAe?$AAs?$AA?9?$AAP?$AAR@ 00000001800262b8     libucrt:lcidtoname_downlevel.obj
 0002:000052c8       ??_C@_1O@ICJHKIIK@?$AAz?$AAh?$AA?9?$AAC?$AAH?$AAT@ 00000001800262c8     libucrt:lcidtoname_downlevel.obj
 0002:000052d8       ??_C@_15CLNEJCE@?$AAs?$AAr@ 00000001800262d8     libucrt:lcidtoname_downlevel.obj
 0002:00006120       ??_C@_1M@KAHEKEIG@?$AAa?$AAf?$AA?9?$AAz?$AAa@ 0000000180027120     libucrt:lcidtoname_downlevel.obj
 0002:00006130       ??_C@_1M@GIECOABL@?$AAa?$AAr?$AA?9?$AAa?$AAe@ 0000000180027130     libucrt:lcidtoname_downlevel.obj
 0002:00006140       ??_C@_1M@BMLMEKGI@?$AAa?$AAr?$AA?9?$AAb?$AAh@ 0000000180027140     libucrt:lcidtoname_downlevel.obj
 0002:00006150       ??_C@_1M@DAPFDGGB@?$AAa?$AAr?$AA?9?$AAd?$AAz@ 0000000180027150     libucrt:lcidtoname_downlevel.obj
 0002:00006160       ??_C@_1M@FJNKGKIG@?$AAa?$AAr?$AA?9?$AAe?$AAg@ 0000000180027160     libucrt:lcidtoname_downlevel.obj
 0002:00006170       ??_C@_1M@FLGKKCLO@?$AAa?$AAr?$AA?9?$AAi?$AAq@ 0000000180027170     libucrt:lcidtoname_downlevel.obj
 0002:00006180       ??_C@_1M@GNDIPALM@?$AAa?$AAr?$AA?9?$AAj?$AAo@ 0000000180027180     libucrt:lcidtoname_downlevel.obj
 0002:00006190       ??_C@_1M@DDMJFMGJ@?$AAa?$AAr?$AA?9?$AAk?$AAw@ 0000000180027190     libucrt:lcidtoname_downlevel.obj
 0002:000061a0       ??_C@_1M@EJALMLHM@?$AAa?$AAr?$AA?9?$AAl?$AAb@ 00000001800271a0     libucrt:lcidtoname_downlevel.obj
 0002:000061b0       ??_C@_1M@MOBDBLOC@?$AAa?$AAr?$AA?9?$AAl?$AAy@ 00000001800271b0     libucrt:lcidtoname_downlevel.obj
 0002:000061c0       ??_C@_1M@JAOCLHDH@?$AAa?$AAr?$AA?9?$AAm?$AAa@ 00000001800271c0     libucrt:lcidtoname_downlevel.obj
 0002:000061d0       ??_C@_1M@JHPMKJIE@?$AAa?$AAr?$AA?9?$AAo?$AAm@ 00000001800271d0     libucrt:lcidtoname_downlevel.obj
 0002:000061e0       ??_C@_1M@OEPGHFNH@?$AAa?$AAr?$AA?9?$AAq?$AAa@ 00000001800271e0     libucrt:lcidtoname_downlevel.obj
 0002:000061f0       ??_C@_1M@KJDONENM@?$AAa?$AAr?$AA?9?$AAs?$AAa@ 00000001800271f0     libucrt:lcidtoname_downlevel.obj
 0002:00006200       ??_C@_1M@DMJDKLKM@?$AAa?$AAr?$AA?9?$AAs?$AAy@ 0000000180027200     libucrt:lcidtoname_downlevel.obj
 0002:00006210       ??_C@_1M@OMFIPEDC@?$AAa?$AAr?$AA?9?$AAt?$AAn@ 0000000180027210     libucrt:lcidtoname_downlevel.obj
 0002:00006220       ??_C@_1M@IHMHGAON@?$AAa?$AAr?$AA?9?$AAy?$AAe@ 0000000180027220     libucrt:lcidtoname_downlevel.obj
 0002:00006230       ??_C@_1BG@KDCPGJGB@?$AAa?$AAz?$AA?9?$AAa?$AAz?$AA?9?$AAc?$AAy?$AAr?$AAl@ 0000000180027230     libucrt:lcidtoname_downlevel.obj
 0002:00006248       ??_C@_1BG@IBCKDDOE@?$AAa?$AAz?$AA?9?$AAa?$AAz?$AA?9?$AAl?$AAa?$AAt?$AAn@ 0000000180027248     libucrt:lcidtoname_downlevel.obj
 0002:00006260       ??_C@_1M@EGPFDCPD@?$AAb?$AAe?$AA?9?$AAb?$AAy@ 0000000180027260     libucrt:lcidtoname_downlevel.obj
 0002:00006270       ??_C@_1M@PCMGMCGC@?$AAb?$AAg?$AA?9?$AAb?$AAg@ 0000000180027270     libucrt:lcidtoname_downlevel.obj
 0002:00006280       ??_C@_1M@BJBMFGOB@?$AAb?$AAn?$AA?9?$AAi?$AAn@ 0000000180027280     libucrt:lcidtoname_downlevel.obj
 0002:00006290       ??_C@_1BG@EAKMMACD@?$AAb?$AAs?$AA?9?$AAb?$AAa?$AA?9?$AAl?$AAa?$AAt?$AAn@ 0000000180027290     libucrt:lcidtoname_downlevel.obj
 0002:000062a8       ??_C@_1M@KGADAODK@?$AAc?$AAa?$AA?9?$AAe?$AAs@ 00000001800272a8     libucrt:lcidtoname_downlevel.obj
 0002:000062b8       ??_C@_1M@COAJPDHI@?$AAc?$AAs?$AA?9?$AAc?$AAz@ 00000001800272b8     libucrt:lcidtoname_downlevel.obj
 0002:000062c8       ??_C@_1M@DHBHFONH@?$AAc?$AAy?$AA?9?$AAg?$AAb@ 00000001800272c8     libucrt:lcidtoname_downlevel.obj
 0002:000062d8       ??_C@_1M@IMGKELGA@?$AAd?$AAa?$AA?9?$AAd?$AAk@ 00000001800272d8     libucrt:lcidtoname_downlevel.obj
 0002:000062e8       ??_C@_1M@NNDGDNGA@?$AAd?$AAe?$AA?9?$AAa?$AAt@ 00000001800272e8     libucrt:lcidtoname_downlevel.obj
 0002:000062f8       ??_C@_1M@IKDBHEEM@?$AAd?$AAe?$AA?9?$AAc?$AAh@ 00000001800272f8     libucrt:lcidtoname_downlevel.obj
 0002:00006308       ??_C@_1M@GFFOJMCJ@?$AAd?$AAe?$AA?9?$AAd?$AAe@ 0000000180027308     libucrt:lcidtoname_downlevel.obj
 0002:00006318       ??_C@_1M@MDNLKBPM@?$AAd?$AAe?$AA?9?$AAl?$AAi@ 0000000180027318     libucrt:lcidtoname_downlevel.obj
 0002:00006328       ??_C@_1M@NJBEEJNL@?$AAd?$AAe?$AA?9?$AAl?$AAu@ 0000000180027328     libucrt:lcidtoname_downlevel.obj
 0002:00006338       ??_C@_1O@GNNELBAP@?$AAd?$AAi?$AAv?$AA?9?$AAm?$AAv@ 0000000180027338     libucrt:lcidtoname_downlevel.obj
 0002:00006348       ??_C@_1M@EJLEOGAE@?$AAe?$AAl?$AA?9?$AAg?$AAr@ 0000000180027348     libucrt:lcidtoname_downlevel.obj
 0002:00006358       ??_C@_1M@GMPONJN@?$AAe?$AAn?$AA?9?$AAa?$AAu@ 0000000180027358     libucrt:lcidtoname_downlevel.obj
 0002:00006368       ??_C@_1M@NIDIIPGF@?$AAe?$AAn?$AA?9?$AAb?$AAz@ 0000000180027368     libucrt:lcidtoname_downlevel.obj
 0002:00006378       ??_C@_1M@JEHMIMFO@?$AAe?$AAn?$AA?9?$AAc?$AAa@ 0000000180027378     libucrt:lcidtoname_downlevel.obj
 0002:00006388       ??_C@_1M@IGMJCDLA@?$AAe?$AAn?$AA?9?$AAc?$AAb@ 0000000180027388     libucrt:lcidtoname_downlevel.obj
 0002:00006398       ??_C@_1M@BNFIGBKG@?$AAe?$AAn?$AA?9?$AAg?$AAb@ 0000000180027398     libucrt:lcidtoname_downlevel.obj
 0002:000063a8       ??_C@_1M@LKIFDIGP@?$AAe?$AAn?$AA?9?$AAi?$AAe@ 00000001800273a8     libucrt:lcidtoname_downlevel.obj
 0002:000063b8       ??_C@_1M@PJKFGCCO@?$AAe?$AAn?$AA?9?$AAj?$AAm@ 00000001800273b8     libucrt:lcidtoname_downlevel.obj
 0002:000063c8       ??_C@_1M@KPPKEPBO@?$AAe?$AAn?$AA?9?$AAn?$AAz@ 00000001800273c8     libucrt:lcidtoname_downlevel.obj
 0002:000063d8       ??_C@_1M@GMDGLDOB@?$AAe?$AAn?$AA?9?$AAp?$AAh@ 00000001800273d8     libucrt:lcidtoname_downlevel.obj
 0002:000063e8       ??_C@_1M@ONGIBJNA@?$AAe?$AAn?$AA?9?$AAt?$AAt@ 00000001800273e8     libucrt:lcidtoname_downlevel.obj
 0002:000063f8       ??_C@_1M@LLODPCMM@?$AAe?$AAn?$AA?9?$AAu?$AAs@ 00000001800273f8     libucrt:lcidtoname_downlevel.obj
 0002:00006408       ??_C@_1M@LAKFNPAN@?$AAe?$AAn?$AA?9?$AAz?$AAa@ 0000000180027408     libucrt:lcidtoname_downlevel.obj
 0002:00006418       ??_C@_1M@MFNHNHEO@?$AAe?$AAn?$AA?9?$AAz?$AAw@ 0000000180027418     libucrt:lcidtoname_downlevel.obj
 0002:00006428       ??_C@_1M@EJEINPHM@?$AAe?$AAs?$AA?9?$AAa?$AAr@ 0000000180027428     libucrt:lcidtoname_downlevel.obj
 0002:00006438       ??_C@_1M@GNKPCCJA@?$AAe?$AAs?$AA?9?$AAb?$AAo@ 0000000180027438     libucrt:lcidtoname_downlevel.obj
 0002:00006448       ??_C@_1M@LEEGFONL@?$AAe?$AAs?$AA?9?$AAc?$AAl@ 0000000180027448     libucrt:lcidtoname_downlevel.obj
 0002:00006458       ??_C@_1M@KGPDPBDF@?$AAe?$AAs?$AA?9?$AAc?$AAo@ 0000000180027458     libucrt:lcidtoname_downlevel.obj
 0002:00006468       ??_C@_1M@EIAHOHH@?$AAe?$AAs?$AA?9?$AAc?$AAr@ 0000000180027468     libucrt:lcidtoname_downlevel.obj
 0002:00006478       ??_C@_1M@LLPGMBIN@?$AAe?$AAs?$AA?9?$AAd?$AAo@ 0000000180027478     libucrt:lcidtoname_downlevel.obj
 0002:00006488       ??_C@_1M@DKHMKNJA@?$AAe?$AAs?$AA?9?$AAe?$AAc@ 0000000180027488     libucrt:lcidtoname_downlevel.obj
 0002:00006498       ??_C@_1M@GKGFPKAP@?$AAe?$AAs?$AA?9?$AAe?$AAs@ 0000000180027498     libucrt:lcidtoname_downlevel.obj
 0002:000064a8       ??_C@_1M@LKHKGDLN@?$AAe?$AAs?$AA?9?$AAg?$AAt@ 00000001800274a8     libucrt:lcidtoname_downlevel.obj
 0002:000064b8       ??_C@_1M@HEIIGGJD@?$AAe?$AAs?$AA?9?$AAh?$AAn@ 00000001800274b8     libucrt:lcidtoname_downlevel.obj
 0002:000064c8       ??_C@_1M@FBDHPPGD@?$AAe?$AAs?$AA?9?$AAm?$AAx@ 00000001800274c8     libucrt:lcidtoname_downlevel.obj
 0002:000064d8       ??_C@_1M@DPAGLNDH@?$AAe?$AAs?$AA?9?$AAn?$AAi@ 00000001800274d8     libucrt:lcidtoname_downlevel.obj
 0002:000064e8       ??_C@_1M@MDGOPGDD@?$AAe?$AAs?$AA?9?$AAp?$AAa@ 00000001800274e8     libucrt:lcidtoname_downlevel.obj
 0002:000064f8       ??_C@_1M@EMAMGBGE@?$AAe?$AAs?$AA?9?$AAp?$AAe@ 00000001800274f8     libucrt:lcidtoname_downlevel.obj
 0002:00006508       ??_C@_1M@IBMCAOEC@?$AAe?$AAs?$AA?9?$AAp?$AAr@ 0000000180027508     libucrt:lcidtoname_downlevel.obj
 0002:00006518       ??_C@_1M@FGMDIJED@?$AAe?$AAs?$AA?9?$AAp?$AAy@ 0000000180027518     libucrt:lcidtoname_downlevel.obj
 0002:00006528       ??_C@_1M@IIDEOLLL@?$AAe?$AAs?$AA?9?$AAs?$AAv@ 0000000180027528     libucrt:lcidtoname_downlevel.obj
 0002:00006538       ??_C@_1M@GAOBIPA@?$AAe?$AAs?$AA?9?$AAu?$AAy@ 0000000180027538     libucrt:lcidtoname_downlevel.obj
 0002:00006548       ??_C@_1M@JKFFICHJ@?$AAe?$AAs?$AA?9?$AAv?$AAe@ 0000000180027548     libucrt:lcidtoname_downlevel.obj
 0002:00006558       ??_C@_1M@PNMLOJDF@?$AAe?$AAt?$AA?9?$AAe?$AAe@ 0000000180027558     libucrt:lcidtoname_downlevel.obj
 0002:00006568       ??_C@_1M@GHHLIKEI@?$AAe?$AAu?$AA?9?$AAe?$AAs@ 0000000180027568     libucrt:lcidtoname_downlevel.obj
 0002:00006578       ??_C@_1M@PBNONODE@?$AAf?$AAa?$AA?9?$AAi?$AAr@ 0000000180027578     libucrt:lcidtoname_downlevel.obj
 0002:00006588       ??_C@_1M@JEEHPMIL@?$AAf?$AAi?$AA?9?$AAf?$AAi@ 0000000180027588     libucrt:lcidtoname_downlevel.obj
 0002:00006598       ??_C@_1M@LMDCNDBA@?$AAf?$AAo?$AA?9?$AAf?$AAo@ 0000000180027598     libucrt:lcidtoname_downlevel.obj
 0002:000065a8       ??_C@_1M@JKEOHLDK@?$AAf?$AAr?$AA?9?$AAb?$AAe@ 00000001800275a8     libucrt:lcidtoname_downlevel.obj
 0002:000065b8       ??_C@_1M@NOHADPMI@?$AAf?$AAr?$AA?9?$AAc?$AAa@ 00000001800275b8     libucrt:lcidtoname_downlevel.obj
 0002:000065c8       ??_C@_1M@KDHIHAEC@?$AAf?$AAr?$AA?9?$AAc?$AAh@ 00000001800275c8     libucrt:lcidtoname_downlevel.obj
 0002:000065d8       ??_C@_1M@MMBBFGAK@?$AAf?$AAr?$AA?9?$AAf?$AAr@ 00000001800275d8     libucrt:lcidtoname_downlevel.obj
 0002:000065e8       ??_C@_1M@PAFNENNF@?$AAf?$AAr?$AA?9?$AAl?$AAu@ 00000001800275e8     libucrt:lcidtoname_downlevel.obj
 0002:000065f8       ??_C@_1M@EOHDJGDD@?$AAf?$AAr?$AA?9?$AAm?$AAc@ 00000001800275f8     libucrt:lcidtoname_downlevel.obj
 0002:00006608       ??_C@_1M@FAPLLOPF@?$AAg?$AAl?$AA?9?$AAe?$AAs@ 0000000180027608     libucrt:lcidtoname_downlevel.obj
 0002:00006618       ??_C@_1M@FOPBFLOO@?$AAg?$AAu?$AA?9?$AAi?$AAn@ 0000000180027618     libucrt:lcidtoname_downlevel.obj
 0002:00006628       ??_C@_1M@KBMCINPM@?$AAh?$AAe?$AA?9?$AAi?$AAl@ 0000000180027628     libucrt:lcidtoname_downlevel.obj
 0002:00006638       ??_C@_1M@BBPHKFPJ@?$AAh?$AAi?$AA?9?$AAi?$AAn@ 0000000180027638     libucrt:lcidtoname_downlevel.obj
 0002:00006648       ??_C@_1M@PMBNDPHD@?$AAh?$AAr?$AA?9?$AAb?$AAa@ 0000000180027648     libucrt:lcidtoname_downlevel.obj
 0002:00006658       ??_C@_1M@BPCKOEGE@?$AAh?$AAr?$AA?9?$AAh?$AAr@ 0000000180027658     libucrt:lcidtoname_downlevel.obj
 0002:00006668       ??_C@_1M@GACBMHKE@?$AAh?$AAu?$AA?9?$AAh?$AAu@ 0000000180027668     libucrt:lcidtoname_downlevel.obj
 0002:00006678       ??_C@_1M@MILPAJJC@?$AAh?$AAy?$AA?9?$AAa?$AAm@ 0000000180027678     libucrt:lcidtoname_downlevel.obj
 0002:00006688       ??_C@_1M@BABBICEC@?$AAi?$AAd?$AA?9?$AAi?$AAd@ 0000000180027688     libucrt:lcidtoname_downlevel.obj
 0002:00006698       ??_C@_1M@BIKNHHPF@?$AAi?$AAs?$AA?9?$AAi?$AAs@ 0000000180027698     libucrt:lcidtoname_downlevel.obj
 0002:000066a8       ??_C@_1M@NMPCJPHE@?$AAi?$AAt?$AA?9?$AAc?$AAh@ 00000001800276a8     libucrt:lcidtoname_downlevel.obj
 0002:000066b8       ??_C@_1M@GHKGFEDF@?$AAi?$AAt?$AA?9?$AAi?$AAt@ 00000001800276b8     libucrt:lcidtoname_downlevel.obj
 0002:000066c8       ??_C@_1M@NIEJCJJA@?$AAj?$AAa?$AA?9?$AAj?$AAp@ 00000001800276c8     libucrt:lcidtoname_downlevel.obj
 0002:000066d8       ??_C@_1M@JILFNBIM@?$AAk?$AAa?$AA?9?$AAg?$AAe@ 00000001800276d8     libucrt:lcidtoname_downlevel.obj
 0002:000066e8       ??_C@_1M@PACPMGPH@?$AAk?$AAk?$AA?9?$AAk?$AAz@ 00000001800276e8     libucrt:lcidtoname_downlevel.obj
 0002:000066f8       ??_C@_1M@IELFGMHA@?$AAk?$AAn?$AA?9?$AAi?$AAn@ 00000001800276f8     libucrt:lcidtoname_downlevel.obj
 0002:00006708       ??_C@_1O@IBBJHCH@?$AAk?$AAo?$AAk?$AA?9?$AAi?$AAn@ 0000000180027708     libucrt:lcidtoname_downlevel.obj
 0002:00006718       ??_C@_1M@DMHAEOGC@?$AAk?$AAo?$AA?9?$AAk?$AAr@ 0000000180027718     libucrt:lcidtoname_downlevel.obj
 0002:00006728       ??_C@_1M@HBAHBIGA@?$AAk?$AAy?$AA?9?$AAk?$AAg@ 0000000180027728     libucrt:lcidtoname_downlevel.obj
 0002:00006738       ??_C@_1M@KPMILCJG@?$AAl?$AAt?$AA?9?$AAl?$AAt@ 0000000180027738     libucrt:lcidtoname_downlevel.obj
 0002:00006748       ??_C@_1M@BDEKKCA@?$AAl?$AAv?$AA?9?$AAl?$AAv@ 0000000180027748     libucrt:lcidtoname_downlevel.obj
 0002:00006758       ??_C@_1M@ELCKCCJJ@?$AAm?$AAi?$AA?9?$AAn?$AAz@ 0000000180027758     libucrt:lcidtoname_downlevel.obj
 0002:00006768       ??_C@_1M@CBOOLAPA@?$AAm?$AAk?$AA?9?$AAm?$AAk@ 0000000180027768     libucrt:lcidtoname_downlevel.obj
 0002:00006778       ??_C@_1M@GPHNBJKN@?$AAm?$AAl?$AA?9?$AAi?$AAn@ 0000000180027778     libucrt:lcidtoname_downlevel.obj
 0002:00006788       ??_C@_1M@PABJILIG@?$AAm?$AAn?$AA?9?$AAm?$AAn@ 0000000180027788     libucrt:lcidtoname_downlevel.obj
 0002:00006798       ??_C@_1M@FGBKKIPG@?$AAm?$AAr?$AA?9?$AAi?$AAn@ 0000000180027798     libucrt:lcidtoname_downlevel.obj
 0002:000067a8       ??_C@_1M@NDBPDDAL@?$AAm?$AAs?$AA?9?$AAb?$AAn@ 00000001800277a8     libucrt:lcidtoname_downlevel.obj
 0002:000067b8       ??_C@_1M@OPIHOOPI@?$AAm?$AAs?$AA?9?$AAm?$AAy@ 00000001800277b8     libucrt:lcidtoname_downlevel.obj
 0002:000067c8       ??_C@_1M@PPDBCNFM@?$AAm?$AAt?$AA?9?$AAm?$AAt@ 00000001800277c8     libucrt:lcidtoname_downlevel.obj
 0002:000067d8       ??_C@_1M@KDJDKMDD@?$AAn?$AAb?$AA?9?$AAn?$AAo@ 00000001800277d8     libucrt:lcidtoname_downlevel.obj
 0002:000067e8       ??_C@_1M@KFCFLMJP@?$AAn?$AAl?$AA?9?$AAb?$AAe@ 00000001800277e8     libucrt:lcidtoname_downlevel.obj
 0002:000067f8       ??_C@_1M@KPOPDDGO@?$AAn?$AAl?$AA?9?$AAn?$AAl@ 00000001800277f8     libucrt:lcidtoname_downlevel.obj
 0002:00006808       ??_C@_1M@LJKPEMLN@?$AAn?$AAn?$AA?9?$AAn?$AAo@ 0000000180027808     libucrt:lcidtoname_downlevel.obj
 0002:00006818       ??_C@_1M@BDGHHBFL@?$AAn?$AAs?$AA?9?$AAz?$AAa@ 0000000180027818     libucrt:lcidtoname_downlevel.obj
 0002:00006828       ??_C@_1M@IDEHOAP@?$AAp?$AAa?$AA?9?$AAi?$AAn@ 0000000180027828     libucrt:lcidtoname_downlevel.obj
 0002:00006838       ??_C@_1M@HDBKGOGH@?$AAp?$AAl?$AA?9?$AAp?$AAl@ 0000000180027838     libucrt:lcidtoname_downlevel.obj
 0002:00006848       ??_C@_1M@LJLLCMEH@?$AAp?$AAt?$AA?9?$AAb?$AAr@ 0000000180027848     libucrt:lcidtoname_downlevel.obj
 0002:00006858       ??_C@_1M@NCMONAAL@?$AAp?$AAt?$AA?9?$AAp?$AAt@ 0000000180027858     libucrt:lcidtoname_downlevel.obj
 0002:00006868       ??_C@_1O@EAKMAJDN@?$AAq?$AAu?$AAz?$AA?9?$AAb?$AAo@ 0000000180027868     libucrt:lcidtoname_downlevel.obj
 0002:00006878       ??_C@_1O@BHHPIGDN@?$AAq?$AAu?$AAz?$AA?9?$AAe?$AAc@ 0000000180027878     libucrt:lcidtoname_downlevel.obj
 0002:00006888       ??_C@_1O@GBAPEKMJ@?$AAq?$AAu?$AAz?$AA?9?$AAp?$AAe@ 0000000180027888     libucrt:lcidtoname_downlevel.obj
 0002:00006898       ??_C@_1M@CLGLEFBO@?$AAr?$AAo?$AA?9?$AAr?$AAo@ 0000000180027898     libucrt:lcidtoname_downlevel.obj
 0002:000068a8       ??_C@_1M@CEEDODME@?$AAr?$AAu?$AA?9?$AAr?$AAu@ 00000001800278a8     libucrt:lcidtoname_downlevel.obj
 0002:000068b8       ??_C@_1M@HPKKKMPP@?$AAs?$AAa?$AA?9?$AAi?$AAn@ 00000001800278b8     libucrt:lcidtoname_downlevel.obj
 0002:000068c8       ??_C@_1M@BKMAIGOJ@?$AAs?$AAe?$AA?9?$AAf?$AAi@ 00000001800278c8     libucrt:lcidtoname_downlevel.obj
 0002:000068d8       ??_C@_1M@NDPIFLFI@?$AAs?$AAe?$AA?9?$AAn?$AAo@ 00000001800278d8     libucrt:lcidtoname_downlevel.obj
 0002:000068e8       ??_C@_1M@DANKKHJ@?$AAs?$AAe?$AA?9?$AAs?$AAe@ 00000001800278e8     libucrt:lcidtoname_downlevel.obj
 0002:000068f8       ??_C@_1M@PNBLONPJ@?$AAs?$AAk?$AA?9?$AAs?$AAk@ 00000001800278f8     libucrt:lcidtoname_downlevel.obj
 0002:00006908       ??_C@_1M@LFMODOAL@?$AAs?$AAl?$AA?9?$AAs?$AAi@ 0000000180027908     libucrt:lcidtoname_downlevel.obj
 0002:00006918       ??_C@_1O@DFKOMPG@?$AAs?$AAm?$AAa?$AA?9?$AAn?$AAo@ 0000000180027918     libucrt:lcidtoname_downlevel.obj
 0002:00006928       ??_C@_1O@NDKPBNNH@?$AAs?$AAm?$AAa?$AA?9?$AAs?$AAe@ 0000000180027928     libucrt:lcidtoname_downlevel.obj
 0002:00006938       ??_C@_1O@PLLKBHAB@?$AAs?$AAm?$AAj?$AA?9?$AAn?$AAo@ 0000000180027938     libucrt:lcidtoname_downlevel.obj
 0002:00006948       ??_C@_1O@CLEPOGCA@?$AAs?$AAm?$AAj?$AA?9?$AAs?$AAe@ 0000000180027948     libucrt:lcidtoname_downlevel.obj
 0002:00006958       ??_C@_1O@DLGJGKMK@?$AAs?$AAm?$AAn?$AA?9?$AAf?$AAi@ 0000000180027958     libucrt:lcidtoname_downlevel.obj
 0002:00006968       ??_C@_1O@OJDJGAJC@?$AAs?$AAm?$AAs?$AA?9?$AAf?$AAi@ 0000000180027968     libucrt:lcidtoname_downlevel.obj
 0002:00006978       ??_C@_1M@BOFOGHPB@?$AAs?$AAq?$AA?9?$AAa?$AAl@ 0000000180027978     libucrt:lcidtoname_downlevel.obj
 0002:00006988       ??_C@_1BG@LJBBIPGB@?$AAs?$AAr?$AA?9?$AAb?$AAa?$AA?9?$AAc?$AAy?$AAr?$AAl@ 0000000180027988     libucrt:lcidtoname_downlevel.obj
 0002:000069a0       ??_C@_1BG@JLBENFOE@?$AAs?$AAr?$AA?9?$AAb?$AAa?$AA?9?$AAl?$AAa?$AAt?$AAn@ 00000001800279a0     libucrt:lcidtoname_downlevel.obj
 0002:000069b8       ??_C@_1BG@KODPNHE@?$AAs?$AAr?$AA?9?$AAs?$AAp?$AA?9?$AAc?$AAy?$AAr?$AAl@ 00000001800279b8     libucrt:lcidtoname_downlevel.obj
 0002:000069d0       ??_C@_1BG@CIOGKHPB@?$AAs?$AAr?$AA?9?$AAs?$AAp?$AA?9?$AAl?$AAa?$AAt?$AAn@ 00000001800279d0     libucrt:lcidtoname_downlevel.obj
 0002:000069e8       ??_C@_1M@NGFJLMAC@?$AAs?$AAv?$AA?9?$AAf?$AAi@ 00000001800279e8     libucrt:lcidtoname_downlevel.obj
 0002:000069f8       ??_C@_1M@MPJEJAJC@?$AAs?$AAv?$AA?9?$AAs?$AAe@ 00000001800279f8     libucrt:lcidtoname_downlevel.obj
 0002:00006a08       ??_C@_1M@MPNDHLFK@?$AAs?$AAw?$AA?9?$AAk?$AAe@ 0000000180027a08     libucrt:lcidtoname_downlevel.obj
 0002:00006a18       ??_C@_1O@KOHBJJI@?$AAs?$AAy?$AAr?$AA?9?$AAs?$AAy@ 0000000180027a18     libucrt:lcidtoname_downlevel.obj
 0002:00006a28       ??_C@_1M@LDCEFHA@?$AAt?$AAa?$AA?9?$AAi?$AAn@ 0000000180027a28     libucrt:lcidtoname_downlevel.obj
 0002:00006a38       ??_C@_1M@CNJOFAK@?$AAt?$AAe?$AA?9?$AAi?$AAn@ 0000000180027a38     libucrt:lcidtoname_downlevel.obj
 0002:00006a48       ??_C@_1M@GNAECACD@?$AAt?$AAh?$AA?9?$AAt?$AAh@ 0000000180027a48     libucrt:lcidtoname_downlevel.obj
 0002:00006a58       ??_C@_1M@CHBIHOJO@?$AAt?$AAn?$AA?9?$AAz?$AAa@ 0000000180027a58     libucrt:lcidtoname_downlevel.obj
 0002:00006a68       ??_C@_1M@GCCMIGPJ@?$AAt?$AAr?$AA?9?$AAt?$AAr@ 0000000180027a68     libucrt:lcidtoname_downlevel.obj
 0002:00006a78       ??_C@_1M@CELMCNBK@?$AAt?$AAt?$AA?9?$AAr?$AAu@ 0000000180027a78     libucrt:lcidtoname_downlevel.obj
 0002:00006a88       ??_C@_1M@KLMCELGA@?$AAu?$AAk?$AA?9?$AAu?$AAa@ 0000000180027a88     libucrt:lcidtoname_downlevel.obj
 0002:00006a98       ??_C@_1M@EPAJJAJF@?$AAu?$AAr?$AA?9?$AAp?$AAk@ 0000000180027a98     libucrt:lcidtoname_downlevel.obj
 0002:00006aa8       ??_C@_1BG@GEGPMCDJ@?$AAu?$AAz?$AA?9?$AAu?$AAz?$AA?9?$AAc?$AAy?$AAr?$AAl@ 0000000180027aa8     libucrt:lcidtoname_downlevel.obj
 0002:00006ac0       ??_C@_1BG@EGGKJILM@?$AAu?$AAz?$AA?9?$AAu?$AAz?$AA?9?$AAl?$AAa?$AAt?$AAn@ 0000000180027ac0     libucrt:lcidtoname_downlevel.obj
 0002:00006ad8       ??_C@_1M@GFOCLFF@?$AAv?$AAi?$AA?9?$AAv?$AAn@ 0000000180027ad8     libucrt:lcidtoname_downlevel.obj
 0002:00006ae8       ??_C@_1M@CPAMEDFI@?$AAx?$AAh?$AA?9?$AAz?$AAa@ 0000000180027ae8     libucrt:lcidtoname_downlevel.obj
 0002:00006af8       ??_C@_1O@EBKIFIGN@?$AAz?$AAh?$AA?9?$AAc?$AAh?$AAs@ 0000000180027af8     libucrt:lcidtoname_downlevel.obj
 0002:00006b08       ??_C@_1O@NMHPGANE@?$AAz?$AAh?$AA?9?$AAc?$AAh?$AAt@ 0000000180027b08     libucrt:lcidtoname_downlevel.obj
 0002:00006b18       ??_C@_1M@LPINJOMC@?$AAz?$AAh?$AA?9?$AAc?$AAn@ 0000000180027b18     libucrt:lcidtoname_downlevel.obj
 0002:00006b28       ??_C@_1M@OCJEJODD@?$AAz?$AAh?$AA?9?$AAh?$AAk@ 0000000180027b28     libucrt:lcidtoname_downlevel.obj
 0002:00006b38       ??_C@_1M@DNDLJINH@?$AAz?$AAh?$AA?9?$AAm?$AAo@ 0000000180027b38     libucrt:lcidtoname_downlevel.obj
 0002:00006b48       ??_C@_1M@MBFDNDND@?$AAz?$AAh?$AA?9?$AAs?$AAg@ 0000000180027b48     libucrt:lcidtoname_downlevel.obj
 0002:00006b58       ??_C@_1M@IMEPLEPE@?$AAz?$AAh?$AA?9?$AAt?$AAw@ 0000000180027b58     libucrt:lcidtoname_downlevel.obj
 0002:00006b68       ??_C@_1M@BBGHNHJP@?$AAz?$AAu?$AA?9?$AAz?$AAa@ 0000000180027b68     libucrt:lcidtoname_downlevel.obj
 0002:00006ba0       ?large_power_data@?1??multiply_by_power_of_ten@__crt_strtox@@YA_NAEAUbig_integer@2@I@Z@4QBIB 0000000180027ba0     libucrt:cfout.obj
 0002:000074b0       ?large_power_indices@?1??multiply_by_power_of_ten@__crt_strtox@@YA_NAEAUbig_integer@2@I@Z@4QBUunpack_index@?1??12@YA_N0I@Z@B 00000001800284b0     libucrt:cfout.obj
 0002:00007548       ?small_powers_of_ten@?1??multiply_by_power_of_ten@__crt_strtox@@YA_NAEAUbig_integer@2@I@Z@4QBIB 0000000180028548     libucrt:cfout.obj
 0002:0000756c       ??_C@_01GBGANLPD@0@        000000018002856c     libucrt:cfout.obj
 0002:00007570       ??_C@_05DNEBIAHO@1?$CDINF@ 0000000180028570     libucrt:cfout.obj
 0002:00007578       ??_C@_06IMKFLFPG@1?$CDQNAN@ 0000000180028578     libucrt:cfout.obj
 0002:00007580       ??_C@_06PGGFOGJG@1?$CDSNAN@ 0000000180028580     libucrt:cfout.obj
 0002:00007588       ??_C@_05PHHOCPM@1?$CDIND@  0000000180028588     libucrt:cfout.obj
 0002:00007590       __real@3ff0000000000000    0000000180028590     libucrt:ceil.obj
 0002:000077f0       ??_C@_1BA@BALFACEM@?$AAC?$AAO?$AAN?$AAO?$AAU?$AAT?$AA$@ 00000001800287f0     libucrt:initcon.obj
 0002:00007800       __log10_256_lead           0000000180028800     libucrt:log10_256_lead_tail_table.obj
 0002:00008010       __log10_256_tail           0000000180029010     libucrt:log10_256_lead_tail_table.obj
 0002:00008820       __log_F_inv_qword          0000000180029820     libucrt:log_f_inv_qword_table.obj
 0002:00009030       ??_C@_05HGHHAHAP@log10@    000000018002a030     libucrt:log_special.obj
 0002:00009100       ??_R4type_info@@6B@        000000018002a100     LIBCMT:std_type_info_static.obj
 0002:00009128       ??_R3type_info@@8          000000018002a128     LIBCMT:std_type_info_static.obj
 0002:00009140       ??_R2type_info@@8          000000018002a140     LIBCMT:std_type_info_static.obj
 0002:00009150       ??_R1A@?0A@EA@type_info@@8 000000018002a150     LIBCMT:std_type_info_static.obj
 0002:00009178       ??_R3DNameNode@@8          000000018002a178     libvcruntime:undname.obj
 0002:00009190       ??_R2DNameNode@@8          000000018002a190     libvcruntime:undname.obj
 0002:000091a0       ??_R1A@?0A@EA@DNameNode@@8 000000018002a1a0     libvcruntime:undname.obj
 0002:000091c8       ??_R4charNode@@6B@         000000018002a1c8     libvcruntime:undname.obj
 0002:000091f0       ??_R3charNode@@8           000000018002a1f0     libvcruntime:undname.obj
 0002:00009208       ??_R2charNode@@8           000000018002a208     libvcruntime:undname.obj
 0002:00009220       ??_R1A@?0A@EA@charNode@@8  000000018002a220     libvcruntime:undname.obj
 0002:00009248       ??_R4pcharNode@@6B@        000000018002a248     libvcruntime:undname.obj
 0002:00009270       ??_R3pcharNode@@8          000000018002a270     libvcruntime:undname.obj
 0002:00009288       ??_R2pcharNode@@8          000000018002a288     libvcruntime:undname.obj
 0002:000092a0       ??_R1A@?0A@EA@pcharNode@@8 000000018002a2a0     libvcruntime:undname.obj
 0002:000092c8       ??_R4pDNameNode@@6B@       000000018002a2c8     libvcruntime:undname.obj
 0002:000092f0       ??_R3pDNameNode@@8         000000018002a2f0     libvcruntime:undname.obj
 0002:00009308       ??_R2pDNameNode@@8         000000018002a308     libvcruntime:undname.obj
 0002:00009320       ??_R1A@?0A@EA@pDNameNode@@8 000000018002a320     libvcruntime:undname.obj
 0002:00009348       ??_R4DNameStatusNode@@6B@  000000018002a348     libvcruntime:undname.obj
 0002:00009370       ??_R3DNameStatusNode@@8    000000018002a370     libvcruntime:undname.obj
 0002:00009388       ??_R2DNameStatusNode@@8    000000018002a388     libvcruntime:undname.obj
 0002:000093a0       ??_R1A@?0A@EA@DNameStatusNode@@8 000000018002a3a0     libvcruntime:undname.obj
 0002:000093c8       ??_R4pairNode@@6B@         000000018002a3c8     libvcruntime:undname.obj
 0002:000093f0       ??_R3pairNode@@8           000000018002a3f0     libvcruntime:undname.obj
 0002:00009408       ??_R2pairNode@@8           000000018002a408     libvcruntime:undname.obj
 0002:00009420       ??_R1A@?0A@EA@pairNode@@8  000000018002a420     libvcruntime:undname.obj
 0002:00009448       ??_R4exception@std@@6B@    000000018002a448     libvcruntime:frame.obj
 0002:00009470       ??_R3exception@std@@8      000000018002a470     libvcruntime:frame.obj
 0002:00009488       ??_R2exception@std@@8      000000018002a488     libvcruntime:frame.obj
 0002:00009498       ??_R1A@?0A@EA@exception@std@@8 000000018002a498     libvcruntime:frame.obj
 0002:000094c0       ??_R4bad_exception@std@@6B@ 000000018002a4c0     libvcruntime:frame.obj
 0002:000094e8       ??_R3bad_exception@std@@8  000000018002a4e8     libvcruntime:frame.obj
 0002:00009500       ??_R2bad_exception@std@@8  000000018002a500     libvcruntime:frame.obj
 0002:00009518       ??_R1A@?0A@EA@bad_exception@std@@8 000000018002a518     libvcruntime:frame.obj
 0002:0000953c       __volatile_metadata        000000018002a53c     <linker-defined>
 0002:00009bd8       __rtc_iaa                  000000018002abd8     LIBCMT:initsect.obj
 0002:00009be0       __rtc_izz                  000000018002abe0     LIBCMT:initsect.obj
 0002:00009be8       __rtc_taa                  000000018002abe8     LIBCMT:initsect.obj
 0002:00009bf0       __rtc_tzz                  000000018002abf0     LIBCMT:initsect.obj
 0002:0000b1f0       _TI2?AVbad_exception@std@@ 000000018002c1f0     libvcruntime:frame.obj
 0002:0000b210       _CTA2?AVbad_exception@std@@ 000000018002c210     libvcruntime:frame.obj
 0002:0000b228       _CT??_R0?AVbad_exception@std@@@8??0bad_exception@std@@QEAA@AEBV01@@Z24 000000018002c228     libvcruntime:frame.obj
 0002:0000b250       _CT??_R0?AVexception@std@@@8??0exception@std@@QEAA@AEBV01@@Z24 000000018002c250     libvcruntime:frame.obj
 0002:0000b274       __DELAY_IMPORT_DESCRIPTOR_physxcommon_64_dll 000000018002c274     PhysXCommon_64:PhysXCommon_64.dll
 0002:0000b294       __DELAY_IMPORT_DESCRIPTOR_physxfoundation_64_dll 000000018002c294     PhysXFoundation_64:PhysXFoundation_64.dll
 0002:0000b2b4       __NULL_DELAY_IMPORT_DESCRIPTOR 000000018002c2b4     PhysXCommon_64:PhysXCommon_64.dll
 0002:0000b398       \177PhysXCommon_64_NULL_THUNK_DATA_DLN 000000018002c398     PhysXCommon_64:PhysXCommon_64.dll
 0002:0000b3a8       \177PhysXFoundation_64_NULL_THUNK_DATA_DLN 000000018002c3a8     PhysXFoundation_64:PhysXFoundation_64.dll
 0002:0000b638       \177PhysXCommon_64_NULL_THUNK_DATA_DLB 000000018002c638     PhysXCommon_64:PhysXCommon_64.dll
 0002:0000b700       \177PhysXFoundation_64_NULL_THUNK_DATA_DLB 000000018002c700     PhysXFoundation_64:PhysXFoundation_64.dll
 0002:0000c214       __IMPORT_DESCRIPTOR_KERNEL32 000000018002d214     kernel32:KERNEL32.dll
 0002:0000c228       __NULL_IMPORT_DESCRIPTOR   000000018002d228     kernel32:KERNEL32.dll
 0003:00000000       __pfnDliNotifyHook2        000000018002e000     WindowsCookingDelayLoadHook.obj
 0003:00000008       _fltused                   000000018002e008     LIBCMT:fltused.obj
 0003:0000000c       __scrt_native_dllmain_reason 000000018002e00c     LIBCMT:utility.obj
 0003:00000010       __security_cookie_complement 000000018002e010     LIBCMT:gs_cookie.obj
 0003:00000018       __security_cookie          000000018002e018     LIBCMT:gs_cookie.obj
 0003:00000020       __isa_available            000000018002e020     LIBCMT:cpu_disp.obj
 0003:00000024       __isa_enabled              000000018002e024     LIBCMT:cpu_disp.obj
 0003:00000028       __memset_fast_string_threshold 000000018002e028     LIBCMT:cpu_disp.obj
 0003:00000030       __memset_nt_threshold      000000018002e030     LIBCMT:cpu_disp.obj
 0003:00000060       __abort_behavior           000000018002e060     libucrt:abort.obj
 0003:00000080       __acrt_initial_multibyte_data 000000018002e080     libucrt:mbctype.obj
 0003:000005c0       __acrt_initial_locale_data 000000018002e5c0     libucrt:nlsdata.obj
 0003:00000718       __acrt_initial_locale_pointers 000000018002e718     libucrt:nlsdata.obj
 0003:00000728       __acrt_wide_c_locale_string 000000018002e728     libucrt:nlsdata.obj
 0003:00000730       _iob                       000000018002e730     libucrt:_file.obj
 0003:00000838       __globallocalestatus       000000018002e838     libucrt:glstatus.obj
 0003:00000840       __acrt_lconv_c             000000018002e840     libucrt:localeconv.obj
 0003:000008d8       __acrt_lconv_static_decimal 000000018002e8d8     libucrt:localeconv.obj
 0003:000008dc       __acrt_lconv_static_W_decimal 000000018002e8dc     libucrt:localeconv.obj
 0003:000008e0       _lookuptrailbytes          000000018002e8e0     libucrt:read.obj
 0003:00000a00       ??_R0?AVBVH@Gu@physx@@@8   000000018002ea00     Cooking.obj
 0003:00000a28       ??_R0?AVBV4TriangleMesh@Gu@physx@@@8 000000018002ea28     Cooking.obj
 0003:00000a58       ??_R0?AUSlab@NodeAllocator@Gu@physx@@@8 000000018002ea58     Cooking.obj
 0003:00000a90       ??_R0?AVbad_exception@std@@@8 000000018002ea90     libvcruntime:frame.obj
 0003:00000ab8       ??_R0?AVexception@std@@@8  000000018002eab8     libvcruntime:frame.obj
 0003:00000ae0       ??_R0?AVtype_info@@@8      000000018002eae0     LIBCMT:std_type_info_static.obj
 0003:00000b00       ??_R0?AVDNameNode@@@8      000000018002eb00     libvcruntime:undname.obj
 0003:00000b20       ??_R0?AVcharNode@@@8       000000018002eb20     libvcruntime:undname.obj
 0003:00000b40       ??_R0?AVpcharNode@@@8      000000018002eb40     libvcruntime:undname.obj
 0003:00000b60       ??_R0?AVpDNameNode@@@8     000000018002eb60     libvcruntime:undname.obj
 0003:00000b88       ??_R0?AVDNameStatusNode@@@8 000000018002eb88     libvcruntime:undname.obj
 0003:00000bb0       ??_R0?AVpairNode@@@8       000000018002ebb0     libvcruntime:undname.obj
 0003:00000bd0       __imp_getInsertionCallback 000000018002ebd0     PhysXCommon_64:PhysXCommon_64.dll
 0003:00000bd8       __imp_??0BV4TriangleMesh@Gu@physx@@QEAA@AEBUPxTriangleMeshInternalData@2@@Z 000000018002ebd8     PhysXCommon_64:PhysXCommon_64.dll
 0003:00000be0       __imp_cookBVH              000000018002ebe0     PhysXCommon_64:PhysXCommon_64.dll
 0003:00000be8       __imp_createBVH            000000018002ebe8     PhysXCommon_64:PhysXCommon_64.dll
 0003:00000bf0       __imp_cookHeightField      000000018002ebf0     PhysXCommon_64:PhysXCommon_64.dll
 0003:00000bf8       __imp_createHeightField    000000018002ebf8     PhysXCommon_64:PhysXCommon_64.dll
 0003:00000c00       __imp_cookConvexMesh       000000018002ec00     PhysXCommon_64:PhysXCommon_64.dll
 0003:00000c08       __imp_createConvexMesh     000000018002ec08     PhysXCommon_64:PhysXCommon_64.dll
 0003:00000c10       __imp_validateConvexMesh   000000018002ec10     PhysXCommon_64:PhysXCommon_64.dll
 0003:00000c18       __imp_computeHullPolygons  000000018002ec18     PhysXCommon_64:PhysXCommon_64.dll
 0003:00000c20       __imp_validateTriangleMesh 000000018002ec20     PhysXCommon_64:PhysXCommon_64.dll
 0003:00000c28       __imp_createTriangleMesh   000000018002ec28     PhysXCommon_64:PhysXCommon_64.dll
 0003:00000c30       __imp_cookTriangleMesh     000000018002ec30     PhysXCommon_64:PhysXCommon_64.dll
 0003:00000c38       __imp_cookTetrahedronMesh  000000018002ec38     PhysXCommon_64:PhysXCommon_64.dll
 0003:00000c40       __imp_createTetrahedronMesh 000000018002ec40     PhysXCommon_64:PhysXCommon_64.dll
 0003:00000c48       __imp_cookSoftBodyMesh     000000018002ec48     PhysXCommon_64:PhysXCommon_64.dll
 0003:00000c50       __imp_createSoftBodyMesh   000000018002ec50     PhysXCommon_64:PhysXCommon_64.dll
 0003:00000c58       __imp_computeModelsMapping 000000018002ec58     PhysXCommon_64:PhysXCommon_64.dll
 0003:00000c60       __imp_computeCollisionData 000000018002ec60     PhysXCommon_64:PhysXCommon_64.dll
 0003:00000c68       __imp_computeSimulationData 000000018002ec68     PhysXCommon_64:PhysXCommon_64.dll
 0003:00000c70       __imp_assembleSoftBodyMesh 000000018002ec70     PhysXCommon_64:PhysXCommon_64.dll
 0003:00000c78       __imp_assembleSoftBodyMesh_Sim 000000018002ec78     PhysXCommon_64:PhysXCommon_64.dll
 0003:00000c80       __imp_?release@AABBTreeBounds@Gu@physx@@QEAAXXZ 000000018002ec80     PhysXCommon_64:PhysXCommon_64.dll
 0003:00000c88       __imp_??0BVH@Gu@physx@@QEAA@AEBUPxBVHInternalData@2@@Z 000000018002ec88     PhysXCommon_64:PhysXCommon_64.dll
 0003:00000c90       \177PhysXCommon_64_NULL_THUNK_DATA_DLA 000000018002ec90     PhysXCommon_64:PhysXCommon_64.dll
 0003:00000c98       __imp_PxGetBroadcastAllocator 000000018002ec98     PhysXFoundation_64:PhysXFoundation_64.dll
 0003:00000ca0       \177PhysXFoundation_64_NULL_THUNK_DATA_DLA 000000018002eca0     PhysXFoundation_64:PhysXFoundation_64.dll
 0003:00000d18       __hmod__PhysXCommon_64_dll 000000018002ed18     PhysXCommon_64:PhysXCommon_64.dll
 0003:00000d20       __hmod__PhysXFoundation_64_dll 000000018002ed20     PhysXFoundation_64:PhysXFoundation_64.dll
 0003:00000d28       ?DloadKernel32@@3PEAUHINSTANCE__@@EA 000000018002ed28     Delayimp:delayhlp.obj
 0003:00000d30       ?DloadAcquireSRWLockExclusive@@3P6AXPEA_K@ZEA 000000018002ed30     Delayimp:delayhlp.obj
 0003:00000d38       ?DloadReleaseSRWLockExclusive@@3P6AXPEA_K@ZEA 000000018002ed38     Delayimp:delayhlp.obj
 0003:00000d40       ?DloadSrwLock@@3_KA        000000018002ed40     Delayimp:delayhlp.obj
 0003:00000d48       ?DloadSectionLockCount@@3KA 000000018002ed48     Delayimp:delayhlp.obj
 0003:00000d4c       ?DloadSectionOldProtection@@3KA 000000018002ed4c     Delayimp:delayhlp.obj
 0003:00000d50       ?DloadSectionCommitPermanent@@3KA 000000018002ed50     Delayimp:delayhlp.obj
 0003:00000d60       ?__type_info_root_node@@3U__type_info_node@@A 000000018002ed60     LIBCMT:tncleanup.obj
 0003:00000d78       ?_OptionsStorage@?1??__local_stdio_printf_options@@9@4_KA 000000018002ed78     LIBCMT:default_local_stdio_options.obj
 0003:00000d80       ?_OptionsStorage@?1??__local_stdio_scanf_options@@9@4_KA 000000018002ed80     LIBCMT:default_local_stdio_options.obj
 0003:00000d88       __scrt_current_native_startup_state 000000018002ed88     LIBCMT:utility.obj
 0003:00000d90       __scrt_native_startup_lock 000000018002ed90     LIBCMT:utility.obj
 0003:00000dd0       __scrt_debugger_hook_flag  000000018002edd0     LIBCMT:utility_desktop.obj
 0003:00000dd4       __favor                    000000018002edd4     LIBCMT:cpu_disp.obj
 0003:00000dd8       ?__WinRTOutOfMemoryExceptionCallback@@3P6APEAXXZEA 000000018002edd8     libvcruntime:ehhelpers.obj
 0003:00000de0       __pPurecall                000000018002ede0     libvcruntime:purevirt_data.obj
 0003:00000de8       ?pArgList@UnDecorator@@0PEAVReplicator@@EA 000000018002ede8     libvcruntime:undname.obj
 0003:00000df0       ?pZNameList@UnDecorator@@0PEAVReplicator@@EA 000000018002edf0     libvcruntime:undname.obj
 0003:00000df8       ?pTemplateArgList@UnDecorator@@0PEAVReplicator@@EA 000000018002edf8     libvcruntime:undname.obj
 0003:00000e00       ?gName@UnDecorator@@0PEBDEB 000000018002ee00     libvcruntime:undname.obj
 0003:00000e08       ?name@UnDecorator@@0PEBDEB 000000018002ee08     libvcruntime:undname.obj
 0003:00000e10       ?disableFlags@UnDecorator@@0KA 000000018002ee10     libvcruntime:undname.obj
 0003:00000e14       ?fExplicitTemplateParams@UnDecorator@@0_NA 000000018002ee14     libvcruntime:undname.obj
 0003:00000e15       ?fGetTemplateArgumentList@UnDecorator@@0_NA 000000018002ee15     libvcruntime:undname.obj
 0003:00000e18       ?m_pGetParameter@UnDecorator@@0P6APEADJ@ZEA 000000018002ee18     libvcruntime:undname.obj
 0003:00000e20       ?m_CHPENameOffset@UnDecorator@@0KA 000000018002ee20     libvcruntime:undname.obj
 0003:00000e24       ?m_recursionLevel@UnDecorator@@0KA 000000018002ee24     libvcruntime:undname.obj
 0003:00001068       _environ_table             000000018002f068     libucrt:environment_initialization.obj
 0003:00001070       _wenviron_table            000000018002f070     libucrt:environment_initialization.obj
 0003:00001078       __dcrt_initial_wide_environment 000000018002f078     libucrt:environment_initialization.obj
 0003:00001080       __dcrt_initial_narrow_environment 000000018002f080     libucrt:environment_initialization.obj
 0003:00001088       __acrt_atexit_table        000000018002f088     libucrt:onexit.obj
 0003:000010a0       __acrt_at_quick_exit_table 000000018002f0a0     libucrt:onexit.obj
 0003:00001300       _mbctype                   000000018002f300     libucrt:mbctype.obj
 0003:00001308       _mbcasemap                 000000018002f308     libucrt:mbctype.obj
 0003:00001310       __acrt_current_multibyte_data 000000018002f310     libucrt:mbctype.obj
 0003:00001320       _pgmptr                    000000018002f320     libucrt:argv_data.obj
 0003:00001328       __argc                     000000018002f328     libucrt:argv_data.obj
 0003:00001330       __argv                     000000018002f330     libucrt:argv_data.obj
 0003:00001338       __wargv                    000000018002f338     libucrt:argv_data.obj
 0003:00001340       _acmdln                    000000018002f340     libucrt:argv_data.obj
 0003:00001348       _wcmdln                    000000018002f348     libucrt:argv_data.obj
 0003:000014f8       __acrt_heap                000000018002f4f8     libucrt:heap_handle.obj
 0003:00001500       __pioinfo                  000000018002f500     libucrt:ioinit.obj
 0003:00001900       _nhandle                   000000018002f900     libucrt:ioinit.obj
 0003:00001938       __acrt_current_locale_data 000000018002f938     libucrt:nlsdata.obj
 0003:00001940       _nstream                   000000018002f940     libucrt:_file.obj
 0003:00001948       __piob                     000000018002f948     libucrt:_file.obj
 0003:00001950       __acrt_stdout_buffer       000000018002f950     libucrt:_sftbuf.obj
 0003:00001958       __acrt_stderr_buffer       000000018002f958     libucrt:_sftbuf.obj
 0003:00001970       __acrt_locale_changed_data 000000018002f970     libucrt:wsetlocale.obj
 0003:00001978       __acrt_lconv_static_null   000000018002f978     libucrt:localeconv.obj
 0003:0000197c       __acrt_lconv_static_W_null 000000018002f97c     libucrt:localeconv.obj
 0003:00001990       __fma3_is_available        000000018002f990     libucrt:fma3_available.obj
 0003:00001994       __use_fma3_lib             000000018002f994     libucrt:fma3_available.obj
 0003:00001f10       __scrt_ucrt_dll_is_in_use  000000018002ff10     <common>
 0003:00001f18       __dyn_tls_init_callback    000000018002ff18     <common>

 entry point at        0001:000015c8

 Static symbols

 0000:fffcb000       .debug$S                   0000000180000000     PhysXCooking_64.exp
 0000:fffcb000       .debug$S                   0000000180000000     kernel32:KERNEL32.dll
 0000:fffcb000       .debug$S                   0000000180000000     kernel32:KERNEL32.dll
 0000:fffcb000       .debug$S                   0000000180000000     kernel32:KERNEL32.dll
 0000:fffcb000       .debug$S                   0000000180000000     kernel32:KERNEL32.dll
 0000:fffcb000       .debug$S                   0000000180000000     kernel32:KERNEL32.dll
 0000:fffcb000       .debug$S                   0000000180000000     kernel32:KERNEL32.dll
 0000:fffcb000       .debug$S                   0000000180000000     kernel32:KERNEL32.dll
 0000:fffcb000       .debug$S                   0000000180000000     kernel32:KERNEL32.dll
 0000:fffcb000       .debug$S                   0000000180000000     kernel32:KERNEL32.dll
 0000:fffcb000       .debug$S                   0000000180000000     kernel32:KERNEL32.dll
 0000:fffcb000       .debug$S                   0000000180000000     kernel32:KERNEL32.dll
 0000:fffcb000       .debug$S                   0000000180000000     kernel32:KERNEL32.dll
 0000:fffcb000       .debug$S                   0000000180000000     kernel32:KERNEL32.dll
 0000:fffcb000       .debug$S                   0000000180000000     kernel32:KERNEL32.dll
 0000:fffcb000       .debug$S                   0000000180000000     kernel32:KERNEL32.dll
 0000:fffcb000       .debug$S                   0000000180000000     kernel32:KERNEL32.dll
 0000:fffcb000       .debug$S                   0000000180000000     kernel32:KERNEL32.dll
 0000:fffcb000       .debug$S                   0000000180000000     kernel32:KERNEL32.dll
 0000:fffcb000       .debug$S                   0000000180000000     kernel32:KERNEL32.dll
 0000:fffcb000       .debug$S                   0000000180000000     kernel32:KERNEL32.dll
 0000:fffcb000       .debug$S                   0000000180000000     kernel32:KERNEL32.dll
 0000:fffcb000       .debug$S                   0000000180000000     kernel32:KERNEL32.dll
 0000:fffcb000       .debug$S                   0000000180000000     kernel32:KERNEL32.dll
 0000:fffcb000       .debug$S                   0000000180000000     kernel32:KERNEL32.dll
 0000:fffcb000       .debug$S                   0000000180000000     kernel32:KERNEL32.dll
 0000:fffcb000       .debug$S                   0000000180000000     kernel32:KERNEL32.dll
 0000:fffcb000       .debug$S                   0000000180000000     kernel32:KERNEL32.dll
 0000:fffcb000       .debug$S                   0000000180000000     kernel32:KERNEL32.dll
 0000:fffcb000       .debug$S                   0000000180000000     kernel32:KERNEL32.dll
 0000:fffcb000       .debug$S                   0000000180000000     kernel32:KERNEL32.dll
 0000:fffcb000       .debug$S                   0000000180000000     kernel32:KERNEL32.dll
 0000:fffcb000       .debug$S                   0000000180000000     kernel32:KERNEL32.dll
 0000:fffcb000       .debug$S                   0000000180000000     kernel32:KERNEL32.dll
 0000:fffcb000       .debug$S                   0000000180000000     kernel32:KERNEL32.dll
 0000:fffcb000       .debug$S                   0000000180000000     kernel32:KERNEL32.dll
 0000:fffcb000       .debug$S                   0000000180000000     kernel32:KERNEL32.dll
 0000:fffcb000       .debug$S                   0000000180000000     kernel32:KERNEL32.dll
 0000:fffcb000       .debug$S                   0000000180000000     kernel32:KERNEL32.dll
 0000:fffcb000       .debug$S                   0000000180000000     kernel32:KERNEL32.dll
 0000:fffcb000       .debug$S                   0000000180000000     kernel32:KERNEL32.dll
 0000:fffcb000       .debug$S                   0000000180000000     kernel32:KERNEL32.dll
 0000:fffcb000       .debug$S                   0000000180000000     kernel32:KERNEL32.dll
 0000:fffcb000       .debug$S                   0000000180000000     kernel32:KERNEL32.dll
 0000:fffcb000       .debug$S                   0000000180000000     kernel32:KERNEL32.dll
 0000:fffcb000       .debug$S                   0000000180000000     kernel32:KERNEL32.dll
 0000:fffcb000       .debug$S                   0000000180000000     kernel32:KERNEL32.dll
 0000:fffcb000       .debug$S                   0000000180000000     kernel32:KERNEL32.dll
 0000:fffcb000       .debug$S                   0000000180000000     kernel32:KERNEL32.dll
 0000:fffcb000       .debug$S                   0000000180000000     kernel32:KERNEL32.dll
 0000:fffcb000       .debug$S                   0000000180000000     kernel32:KERNEL32.dll
 0000:fffcb000       .debug$S                   0000000180000000     kernel32:KERNEL32.dll
 0000:fffcb000       .debug$S                   0000000180000000     kernel32:KERNEL32.dll
 0000:fffcb000       .debug$S                   0000000180000000     kernel32:KERNEL32.dll
 0000:fffcb000       .debug$S                   0000000180000000     kernel32:KERNEL32.dll
 0000:fffcb000       .debug$S                   0000000180000000     kernel32:KERNEL32.dll
 0000:fffcb000       .debug$S                   0000000180000000     kernel32:KERNEL32.dll
 0000:fffcb000       .debug$S                   0000000180000000     kernel32:KERNEL32.dll
 0000:fffcb000       .debug$S                   0000000180000000     kernel32:KERNEL32.dll
 0000:fffcb000       .debug$S                   0000000180000000     kernel32:KERNEL32.dll
 0000:fffcb000       .debug$S                   0000000180000000     kernel32:KERNEL32.dll
 0000:fffcb000       .debug$S                   0000000180000000     kernel32:KERNEL32.dll
 0000:fffcb000       .debug$S                   0000000180000000     kernel32:KERNEL32.dll
 0000:fffcb000       .debug$S                   0000000180000000     kernel32:KERNEL32.dll
 0000:fffcb000       .debug$S                   0000000180000000     kernel32:KERNEL32.dll
 0000:fffcb000       .debug$S                   0000000180000000     kernel32:KERNEL32.dll
 0000:fffcb000       .debug$S                   0000000180000000     kernel32:KERNEL32.dll
 0000:fffcb000       .debug$S                   0000000180000000     kernel32:KERNEL32.dll
 0000:fffcb000       .debug$S                   0000000180000000     kernel32:KERNEL32.dll
 0000:fffcb000       .debug$S                   0000000180000000     kernel32:KERNEL32.dll
 0000:fffcb000       .debug$S                   0000000180000000     kernel32:KERNEL32.dll
 0000:fffcb000       .debug$S                   0000000180000000     kernel32:KERNEL32.dll
 0000:fffcb000       .debug$S                   0000000180000000     kernel32:KERNEL32.dll
 0000:fffcb000       .debug$S                   0000000180000000     kernel32:KERNEL32.dll
 0000:fffcb000       .debug$S                   0000000180000000     kernel32:KERNEL32.dll
 0000:fffcb000       .debug$S                   0000000180000000     kernel32:KERNEL32.dll
 0000:fffcb000       .debug$S                   0000000180000000     kernel32:KERNEL32.dll
 0000:fffcb000       .debug$S                   0000000180000000     kernel32:KERNEL32.dll
 0000:fffcb000       .debug$S                   0000000180000000     kernel32:KERNEL32.dll
 0000:fffcb000       .debug$S                   0000000180000000     kernel32:KERNEL32.dll
 0000:fffcb000       .debug$S                   0000000180000000     kernel32:KERNEL32.dll
 0000:fffcb000       .debug$S                   0000000180000000     kernel32:KERNEL32.dll
 0000:fffcb000       .debug$S                   0000000180000000     kernel32:KERNEL32.dll
 0000:fffcb000       .debug$S                   0000000180000000     kernel32:KERNEL32.dll
 0000:fffcb000       .debug$S                   0000000180000000     kernel32:KERNEL32.dll
 0000:fffcb000       .debug$S                   0000000180000000     kernel32:KERNEL32.dll
 0000:fffcb000       .debug$S                   0000000180000000     kernel32:KERNEL32.dll
 0000:fffcb000       .debug$S                   0000000180000000     kernel32:KERNEL32.dll
 0000:fffcb000       .debug$S                   0000000180000000     kernel32:KERNEL32.dll
 0000:fffcb000       .debug$S                   0000000180000000     kernel32:KERNEL32.dll
 0000:fffcb000       .debug$S                   0000000180000000     kernel32:KERNEL32.dll
 0000:fffcb000       .debug$S                   0000000180000000     kernel32:KERNEL32.dll
 0000:fffcb000       .debug$S                   0000000180000000     kernel32:KERNEL32.dll
 0000:fffcb000       .debug$S                   0000000180000000     kernel32:KERNEL32.dll
 0000:fffcb000       .debug$S                   0000000180000000     kernel32:KERNEL32.dll
 0000:fffcb000       .debug$S                   0000000180000000     PhysXCommon_64:PhysXCommon_64.dll
 0000:fffcb000       .debug$S                   0000000180000000     PhysXCommon_64:PhysXCommon_64.dll
 0000:fffcb000       .debug$S                   0000000180000000     PhysXCommon_64:PhysXCommon_64.dll
 0000:fffcb000       .debug$S                   0000000180000000     PhysXCommon_64:PhysXCommon_64.dll
 0000:fffcb000       .debug$S                   0000000180000000     PhysXCommon_64:PhysXCommon_64.dll
 0000:fffcb000       .debug$S                   0000000180000000     PhysXCommon_64:PhysXCommon_64.dll
 0000:fffcb000       .debug$S                   0000000180000000     PhysXCommon_64:PhysXCommon_64.dll
 0000:fffcb000       .debug$S                   0000000180000000     PhysXCommon_64:PhysXCommon_64.dll
 0000:fffcb000       .debug$S                   0000000180000000     PhysXCommon_64:PhysXCommon_64.dll
 0000:fffcb000       .debug$S                   0000000180000000     PhysXCommon_64:PhysXCommon_64.dll
 0000:fffcb000       .debug$S                   0000000180000000     PhysXCommon_64:PhysXCommon_64.dll
 0000:fffcb000       .debug$S                   0000000180000000     PhysXCommon_64:PhysXCommon_64.dll
 0000:fffcb000       .debug$S                   0000000180000000     PhysXCommon_64:PhysXCommon_64.dll
 0000:fffcb000       .debug$S                   0000000180000000     PhysXCommon_64:PhysXCommon_64.dll
 0000:fffcb000       .debug$S                   0000000180000000     PhysXCommon_64:PhysXCommon_64.dll
 0000:fffcb000       .debug$S                   0000000180000000     PhysXCommon_64:PhysXCommon_64.dll
 0000:fffcb000       .debug$S                   0000000180000000     PhysXCommon_64:PhysXCommon_64.dll
 0000:fffcb000       .debug$S                   0000000180000000     PhysXCommon_64:PhysXCommon_64.dll
 0000:fffcb000       .debug$S                   0000000180000000     PhysXCommon_64:PhysXCommon_64.dll
 0000:fffcb000       .debug$S                   0000000180000000     PhysXCommon_64:PhysXCommon_64.dll
 0000:fffcb000       .debug$S                   0000000180000000     PhysXCommon_64:PhysXCommon_64.dll
 0000:fffcb000       .debug$S                   0000000180000000     PhysXCommon_64:PhysXCommon_64.dll
 0000:fffcb000       .debug$S                   0000000180000000     PhysXCommon_64:PhysXCommon_64.dll
 0000:fffcb000       .debug$S                   0000000180000000     PhysXCommon_64:PhysXCommon_64.dll
 0000:fffcb000       .debug$S                   0000000180000000     PhysXFoundation_64:PhysXFoundation_64.dll
 0001:00000000       ??__EmaxFError@vecMathTests@aos@physx@@YAXXZ 0000000180001000 f   Cooking.obj
 0001:00000010       ??__EmaxV3Error@vecMathTests@aos@physx@@YAXXZ 0000000180001010 f   Cooking.obj
 0001:00000020       ??__EmaxV4Error@vecMathTests@aos@physx@@YAXXZ 0000000180001020 f   Cooking.obj
 0001:00000030       ??__EminFError@vecMathTests@aos@physx@@YAXXZ 0000000180001030 f   Cooking.obj
 0001:00000040       ??__EminV3Error@vecMathTests@aos@physx@@YAXXZ 0000000180001040 f   Cooking.obj
 0001:00000050       ??__EminV4Error@vecMathTests@aos@physx@@YAXXZ 0000000180001050 f   Cooking.obj
 0001:000008f0       $LN24                      00000001800018f0     WindowsCookingDelayLoadHook.obj
 0001:00001248       ?<lambda_invoker_cdecl>@<lambda_2>@?1??__std_type_info_name@@YAPEBDPEAU__std_type_info_data@@PEAU__type_info_node@@@Z@SA@QEAX@Z 0000000180002248 f   libvcruntime:std_type_info.obj
 0001:000012a8       ?dllmain_crt_dispatch@@YAHQEAUHINSTANCE__@@KQEAX@Z 00000001800022a8 f   LIBCMT:dll_dllmain.obj
 0001:000012f8       ?dllmain_crt_process_attach@@YAHQEAUHINSTANCE__@@QEAX@Z 00000001800022f8 f   LIBCMT:dll_dllmain.obj
 0001:00001410       ?dllmain_crt_process_detach@@YAH_N@Z 0000000180002410 f   LIBCMT:dll_dllmain.obj
 0001:00001494       ?dllmain_dispatch@@YAHQEAUHINSTANCE__@@KQEAX@Z 0000000180002494 f   LIBCMT:dll_dllmain.obj
 0001:00001dd0       ?<lambda_invoker_cdecl>@<lambda_1>@?1??__std_type_info_name@@YAPEBDPEAU__std_type_info_data@@PEAU__type_info_node@@@Z@SA@_K@Z 0000000180002dd0 f   libvcruntime:std_type_info.obj
 0001:000024f0       $$000000                   00000001800034f0     libvcruntime:memset.obj
 0001:00002dcc       ??1TrackRecursion@?1??getDecoratedName@UnDecorator@@CA?AVDName@@XZ@QEAA@XZ 0000000180003dcc f   libvcruntime:undname.obj
 0001:0000a740       $$000000                   000000018000b740     libvcruntime:notify.obj
 0001:0000a7c0       $$000000                   000000018000b7c0     libvcruntime:memcpy.obj
 0001:0000bd98       ?try_get_function@@YAPEAXW4function_id@?A0x14174aea@@QEBDQEBW4module_id@2@2@Z 000000018000cd98 f   libvcruntime:winapi_downlevel.obj
 0001:0000c27c       ??$BuildCatchObjectHelperInternal@V__FrameHandler3@@@@YAHPEAUEHExceptionRecord@@PEAXPEBU_s_HandlerType@@PEBU_s_CatchableType@@@Z 000000018000d27c f   libvcruntime:frame.obj
 0001:0000c47c       ??$BuildCatchObjectHelperInternal@V__FrameHandler4@@@@YAHPEAUEHExceptionRecord@@PEAXPEAUHandlerType4@FH4@@PEBU_s_CatchableType@@@Z 000000018000d47c f   libvcruntime:frame.obj
 0001:0000c680       ??$BuildCatchObjectInternal@V__FrameHandler3@@@@YAXPEAUEHExceptionRecord@@PEAXPEBU_s_HandlerType@@PEBU_s_CatchableType@@@Z 000000018000d680 f   libvcruntime:frame.obj
 0001:0000c740       ??$BuildCatchObjectInternal@V__FrameHandler4@@@@YAXPEAUEHExceptionRecord@@PEAXPEAUHandlerType4@FH4@@PEBU_s_CatchableType@@@Z 000000018000d740 f   libvcruntime:frame.obj
 0001:0000c804       ??$CatchIt@V__FrameHandler3@@@@YAXPEAUEHExceptionRecord@@PEA_KPEAU_CONTEXT@@PEAU_xDISPATCHER_CONTEXT@@PEBU_s_FuncInfo@@PEBU_s_HandlerType@@PEBU_s_CatchableType@@PEBU_s_TryBlockMapEntry@@H1EE@Z 000000018000d804 f   libvcruntime:frame.obj
 0001:0000c8d8       ??$CatchIt@V__FrameHandler4@@@@YAXPEAUEHExceptionRecord@@PEA_KPEAU_CONTEXT@@PEAU_xDISPATCHER_CONTEXT@@PEAUFuncInfo4@FH4@@PEAUHandlerType4@4@PEBU_s_CatchableType@@PEAUTryBlockMapEntry4@4@H1EE@Z 000000018000d8d8 f   libvcruntime:frame.obj
 0001:0000c9ac       ??$FindHandler@V__FrameHandler3@@@@YAXPEAUEHExceptionRecord@@PEA_KPEAU_CONTEXT@@PEAU_xDISPATCHER_CONTEXT@@PEBU_s_FuncInfo@@EH1@Z 000000018000d9ac f   libvcruntime:frame.obj
 0001:0000ce84       ??$FindHandler@V__FrameHandler4@@@@YAXPEAUEHExceptionRecord@@PEA_KPEAU_CONTEXT@@PEAU_xDISPATCHER_CONTEXT@@PEAUFuncInfo4@FH4@@EH1@Z 000000018000de84 f   libvcruntime:frame.obj
 0001:0000d380       ??$FindHandlerForForeignException@V__FrameHandler3@@@@YAXPEAUEHExceptionRecord@@PEA_KPEAU_CONTEXT@@PEAU_xDISPATCHER_CONTEXT@@PEBU_s_FuncInfo@@HH1@Z 000000018000e380 f   libvcruntime:frame.obj
 0001:0000d59c       ??$FindHandlerForForeignException@V__FrameHandler4@@@@YAXPEAUEHExceptionRecord@@PEA_KPEAU_CONTEXT@@PEAU_xDISPATCHER_CONTEXT@@PEAUFuncInfo4@FH4@@HH1@Z 000000018000e59c f   libvcruntime:frame.obj
 0001:0000e84c       ?ExFilterRethrow@@YAHPEAU_EXCEPTION_POINTERS@@PEAUEHExceptionRecord@@PEAH@Z 000000018000f84c f   libvcruntime:frame.obj
 0001:0000e8d4       ?ExFilterRethrowFH4@@YAHPEAU_EXCEPTION_POINTERS@@PEAUEHExceptionRecord@@HPEAH@Z 000000018000f8d4 f   libvcruntime:frame.obj
 0001:0000ee24       ?IsInExceptionSpec@@YAEPEAUEHExceptionRecord@@PEBU_s_ESTypeList@@@Z 000000018000fe24 f   libvcruntime:frame.obj
 0001:0000ef14       ?Is_bad_exception_allowed@@YAEPEBU_s_ESTypeList@@@Z 000000018000ff14 f   libvcruntime:frame.obj
 0001:0000f1f0       $$000000                   00000001800101f0     libvcruntime:handlers.obj
 0001:0000f6b4       ??$?RV<lambda_d80eeec6fff315bfe5c115232f3240e3>@@AEAV<lambda_6e4b09c48022b2350581041d5f6b0c4c>@@V<lambda_2358e3775559c9db80273638284d5e45>@@@?$__crt_seh_guarded_call@X@@QEAAX$$QEAV<lambda_d80eeec6fff315bfe5c115232f3240e3>@@AEAV<lambda_6e4b09c48022b2350581041d5f6b0c4c>@@$$QEAV<lambda_2358e3775559c9db80273638284d5e45>@@@Z 00000001800106b4 f   libucrt:exit.obj
 0001:0000f6ec       ??R<lambda_6e4b09c48022b2350581041d5f6b0c4c>@@QEBA@XZ 00000001800106ec f   libucrt:exit.obj
 0001:0000f7b8       ?common_exit@@YAXHW4_crt_exit_cleanup_mode@@W4_crt_exit_return_mode@@@Z 00000001800107b8 f   libucrt:exit.obj
 0001:0000f880       ?exit_or_terminate_process@@YAXI@Z 0000000180010880 f   libucrt:exit.obj
 0001:0000f8b4       ?should_call_terminate_process@@YA_NXZ 00000001800108b4 f   libucrt:exit.obj
 0001:0000f8d8       ?try_cor_exit_process@@YAXI@Z 00000001800108d8 f   libucrt:exit.obj
 0001:0000f974       ??$parse_command_line@D@@YAXPEADPEAPEAD0PEA_K2@Z 0000000180010974 f   libucrt:argv_parsing.obj
 0001:0000fd24       ??$common_initialize_environment_nolock@D@@YAHXZ 0000000180010d24 f   libucrt:environment_initialization.obj
 0001:0000fd98       ??$create_environment@D@@YAQEAPEADQEAD@Z 0000000180010d98 f   libucrt:environment_initialization.obj
 0001:0000fea8       ??$free_environment@D@@YAXQEAPEAD@Z 0000000180010ea8 f   libucrt:environment_initialization.obj
 0001:0000fea8       ??$free_environment@_W@@YAXQEAPEA_W@Z 0000000180010ea8 f   libucrt:environment_initialization.obj
 0001:0000feec       ??$uninitialize_environment_internal@D@@YAXAEAPEAPEAD@Z 0000000180010eec f   libucrt:environment_initialization.obj
 0001:0000ff08       ??$uninitialize_environment_internal@_W@@YAXAEAPEAPEA_W@Z 0000000180010f08 f   libucrt:environment_initialization.obj
 0001:0000ff70       ??$?RV<lambda_7777bce6b2f8c936911f934f8298dc43>@@AEAV<lambda_f03950bc5685219e0bcd2087efbe011e>@@V<lambda_3883c3dff614d5e0c5f61bb1ac94921c>@@@?$__crt_seh_guarded_call@H@@QEAAH$$QEAV<lambda_7777bce6b2f8c936911f934f8298dc43>@@AEAV<lambda_f03950bc5685219e0bcd2087efbe011e>@@$$QEAV<lambda_3883c3dff614d5e0c5f61bb1ac94921c>@@@Z 0000000180010f70 f   libucrt:onexit.obj
 0001:0000ffac       ??R<lambda_f03950bc5685219e0bcd2087efbe011e>@@QEBA@XZ 0000000180010fac f   libucrt:onexit.obj
 0001:00010138       initialize_global_variables 0000000180011138 f   libucrt:initialization.obj
 0001:0001014c       initialize_c               000000018001114c f   libucrt:initialization.obj
 0001:00010170       initialize_environment     0000000180011170 f   libucrt:initialization.obj
 0001:00010170       initialize_global_state_isolation 0000000180011170 f   libucrt:initialization.obj
 0001:00010170       report_memory_leaks        0000000180011170 f   libucrt:initialization.obj
 0001:00010170       uninitialize_c             0000000180011170 f   libucrt:initialization.obj
 0001:00010170       uninitialize_global_state_isolation 0000000180011170 f   libucrt:initialization.obj
 0001:00010174       uninitialize_environment   0000000180011174 f   libucrt:initialization.obj
 0001:00010184       initialize_pointers        0000000180011184 f   libucrt:initialization.obj
 0001:000101c4       uninitialize_vcruntime     00000001800111c4 f   libucrt:initialization.obj
 0001:000101cc       uninitialize_allocated_memory 00000001800111cc f   libucrt:initialization.obj
 0001:0001020c       uninitialize_allocated_io_buffers 000000018001120c f   libucrt:initialization.obj
 0001:000103d4       ??$common_vsprintf@Vformat_validation_base@__crt_stdio_output@@D@@YAH_KQEAD0QEBDAEAV__crt_cached_ptd_host@@1@Z 00000001800113d4 f   libucrt:output.obj
 0001:00012dc0       $$000000                   0000000180013dc0     libucrt:strncmp.obj
 0001:00012ec0       ??$?RV<lambda_0ae27a3a962d80f24befdcbee591983d>@@AEAV<lambda_8d0ee55de4b1038c4002e0adecdf1839>@@V<lambda_dc504788e8f1664fe9b84e20bfb512f2>@@@?$__crt_seh_guarded_call@X@@QEAAX$$QEAV<lambda_0ae27a3a962d80f24befdcbee591983d>@@AEAV<lambda_8d0ee55de4b1038c4002e0adecdf1839>@@$$QEAV<lambda_dc504788e8f1664fe9b84e20bfb512f2>@@@Z 0000000180013ec0 f   libucrt:per_thread_data.obj
 0001:00012f00       ??$?RV<lambda_2d41944a1d46af3157314b8a01080d33>@@AEAV<lambda_8f455de75cd7d7f24b4096f044d8b9e6>@@V<lambda_aa500f224e6afead328df44964fe2772>@@@?$__crt_seh_guarded_call@X@@QEAAX$$QEAV<lambda_2d41944a1d46af3157314b8a01080d33>@@AEAV<lambda_8f455de75cd7d7f24b4096f044d8b9e6>@@$$QEAV<lambda_aa500f224e6afead328df44964fe2772>@@@Z 0000000180013f00 f   libucrt:per_thread_data.obj
 0001:00012f40       ??$?RV<lambda_aa87e3671a710a21b5dc78c0bdf72e11>@@AEAV<lambda_92619d2358a28f41a33ba319515a20b9>@@V<lambda_6992ecaafeb10aed2b74cb1fae11a551>@@@?$__crt_seh_guarded_call@X@@QEAAX$$QEAV<lambda_aa87e3671a710a21b5dc78c0bdf72e11>@@AEAV<lambda_92619d2358a28f41a33ba319515a20b9>@@$$QEAV<lambda_6992ecaafeb10aed2b74cb1fae11a551>@@@Z 0000000180013f40 f   libucrt:per_thread_data.obj
 0001:00012f88       ??$?RV<lambda_f2e299630e499de9f9a165e60fcd3db5>@@AEAV<lambda_2ae9d31cdba2644fcbeaf08da7c24588>@@V<lambda_40d01ff24d0e7b3814fdbdcee8eab3c7>@@@?$__crt_seh_guarded_call@X@@QEAAX$$QEAV<lambda_f2e299630e499de9f9a165e60fcd3db5>@@AEAV<lambda_2ae9d31cdba2644fcbeaf08da7c24588>@@$$QEAV<lambda_40d01ff24d0e7b3814fdbdcee8eab3c7>@@@Z 0000000180013f88 f   libucrt:per_thread_data.obj
 0001:00012fe8       ?construct_ptd_array@@YAXQEAU__acrt_ptd@@@Z 0000000180013fe8 f   libucrt:per_thread_data.obj
 0001:000130b8       ?destroy_fls@@YAXPEAX@Z    00000001800140b8 f   libucrt:per_thread_data.obj
 0001:000130d8       ?destroy_ptd_array@@YAXQEAU__acrt_ptd@@@Z 00000001800140d8 f   libucrt:per_thread_data.obj
 0001:000131d0       ?replace_current_thread_locale_nolock@@YAXQEAU__acrt_ptd@@QEAU__crt_locale_data@@@Z 00000001800141d0 f   libucrt:per_thread_data.obj
 0001:00013c50       ?<lambda_invoker_cdecl>@<lambda_a1ce4c8ae42411fd470c77163914f50e>@@CAHPEBX0@Z 0000000180014c50 f   libucrt:argv_wildcards.obj
 0001:00013f6c       ??$common_expand_argv_wildcards@D@@YAHQEAPEADQEAPEAPEAD@Z 0000000180014f6c f   libucrt:argv_wildcards.obj
 0001:000141b0       ??$copy_and_add_argument_to_buffer@D@@YAHQEBD0_KAEAV?$argument_list@D@?A0x5f5c8891@@@Z 00000001800151b0 f   libucrt:argv_wildcards.obj
 0001:00014334       ??$expand_argument_wildcards@D@@YAHQEAD0AEAV?$argument_list@D@?A0x5f5c8891@@@Z 0000000180015334 f   libucrt:argv_wildcards.obj
 0001:00014968       ??$?RV<lambda_efdfa57d1f175319df784efa44bb7b81>@@AEAV<lambda_5f0a4c1567f8adc6734073e5d1e1b35c>@@V<lambda_2e8a7d3640ea6ccb4c2413664c2db6fd>@@@?$__crt_seh_guarded_call@X@@QEAAX$$QEAV<lambda_efdfa57d1f175319df784efa44bb7b81>@@AEAV<lambda_5f0a4c1567f8adc6734073e5d1e1b35c>@@$$QEAV<lambda_2e8a7d3640ea6ccb4c2413664c2db6fd>@@@Z 0000000180015968 f   libucrt:mbctype.obj
 0001:00014b38       ?getSystemCP@@YAHH@Z       0000000180015b38 f   libucrt:mbctype.obj
 0001:00014bb8       ?setSBCS@@YAXPEAU__crt_multibyte_data@@@Z 0000000180015bb8 f   libucrt:mbctype.obj
 0001:00014c50       ?setSBUpLow@@YAXPEAU__crt_multibyte_data@@@Z 0000000180015c50 f   libucrt:mbctype.obj
 0001:00014e38       ?setmbcp_internal@@YAHH_NQEAU__acrt_ptd@@QEAPEAU__crt_multibyte_data@@@Z 0000000180015e38 f   libucrt:mbctype.obj
 0001:000150a8       ?update_thread_multibyte_data_internal@@YAPEAU__crt_multibyte_data@@QEAU__acrt_ptd@@QEAPEAU1@@Z 00000001800160a8 f   libucrt:mbctype.obj
 0001:0001549c       ?x_ismbbtype_l@@YAHPEAU__crt_locale_pointers@@IHH@Z 000000018001649c f   libucrt:ismbbyte.obj
 0001:00015864       ?try_get_function@@YAPEAXW4function_id@?A0x391cf84c@@QEBDQEBW4module_id@2@2@Z 0000000180016864 f   libucrt:winapi_thunks.obj
 0001:00015d28       ?initialize_inherited_file_handles_nolock@@YAXXZ 0000000180016d28 f   libucrt:ioinit.obj
 0001:00015e18       ?initialize_stdio_handles_nolock@@YAXXZ 0000000180016e18 f   libucrt:ioinit.obj
 0001:000160f8       ??$?RV<lambda_450d765d439847d4c735a33c368b5fc0>@@AEAV<lambda_44731a7d0e6d81c3e6aa82d741081786>@@V<lambda_601a2a7da3b7a96e9554ac7215c4b07c>@@@?$__crt_seh_guarded_call@P6AXH@Z@@QEAAP6AXH@Z$$QEAV<lambda_450d765d439847d4c735a33c368b5fc0>@@AEAV<lambda_44731a7d0e6d81c3e6aa82d741081786>@@$$QEAV<lambda_601a2a7da3b7a96e9554ac7215c4b07c>@@@Z 00000001800170f8 f   libucrt:signal.obj
 0001:00016470       ??$?RV<lambda_842d9ff0dc9ef11c61343bbaebe7f885>@@AEAV<lambda_c5860995281e5c4ce005b3de8f5874ee>@@V<lambda_d90129c13df834fdcbf8d2b88dafcf2d>@@@?$__crt_seh_guarded_call@X@@QEAAX$$QEAV<lambda_842d9ff0dc9ef11c61343bbaebe7f885>@@AEAV<lambda_c5860995281e5c4ce005b3de8f5874ee>@@$$QEAV<lambda_d90129c13df834fdcbf8d2b88dafcf2d>@@@Z 0000000180017470 f   libucrt:fflush.obj
 0001:0001650c       ??$?RV<lambda_886d6c58226a84441f68b9f2b8217b83>@@AEAV<lambda_ab61a845afdef5b7c387490eaf3616ee>@@V<lambda_f7f22ab5edc0698d5f6905b0d3f44752>@@@?$__crt_seh_guarded_call@X@@QEAAX$$QEAV<lambda_886d6c58226a84441f68b9f2b8217b83>@@AEAV<lambda_ab61a845afdef5b7c387490eaf3616ee>@@$$QEAV<lambda_f7f22ab5edc0698d5f6905b0d3f44752>@@@Z 000000018001750c f   libucrt:fflush.obj
 0001:000165f0       ?common_flush_all@@YAH_N@Z 00000001800175f0 f   libucrt:fflush.obj
 0001:00016dac       ?fp_format_a@@YAHQEBNPEAD_KQEAD2H_NIW4__acrt_rounding_mode@@AEAV__crt_cached_ptd_host@@@Z 0000000180017dac f   libucrt:cvt.obj
 0001:00017144       ?fp_format_e@@YAHQEBNQEAD_K12H_NIW4__acrt_rounding_mode@@AEAV__crt_cached_ptd_host@@@Z 0000000180018144 f   libucrt:cvt.obj
 0001:00017240       ?fp_format_e_internal@@YAHQEAD_KH_NIQEAU_strflt@@2AEAV__crt_cached_ptd_host@@@Z 0000000180018240 f   libucrt:cvt.obj
 0001:00017424       ?fp_format_f@@YAHQEBNQEAD_K12HW4__acrt_rounding_mode@@AEAV__crt_cached_ptd_host@@@Z 0000000180018424 f   libucrt:cvt.obj
 0001:000174fc       ?fp_format_f_internal@@YAHQEAD_KHQEAU_strflt@@_NAEAV__crt_cached_ptd_host@@@Z 00000001800184fc f   libucrt:cvt.obj
 0001:00017654       ?fp_format_g@@YAHQEBNQEAD_K12H_NIW4__acrt_rounding_mode@@AEAV__crt_cached_ptd_host@@@Z 0000000180018654 f   libucrt:cvt.obj
 0001:000177a8       ?should_round_up@@YA_NQEBN_KFW4__acrt_rounding_mode@@@Z 00000001800187a8 f   libucrt:cvt.obj
 0001:00017f10       ??$?RV<lambda_410d79af7f07d98d83a3f525b3859a53>@@AEAV<lambda_3e16ef9562a7dcce91392c22ab16ea36>@@V<lambda_38119f0e861e05405d8a144b9b982f0a>@@@?$__crt_seh_guarded_call@X@@QEAAX$$QEAV<lambda_410d79af7f07d98d83a3f525b3859a53>@@AEAV<lambda_3e16ef9562a7dcce91392c22ab16ea36>@@$$QEAV<lambda_38119f0e861e05405d8a144b9b982f0a>@@@Z 0000000180018f10 f   libucrt:wsetlocale.obj
 0001:00018a10       fallbackMethod             0000000180019a10 f   libucrt:strpbrk.obj
 0001:00018dbc       $LN79                      0000000180019dbc     libucrt:strpbrk.obj
 0001:00018df8       $LN78                      0000000180019df8     libucrt:strpbrk.obj
 0001:00018e38       $LN77                      0000000180019e38     libucrt:strpbrk.obj
 0001:000190a4       ?__acrt_LCMapStringA_stat@@YAHPEAU__crt_locale_pointers@@PEB_WKPEBDHPEADHHH@Z 000000018001a0a4 f   libucrt:lcmapstringa.obj
 0001:00019470       ?initialize_multibyte@@YAHXZ 000000018001a470 f   libucrt:multibyte_initializer.obj
 0001:00019908       ??$?RV<lambda_a37b2b86f63e897a80ea819b0eb08c01>@@AEAV<lambda_38ce7e780aa69e748d6df282ebc68efe>@@V<lambda_99fb1378e971ab6e7edea83e3a7a83a2>@@@?$__crt_seh_guarded_call@H@@QEAAH$$QEAV<lambda_a37b2b86f63e897a80ea819b0eb08c01>@@AEAV<lambda_38ce7e780aa69e748d6df282ebc68efe>@@$$QEAV<lambda_99fb1378e971ab6e7edea83e3a7a83a2>@@@Z 000000018001a908 f   libucrt:commit.obj
 0001:00019a28       ?write_double_translated_ansi_nolock@@YA?AUwrite_result@?A0x17268360@@HQEBDIAEAV__crt_cached_ptd_host@@@Z 000000018001aa28 f   libucrt:write.obj
 0001:00019ea0       ?write_text_ansi_nolock@@YA?AUwrite_result@?A0x17268360@@HQEBDI@Z 000000018001aea0 f   libucrt:write.obj
 0001:00019fa4       ?write_text_utf16le_nolock@@YA?AUwrite_result@?A0x17268360@@HQEBDI@Z 000000018001afa4 f   libucrt:write.obj
 0001:0001a0c0       ?write_text_utf8_nolock@@YA?AUwrite_result@?A0x17268360@@HQEBDI@Z 000000018001b0c0 f   libucrt:write.obj
 0001:0001a7b0       ?should_round_up@@YA_NQEBD0HW4__acrt_has_trailing_digits@@W4__acrt_rounding_mode@@@Z 000000018001b7b0 f   libucrt:_fptostr.obj
 0001:0001c0bc       memcpy_s                   000000018001d0bc f   libucrt:cfout.obj
 0001:0001c55c       ?free_crt_array_internal@@YAXQEAPEBX_K@Z 000000018001d55c f   libucrt:inittime.obj
 0001:0001c704       ??$common_lseek_nolock@_J@@YA_JH_JHAEAV__crt_cached_ptd_host@@@Z 000000018001d704 f   libucrt:lseek.obj
 0001:0001c7f4       ?_fclose_internal@@YAHQEAU_iobuf@@AEAV__crt_cached_ptd_host@@@Z 000000018001d7f4 f   libucrt:fclose.obj
 0001:0001c870       ?_fclose_nolock_internal@@YAHQEAU_iobuf@@AEAV__crt_cached_ptd_host@@@Z 000000018001d870 f   libucrt:fclose.obj
 0001:0001cba0       $$000000                   000000018001dba0     libucrt:log10.obj
 0001:0001d768       ??$?RV<lambda_ad8af0d99a0adf03d037d7dffe354bb5>@@AEAV<lambda_c9ba49e555ba839a7b07aa3fbecb7617>@@V<lambda_2f1ebd5d68526518146ae959c9e734c8>@@@?$__crt_seh_guarded_call@H@@QEAAH$$QEAV<lambda_ad8af0d99a0adf03d037d7dffe354bb5>@@AEAV<lambda_c9ba49e555ba839a7b07aa3fbecb7617>@@$$QEAV<lambda_2f1ebd5d68526518146ae959c9e734c8>@@@Z 000000018001e768 f   libucrt:close.obj
 0001:0001da04       common_control87           000000018001ea04 f   libucrt:ieee.obj
 0001:0001dca0       _call_matherr              000000018001eca0 f   libucrt:libm_error.obj
 0001:0001dd08       _exception_enabled         000000018001ed08 f   libucrt:libm_error.obj
 0001:0001dfa0       _log_special_common        000000018001efa0 f   libucrt:log_special.obj
 0001:0001e040       $$000000                   000000018001f040     libucrt:fpsr.obj
 0001:0001e620       $$000000                   000000018001f620     LIBCMT:amdsecgs.obj
 0001:0001e890       capture_current_context    000000018001f890 f   LIBCMT:gs_report.obj
 0001:0001e900       capture_previous_context   000000018001f900 f   LIBCMT:gs_report.obj
 0001:0001e980       $$000000                   000000018001f980     LIBCMT:chkstk.obj
 0001:0001ebf0       $$000000                   000000018001fbf0     libvcruntime:memcmp.obj
 0001:0001ecd0       $$000000                   000000018001fcd0     LIBCMT:guard_dispatch.obj
 0001:0001ecf0       $$000000                   000000018001fcf0     LIBCMT:guard_xfg_dispatch.obj
 0001:0001ed10       ?fin$0@?0??dllmain_crt_process_attach@@YAHQEAUHINSTANCE__@@QEAX@Z@4HA 000000018001fd10 f   LIBCMT:dll_dllmain.obj
 0001:0001ed27       ?fin$0@?0??dllmain_crt_process_detach@@YAH_N@Z@4HA 000000018001fd27 f   LIBCMT:dll_dllmain.obj
 0001:0001ed40       ?fin$1@?0??dllmain_crt_process_detach@@YAH_N@Z@4HA 000000018001fd40 f   LIBCMT:dll_dllmain.obj
 0001:0001ed54       ?filt$0@?0??dllmain_dispatch@@YAHQEAUHINSTANCE__@@KQEAX@Z@4HA 000000018001fd54 f   LIBCMT:dll_dllmain.obj
 0001:0001ed8a       __scrt_is_nonwritable_in_current_image$filt$0 000000018001fd8a f   LIBCMT:utility.obj
 0001:0001eda2       __DestructExceptionObject$filt$0 000000018001fda2 f   libvcruntime:ehhelpers.obj
 0001:0001ee38       ?dtor$0@?0??getDecoratedName@UnDecorator@@CA?AVDName@@XZ@4HA 000000018001fe38 f   libvcruntime:undname.obj
 0001:0001ee44       __unDNameEx$fin$0          000000018001fe44 f   libvcruntime:undname.obj
 0001:0001ee5a       ?filt$0@?0???$_CallSETranslator@V__FrameHandler3@@@@YAHPEAUEHExceptionRecord@@PEA_KPEAU_CONTEXT@@PEAU_xDISPATCHER_CONTEXT@@PEBU_s_FuncInfo@@K1H@Z@4HA 000000018001fe5a f   libvcruntime:risctrnsctrl.obj
 0001:0001eefd       ?filt$0@?0???$_CallSETranslator@V__FrameHandler4@@@@YAHPEAUEHExceptionRecord@@PEA_KPEAU_CONTEXT@@PEAU_xDISPATCHER_CONTEXT@@PEAUFuncInfo4@FH4@@K1H@Z@4HA 000000018001fefd f   libvcruntime:risctrnsctrl.obj
 0001:0001efae       ?fin$0@?0???$__InternalCxxFrameHandlerWrapper@V__FrameHandler4@@@@YA?AW4_EXCEPTION_DISPOSITION@@PEAUEHExceptionRecord@@PEA_KPEAU_CONTEXT@@PEAU_xDISPATCHER_CONTEXT@@PEAUFuncInfo4@FH4@@H1E@Z@4HA 000000018001ffae f   libvcruntime:frame.obj
 0001:0001efca       ?filt$0@?0??CxxCallCatchBlock@__FrameHandler3@@SAPEAXPEAU_EXCEPTION_RECORD@@@Z@4HA 000000018001ffca f   libvcruntime:frame.obj
 0001:0001efef       ?fin$1@?0??CxxCallCatchBlock@__FrameHandler3@@SAPEAXPEAU_EXCEPTION_RECORD@@@Z@4HA 000000018001ffef f   libvcruntime:frame.obj
 0001:0001f075       ?filt$0@?0??CxxCallCatchBlock@__FrameHandler4@@SAPEAXPEAU_EXCEPTION_RECORD@@@Z@4HA 0000000180020075 f   libvcruntime:frame.obj
 0001:0001f0a4       ?fin$1@?0??CxxCallCatchBlock@__FrameHandler4@@SAPEAXPEAU_EXCEPTION_RECORD@@@Z@4HA 00000001800200a4 f   libvcruntime:frame.obj
 0001:0001f135       ?filt$0@?0??FrameUnwindToState@__FrameHandler3@@SAXPEA_KPEAU_xDISPATCHER_CONTEXT@@PEBU_s_FuncInfo@@H@Z@4HA 0000000180020135 f   libvcruntime:frame.obj
 0001:0001f14b       ?fin$1@?0??FrameUnwindToState@__FrameHandler3@@SAXPEA_KPEAU_xDISPATCHER_CONTEXT@@PEBU_s_FuncInfo@@H@Z@4HA 000000018002014b f   libvcruntime:frame.obj
 0001:0001f16e       ?filt$0@?0??FrameUnwindToState@__FrameHandler4@@SAXPEA_KPEAU_xDISPATCHER_CONTEXT@@PEAUFuncInfo4@FH4@@H@Z@4HA 000000018002016e f   libvcruntime:frame.obj
 0001:0001f184       ?fin$1@?0??FrameUnwindToState@__FrameHandler4@@SAXPEA_KPEAU_xDISPATCHER_CONTEXT@@PEAUFuncInfo4@FH4@@H@Z@4HA 0000000180020184 f   libvcruntime:frame.obj
 0001:0001f1a7       ?fin$0@?0???$?RV<lambda_0ae27a3a962d80f24befdcbee591983d>@@AEAV<lambda_8d0ee55de4b1038c4002e0adecdf1839>@@V<lambda_dc504788e8f1664fe9b84e20bfb512f2>@@@?$__crt_seh_guarded_call@X@@QEAAX$$QEAV<lambda_0ae27a3a962d80f24befdcbee591983d>@@AEAV<lambda_8d0ee55de4b1038c4002e0adecdf1839>@@$$QEAV<lambda_dc504788e8f1664fe9b84e20bfb512f2>@@@Z@4HA 00000001800201a7 f   libucrt:per_thread_data.obj
 0001:0001f1a7       ?fin$0@?0???$?RV<lambda_2d41944a1d46af3157314b8a01080d33>@@AEAV<lambda_8f455de75cd7d7f24b4096f044d8b9e6>@@V<lambda_aa500f224e6afead328df44964fe2772>@@@?$__crt_seh_guarded_call@X@@QEAAX$$QEAV<lambda_2d41944a1d46af3157314b8a01080d33>@@AEAV<lambda_8f455de75cd7d7f24b4096f044d8b9e6>@@$$QEAV<lambda_aa500f224e6afead328df44964fe2772>@@@Z@4HA 00000001800201a7 f   libucrt:per_thread_data.obj
 0001:0001f1a7       ?fin$0@?0???$?RV<lambda_aa87e3671a710a21b5dc78c0bdf72e11>@@AEAV<lambda_92619d2358a28f41a33ba319515a20b9>@@V<lambda_6992ecaafeb10aed2b74cb1fae11a551>@@@?$__crt_seh_guarded_call@X@@QEAAX$$QEAV<lambda_aa87e3671a710a21b5dc78c0bdf72e11>@@AEAV<lambda_92619d2358a28f41a33ba319515a20b9>@@$$QEAV<lambda_6992ecaafeb10aed2b74cb1fae11a551>@@@Z@4HA 00000001800201a7 f   libucrt:per_thread_data.obj
 0001:0001f1a7       ?fin$0@?0???$?RV<lambda_f2e299630e499de9f9a165e60fcd3db5>@@AEAV<lambda_2ae9d31cdba2644fcbeaf08da7c24588>@@V<lambda_40d01ff24d0e7b3814fdbdcee8eab3c7>@@@?$__crt_seh_guarded_call@X@@QEAAX$$QEAV<lambda_f2e299630e499de9f9a165e60fcd3db5>@@AEAV<lambda_2ae9d31cdba2644fcbeaf08da7c24588>@@$$QEAV<lambda_40d01ff24d0e7b3814fdbdcee8eab3c7>@@@Z@4HA 00000001800201a7 f   libucrt:per_thread_data.obj
 0001:0001f1a7       ?fin$0@?0???$?RV<lambda_450d765d439847d4c735a33c368b5fc0>@@AEAV<lambda_44731a7d0e6d81c3e6aa82d741081786>@@V<lambda_601a2a7da3b7a96e9554ac7215c4b07c>@@@?$__crt_seh_guarded_call@P6AXH@Z@@QEAAP6AXH@Z$$QEAV<lambda_450d765d439847d4c735a33c368b5fc0>@@AEAV<lambda_44731a7d0e6d81c3e6aa82d741081786>@@$$QEAV<lambda_601a2a7da3b7a96e9554ac7215c4b07c>@@@Z@4HA 00000001800201a7 f   libucrt:signal.obj
 0001:0001f1a7       ?fin$0@?0???$?RV<lambda_d80eeec6fff315bfe5c115232f3240e3>@@AEAV<lambda_6e4b09c48022b2350581041d5f6b0c4c>@@V<lambda_2358e3775559c9db80273638284d5e45>@@@?$__crt_seh_guarded_call@X@@QEAAX$$QEAV<lambda_d80eeec6fff315bfe5c115232f3240e3>@@AEAV<lambda_6e4b09c48022b2350581041d5f6b0c4c>@@$$QEAV<lambda_2358e3775559c9db80273638284d5e45>@@@Z@4HA 00000001800201a7 f   libucrt:exit.obj
 0001:0001f1a7       ?fin$0@?0???$?RV<lambda_7777bce6b2f8c936911f934f8298dc43>@@AEAV<lambda_f03950bc5685219e0bcd2087efbe011e>@@V<lambda_3883c3dff614d5e0c5f61bb1ac94921c>@@@?$__crt_seh_guarded_call@H@@QEAAH$$QEAV<lambda_7777bce6b2f8c936911f934f8298dc43>@@AEAV<lambda_f03950bc5685219e0bcd2087efbe011e>@@$$QEAV<lambda_3883c3dff614d5e0c5f61bb1ac94921c>@@@Z@4HA 00000001800201a7 f   libucrt:onexit.obj
 0001:0001f1c1       ?filt$0@?0???R<lambda_6e4b09c48022b2350581041d5f6b0c4c>@@QEBA@XZ@4HA 00000001800201c1 f   libucrt:exit.obj
 0001:0001f1ee       ?fin$0@?0???$?RV<lambda_efdfa57d1f175319df784efa44bb7b81>@@AEAV<lambda_5f0a4c1567f8adc6734073e5d1e1b35c>@@V<lambda_2e8a7d3640ea6ccb4c2413664c2db6fd>@@@?$__crt_seh_guarded_call@X@@QEAAX$$QEAV<lambda_efdfa57d1f175319df784efa44bb7b81>@@AEAV<lambda_5f0a4c1567f8adc6734073e5d1e1b35c>@@$$QEAV<lambda_2e8a7d3640ea6ccb4c2413664c2db6fd>@@@Z@4HA 00000001800201ee f   libucrt:mbctype.obj
 0001:0001f208       ?fin$0@?0??update_thread_multibyte_data_internal@@YAPEAU__crt_multibyte_data@@QEAU__acrt_ptd@@QEAPEAU1@@Z@4HA 0000000180020208 f   libucrt:mbctype.obj
 0001:0001f221       __acrt_initialize_lowio$fin$0 0000000180020221 f   libucrt:ioinit.obj
 0001:0001f221       __acrt_lowio_ensure_fh_exists$fin$0 0000000180020221 f   libucrt:osfinfo.obj
 0001:0001f23a       _query_new_handler$fin$0   000000018002023a f   libucrt:new_handler.obj
 0001:0001f250       raise$fin$0                0000000180020250 f   libucrt:signal.obj
 0001:0001f271       ?fin$0@?0???$?RV<lambda_842d9ff0dc9ef11c61343bbaebe7f885>@@AEAV<lambda_c5860995281e5c4ce005b3de8f5874ee>@@V<lambda_d90129c13df834fdcbf8d2b88dafcf2d>@@@?$__crt_seh_guarded_call@X@@QEAAX$$QEAV<lambda_842d9ff0dc9ef11c61343bbaebe7f885>@@AEAV<lambda_c5860995281e5c4ce005b3de8f5874ee>@@$$QEAV<lambda_d90129c13df834fdcbf8d2b88dafcf2d>@@@Z@4HA 0000000180020271 f   libucrt:fflush.obj
 0001:0001f28c       ?fin$0@?0???$?RV<lambda_886d6c58226a84441f68b9f2b8217b83>@@AEAV<lambda_ab61a845afdef5b7c387490eaf3616ee>@@V<lambda_f7f22ab5edc0698d5f6905b0d3f44752>@@@?$__crt_seh_guarded_call@X@@QEAAX$$QEAV<lambda_886d6c58226a84441f68b9f2b8217b83>@@AEAV<lambda_ab61a845afdef5b7c387490eaf3616ee>@@$$QEAV<lambda_f7f22ab5edc0698d5f6905b0d3f44752>@@@Z@4HA 000000018002028c f   libucrt:fflush.obj
 0001:0001f2a9       ?fin$0@?0???$?RV<lambda_410d79af7f07d98d83a3f525b3859a53>@@AEAV<lambda_3e16ef9562a7dcce91392c22ab16ea36>@@V<lambda_38119f0e861e05405d8a144b9b982f0a>@@@?$__crt_seh_guarded_call@X@@QEAAX$$QEAV<lambda_410d79af7f07d98d83a3f525b3859a53>@@AEAV<lambda_3e16ef9562a7dcce91392c22ab16ea36>@@$$QEAV<lambda_38119f0e861e05405d8a144b9b982f0a>@@@Z@4HA 00000001800202a9 f   libucrt:wsetlocale.obj
 0001:0001f2c3       __acrt_update_thread_locale_data$fin$0 00000001800202c3 f   libucrt:locale_refcounting.obj
 0001:0001f2dc       ?fin$0@?0???$?RV<lambda_ad8af0d99a0adf03d037d7dffe354bb5>@@AEAV<lambda_c9ba49e555ba839a7b07aa3fbecb7617>@@V<lambda_2f1ebd5d68526518146ae959c9e734c8>@@@?$__crt_seh_guarded_call@H@@QEAAH$$QEAV<lambda_ad8af0d99a0adf03d037d7dffe354bb5>@@AEAV<lambda_c9ba49e555ba839a7b07aa3fbecb7617>@@$$QEAV<lambda_2f1ebd5d68526518146ae959c9e734c8>@@@Z@4HA 00000001800202dc f   libucrt:close.obj
 0001:0001f2dc       ?fin$0@?0???$?RV<lambda_a37b2b86f63e897a80ea819b0eb08c01>@@AEAV<lambda_38ce7e780aa69e748d6df282ebc68efe>@@V<lambda_99fb1378e971ab6e7edea83e3a7a83a2>@@@?$__crt_seh_guarded_call@H@@QEAAH$$QEAV<lambda_a37b2b86f63e897a80ea819b0eb08c01>@@AEAV<lambda_38ce7e780aa69e748d6df282ebc68efe>@@$$QEAV<lambda_99fb1378e971ab6e7edea83e3a7a83a2>@@@Z@4HA 00000001800202dc f   libucrt:commit.obj
 0001:0001f2f6       _write_internal$fin$0      00000001800202f6 f   libucrt:write.obj
 0001:0001f30d       _fcloseall$fin$0           000000018002030d f   libucrt:closeall.obj
 0001:0001f326       ?fin$0@?0??_fclose_internal@@YAHQEAU_iobuf@@AEAV__crt_cached_ptd_host@@@Z@4HA 0000000180020326 f   libucrt:fclose.obj
 0001:0001f33e       _ctrlfp$filt$0             000000018002033e f   libucrt:fpctrl.obj
 0001:0001f33e       common_control87$filt$0    000000018002033e f   libucrt:ieee.obj
 0001:0001f370       _IsNonwritableInCurrentImage$filt$0 0000000180020370 f   LIBCMT:pesect.obj
 0002:000002c0       ?minFError$initializer$@vecMathTests@aos@physx@@3P6AXXZEA 00000001800212c0     Cooking.obj
 0002:000002c8       ?maxFError$initializer$@vecMathTests@aos@physx@@3P6AXXZEA 00000001800212c8     Cooking.obj
 0002:000002d0       ?minV3Error$initializer$@vecMathTests@aos@physx@@3P6AXXZEA 00000001800212d0     Cooking.obj
 0002:000002d8       ?maxV3Error$initializer$@vecMathTests@aos@physx@@3P6AXXZEA 00000001800212d8     Cooking.obj
 0002:000002e0       ?minV4Error$initializer$@vecMathTests@aos@physx@@3P6AXXZEA 00000001800212e0     Cooking.obj
 0002:000002e8       ?maxV4Error$initializer$@vecMathTests@aos@physx@@3P6AXXZEA 00000001800212e8     Cooking.obj
 0002:00000360       ?minus1w@?A0x0371b623@aos@physx@@3QBMB 0000000180021360     Cooking.obj
 0002:00000370       ?gMaskXYZ@internalWindowsSimd@aos@physx@@3QBIB 0000000180021370     Cooking.obj
 0002:00000720       ?tokenTable@@3QBUStringLiteral@@B 0000000180021720     libvcruntime:undname.obj
 0002:00000830       ?nameTable@@3QBUStringLiteral@@B 0000000180021830     libvcruntime:undname.obj
 0002:00000d60       ?rttiTable@@3QBUStringLiteral@@B 0000000180021d60     libvcruntime:undname.obj
 0002:00000db0       ?IndirectionName@@3QBUStringLiteral@@B 0000000180021db0     libvcruntime:undname.obj
 0002:00000e10       ?PrefixName@@3QBUStringLiteral@@B 0000000180021e10     libvcruntime:undname.obj
 0002:00001a70       ?result@?1??IsValidIdentChar@@YA_ND@Z@4U<unnamed-type-result>@?1??InitValidIdentChar@@YA@XZ@B 0000000180022a70     libvcruntime:undname.obj
 0002:00001be0       ?ExceptionTemplate@?1??UnwindNestedFrames@__FrameHandler4@@SAXPEA_KPEAUEHExceptionRecord@@PEAU_CONTEXT@@0PEAXPEAUFuncInfo4@FH4@@HHPEAUHandlerType4@6@PEAU_xDISPATCHER_CONTEXT@@E@Z@4U_EXCEPTION_RECORD@@B 0000000180022be0     libvcruntime:risctrnsctrl.obj
 0002:00001c80       ?ExceptionTemplate@?1??UnwindNestedFrames@__FrameHandler3@@SAXPEA_KPEAUEHExceptionRecord@@PEAU_CONTEXT@@0PEAXPEBU_s_FuncInfo@@HHPEBU_s_HandlerType@@PEAU_xDISPATCHER_CONTEXT@@E@Z@4U_EXCEPTION_RECORD@@B 0000000180022c80     libvcruntime:risctrnsctrl.obj
 0002:00001d18       ?module_names@?A0x14174aea@@3QBQEB_WB 0000000180022d18     libvcruntime:winapi_downlevel.obj
 0002:00001dd8       ?candidate_modules@?1??try_get_FlsAlloc@@YAP6AKP6AXPEAX@Z@ZXZ@4QBW4module_id@?A0x14174aea@@B 0000000180022dd8     libvcruntime:winapi_downlevel.obj
 0002:00001df0       ?candidate_modules@?1??try_get_FlsFree@@YAP6AHK@ZXZ@4QBW4module_id@?A0x14174aea@@B 0000000180022df0     libvcruntime:winapi_downlevel.obj
 0002:00001e00       ?candidate_modules@?1??try_get_FlsGetValue@@YAP6APEAXK@ZXZ@4QBW4module_id@?A0x14174aea@@B 0000000180022e00     libvcruntime:winapi_downlevel.obj
 0002:00001e18       ?candidate_modules@?1??try_get_FlsSetValue@@YAP6AHKPEAX@ZXZ@4QBW4module_id@?A0x14174aea@@B 0000000180022e18     libvcruntime:winapi_downlevel.obj
 0002:00001e30       ?candidate_modules@?1??try_get_InitializeCriticalSectionEx@@YAP6AHPEAU_RTL_CRITICAL_SECTION@@KK@ZXZ@4QBW4module_id@?A0x14174aea@@B 0000000180022e30     libvcruntime:winapi_downlevel.obj
 0002:00001f88       $cppxdata$?try_cor_exit_process@@YAXI@Z 0000000180022f88     libucrt:exit.obj
 0002:00001fb0       $cppxdata$?common_exit@@YAXHW4_crt_exit_cleanup_mode@@W4_crt_exit_return_mode@@@Z 0000000180022fb0     libucrt:exit.obj
 0002:00002000       $cppxdata$__dcrt_uninitialize_environments_nolock 0000000180023000     libucrt:environment_initialization.obj
 0002:00002028       $cppxdata$_execute_onexit_table 0000000180023028     libucrt:onexit.obj
 0002:00002050       __acrt_initializers        0000000180023050     libucrt:initialization.obj
 0002:00002370       ?errtable@@3QBUerrentry@?A0x31fdb9ec@@B 0000000180023370     libucrt:errno.obj
 0002:000024d8       ?_mb_locale_names@@3QBQEB_WB 00000001800234d8     libucrt:mbctype.obj
 0002:00002540       ?module_names@?A0x391cf84c@@3QBQEB_WB 0000000180023540     libucrt:winapi_thunks.obj
 0002:00002a98       ?candidate_modules@?1??try_get_AreFileApisANSI@@YAP6AHXZXZ@4QBW4module_id@?A0x391cf84c@@B 0000000180023a98     libucrt:winapi_thunks.obj
 0002:00002ab0       ?candidate_modules@?1??try_get_InitializeCriticalSectionEx@@YAP6AHPEAU_RTL_CRITICAL_SECTION@@KK@ZXZ@4QBW4module_id@?A0x391cf84c@@B 0000000180023ab0     libucrt:winapi_thunks.obj
 0002:00002ab8       ?candidate_modules@?1??try_get_LCMapStringEx@@YAP6AHPEB_WK0HPEA_WHPEAU_nlsversioninfo@@PEAX_J@ZXZ@4QBW4module_id@?A0x391cf84c@@B 0000000180023ab8     libucrt:winapi_thunks.obj
 0002:00002ad0       ?candidate_modules@?1??try_get_LocaleNameToLCID@@YAP6AKPEB_WK@ZXZ@4QBW4module_id@?A0x391cf84c@@B 0000000180023ad0     libucrt:winapi_thunks.obj
 0002:00002aec       ?candidate_modules@?1??try_get_AppPolicyGetProcessTerminationMethod@@YAP6AJPEAXPEAW4AppPolicyProcessTerminationMethod@@@ZXZ@4QBW4module_id@?A0x391cf84c@@B 0000000180023aec     libucrt:winapi_thunks.obj
 0002:000031a0       ?strings@?1??fp_format_nan_or_infinity@@YAHW4__acrt_fp_class@@_NPEAD_K1@Z@4QAY03QEBDA 00000001800241a0     libucrt:cvt.obj
 0002:00003880       ?LcidToLocaleNameTable@?A0x881e4c05@@3QBULcidToLocaleName@1@B 0000000180024880     libucrt:lcidtoname_downlevel.obj
 0002:000052e0       ?LocaleNameToIndexTable@?A0x881e4c05@@3QBULocaleNameIndex@1@B 00000001800262e0     libucrt:lcidtoname_downlevel.obj
 0002:00006b78       $cppxdata$?write_double_translated_ansi_nolock@@YA?AUwrite_result@?A0x17268360@@HQEBDIAEAV__crt_cached_ptd_host@@@Z 0000000180027b78     libucrt:write.obj
 0002:000075a0       __real_ninf                00000001800285a0     libucrt:log10.obj
 0002:000075b0       __real_inf                 00000001800285b0     libucrt:log10.obj
 0002:000075c0       __real_neg_qnan            00000001800285c0     libucrt:log10.obj
 0002:000075d0       __real_qnanbit             00000001800285d0     libucrt:log10.obj
 0002:000075e0       __int_1023                 00000001800285e0     libucrt:log10.obj
 0002:000075f0       __mask_001                 00000001800285f0     libucrt:log10.obj
 0002:00007600       __mask_mant                0000000180028600     libucrt:log10.obj
 0002:00007610       __mask_mant_top8           0000000180028610     libucrt:log10.obj
 0002:00007620       __mask_mant9               0000000180028620     libucrt:log10.obj
 0002:00007630       __real_log10_e             0000000180028630     libucrt:log10.obj
 0002:00007640       __real_log10_e_lead        0000000180028640     libucrt:log10.obj
 0002:00007650       __real_log10_e_tail        0000000180028650     libucrt:log10.obj
 0002:00007660       __real_log10_2_lead        0000000180028660     libucrt:log10.obj
 0002:00007670       __real_log10_2_tail        0000000180028670     libucrt:log10.obj
 0002:00007680       __real_two                 0000000180028680     libucrt:log10.obj
 0002:00007690       __real_one                 0000000180028690     libucrt:log10.obj
 0002:000076a0       __real_half                00000001800286a0     libucrt:log10.obj
 0002:000076b0       __mask_100                 00000001800286b0     libucrt:log10.obj
 0002:000076c0       __real_1_over_512          00000001800286c0     libucrt:log10.obj
 0002:000076d0       __real_1_over_2            00000001800286d0     libucrt:log10.obj
 0002:000076e0       __real_1_over_3            00000001800286e0     libucrt:log10.obj
 0002:000076f0       __real_1_over_4            00000001800286f0     libucrt:log10.obj
 0002:00007700       __real_1_over_5            0000000180028700     libucrt:log10.obj
 0002:00007710       __real_1_over_6            0000000180028710     libucrt:log10.obj
 0002:00007720       __real_neg_1023            0000000180028720     libucrt:log10.obj
 0002:00007730       __mask_2045                0000000180028730     libucrt:log10.obj
 0002:00007740       __real_threshold           0000000180028740     libucrt:log10.obj
 0002:00007750       __real_near_one_lt         0000000180028750     libucrt:log10.obj
 0002:00007760       __real_near_one_gt         0000000180028760     libucrt:log10.obj
 0002:00007770       __real_min_norm            0000000180028770     libucrt:log10.obj
 0002:00007780       __real_notsign             0000000180028780     libucrt:log10.obj
 0002:00007790       __real_ca1                 0000000180028790     libucrt:log10.obj
 0002:000077a0       __real_ca2                 00000001800287a0     libucrt:log10.obj
 0002:000077b0       __real_ca3                 00000001800287b0     libucrt:log10.obj
 0002:000077c0       __real_ca4                 00000001800287c0     libucrt:log10.obj
 0002:000077d0       __mask_lower               00000001800287d0     libucrt:log10.obj
 0002:000077e0       __flag_x_zero              00000001800287e0     libucrt:log10.obj
 0002:000077e4       __flag_x_neg               00000001800287e4     libucrt:log10.obj
 0002:000077e8       __flag_x_nan               00000001800287e8     libucrt:log10.obj
 0002:00009040       __real@433fffffffffffff    000000018002a040     libucrt:fpsr.obj
 0002:00009048       __real@c33fffffffffffff    000000018002a048     libucrt:fpsr.obj
 0002:00009050       GS_ExceptionPointers       000000018002a050     LIBCMT:gs_report.obj
 0002:00009bf8       $unwind$??_EPxFoundation@physx@@MEAAPEAXI@Z 000000018002abf8     Cooking.obj
 0002:00009bf8       $unwind$_calloc_base       000000018002abf8     libucrt:calloc_base.obj
 0002:00009bf8       $unwind$_malloc_base       000000018002abf8     libucrt:malloc_base.obj
 0002:00009bf8       $unwind$initialize_pointers 000000018002abf8     libucrt:initialization.obj
 0002:00009bf8       $unwind$uninitialize_allocated_memory 000000018002abf8     libucrt:initialization.obj
 0002:00009bf8       $unwind$__acrt_initialize_locks 000000018002abf8     libucrt:locks.obj
 0002:00009bf8       $unwind$__acrt_uninitialize_locks 000000018002abf8     libucrt:locks.obj
 0002:00009bf8       $unwind$__acrt_freeptd     000000018002abf8     libucrt:per_thread_data.obj
 0002:00009bf8       $unwind$__acrt_getptd_head 000000018002abf8     libucrt:per_thread_data.obj
 0002:00009bf8       $unwind$__acrt_get_process_end_policy 000000018002abf8     libucrt:win_policies.obj
 0002:00009bf8       $unwind$__acrt_AppPolicyGetProcessTerminationMethodInternal 000000018002abf8     libucrt:winapi_thunks.obj
 0002:00009bf8       $unwind$__acrt_uninitialize_winapi_thunks 000000018002abf8     libucrt:winapi_thunks.obj
 0002:00009bf8       $unwind$__acrt_update_locale_info 000000018002abf8     libucrt:locale_update.obj
 0002:00009bf8       $unwind$__acrt_update_locale_info_explicit 000000018002abf8     libucrt:locale_update.obj
 0002:00009bf8       $unwind$__acrt_update_multibyte_info 000000018002abf8     libucrt:locale_update.obj
 0002:00009bf8       $unwind$__acrt_update_multibyte_info_explicit 000000018002abf8     libucrt:locale_update.obj
 0002:00009bf8       $unwind$__acrt_errno_map_os_error 000000018002abf8     libucrt:errno.obj
 0002:00009bf8       $unwind$__acrt_errno_map_os_error_ptd 000000018002abf8     libucrt:errno.obj
 0002:00009bf8       $unwind$__acrt_allocate_buffer_for_argv 000000018002abf8     libucrt:argv_parsing.obj
 0002:00009bf8       $unwind$?exit_or_terminate_process@@YAXI@Z 000000018002abf8     libucrt:exit.obj
 0002:00009bf8       $unwind$__acrt_uninitialize_stdio 000000018002abf8     libucrt:_file.obj
 0002:00009bf8       $unwind$__acrt_stdio_free_buffer_nolock 000000018002abf8     libucrt:_freebuf.obj
 0002:00009bf8       $unwind$?type_case_s@?$output_processor@DV?$string_output_adapter@D@__crt_stdio_output@@V?$format_validation_base@DV?$string_output_adapter@D@__crt_stdio_output@@@2@@__crt_stdio_output@@AEAA_NXZ 000000018002abf8     libucrt:output.obj
 0002:00009bf8       $unwind$?type_case_s@?$output_processor@DV?$string_output_adapter@D@__crt_stdio_output@@V?$standard_base@DV?$string_output_adapter@D@__crt_stdio_output@@@2@@__crt_stdio_output@@AEAA_NXZ 000000018002abf8     libucrt:output.obj
 0002:00009bf8       $unwind$strcpy_s           000000018002abf8     libucrt:strcpy_s.obj
 0002:00009bf8       $unwind$_clrfp             000000018002abf8     libucrt:fpctrl.obj
 0002:00009bf8       $unwind$_set_statfp        000000018002abf8     libucrt:fpctrl.obj
 0002:00009bf8       $unwind$_clearfp           000000018002abf8     libucrt:ieee.obj
 0002:00009bf8       $unwind$_controlfp_s       000000018002abf8     libucrt:contrlfp.obj
 0002:00009bf8       $unwind$fegetenv           000000018002abf8     libucrt:fegetenv.obj
 0002:00009bf8       $unwind$feholdexcept       000000018002abf8     libucrt:feholdexcept.obj
 0002:00009bf8       $unwind$?DloadAcquireSectionWriteAccess@@YAXXZ 000000018002abf8     Delayimp:delayhlp.obj
 0002:00009bf8       $unwind$__raise_securityfailure 000000018002abf8     LIBCMT:gs_report.obj
 0002:00009bf8       $unwind$??_Gtype_info@@UEAAPEAXI@Z 000000018002abf8     LIBCMT:std_type_info_static.obj
 0002:00009bf8       $unwind$__scrt_initialize_crt 000000018002abf8     LIBCMT:utility.obj
 0002:00009bf8       $unwind$__scrt_initialize_onexit_tables 000000018002abf8     LIBCMT:utility.obj
 0002:00009bf8       $unwind$__scrt_release_startup_lock 000000018002abf8     LIBCMT:utility.obj
 0002:00009bf8       $unwind$__scrt_uninitialize_crt 000000018002abf8     LIBCMT:utility.obj
 0002:00009bf8       $unwind$_IsExceptionObjectToBeDestroyed 000000018002abf8     libvcruntime:ehhelpers.obj
 0002:00009bf8       $unwind$?GetUnwindTryBlock@__FrameHandler3@@SAHPEA_KPEAU_xDISPATCHER_CONTEXT@@PEBU_s_FuncInfo@@@Z 000000018002abf8     libvcruntime:ehstate.obj
 0002:00009bf8       $unwind$?StateFromIp@__FrameHandler3@@SAHPEBU_s_FuncInfo@@PEAU_xDISPATCHER_CONTEXT@@_K@Z 000000018002abf8     libvcruntime:ehstate.obj
 0002:00009bf8       $unwind$??0HandlerMap4@FH4@@QEAA@PEBUTryBlockMapEntry4@1@_KH@Z 000000018002abf8     libvcruntime:frame.obj
 0002:00009bf8       $unwind$??0bad_exception@std@@QEAA@AEBV01@@Z 000000018002abf8     libvcruntime:frame.obj
 0002:00009bf8       $unwind$??0exception@std@@QEAA@AEBV01@@Z 000000018002abf8     libvcruntime:frame.obj
 0002:00009bf8       $unwind$__vcrt_initialize_locks 000000018002abf8     libvcruntime:locks.obj
 0002:00009bf8       $unwind$__vcrt_uninitialize_locks 000000018002abf8     libvcruntime:locks.obj
 0002:00009bf8       $unwind$__vcrt_freeptd     000000018002abf8     libvcruntime:per_thread_data.obj
 0002:00009bf8       $unwind$?ExecutionInCatch@__FrameHandler3@@SA_NPEAU_xDISPATCHER_CONTEXT@@PEBU_s_FuncInfo@@@Z 000000018002abf8     libvcruntime:risctrnsctrl.obj
 0002:00009bf8       $unwind$_CreateFrameInfo   000000018002abf8     libvcruntime:risctrnsctrl.obj
 0002:00009bf8       $unwind$_SetImageBase      000000018002abf8     libvcruntime:risctrnsctrl.obj
 0002:00009bf8       $unwind$_SetThrowImageBase 000000018002abf8     libvcruntime:risctrnsctrl.obj
 0002:00009bf8       $unwind$__std_exception_destroy 000000018002abf8     libvcruntime:std_exception.obj
 0002:00009bf8       $unwind$__std_type_info_destroy_list 000000018002abf8     libvcruntime:std_type_info.obj
 0002:00009bf8       $unwind$??$?0$00@DName@@QEAA@PEBDU?$StringLifeSelector@$00@@@Z 000000018002abf8     libvcruntime:undname.obj
 0002:00009bf8       $unwind$??$?0$01@DName@@QEAA@PEBDU?$StringLifeSelector@$01@@@Z 000000018002abf8     libvcruntime:undname.obj
 0002:00009bf8       $unwind$??$?0$0A@@DName@@QEAA@PEBDU?$StringLifeSelector@$0A@@@@Z 000000018002abf8     libvcruntime:undname.obj
 0002:00009bf8       $unwind$??0DName@@QEAA@AEBUStringLiteral@@@Z 000000018002abf8     libvcruntime:undname.obj
 0002:00009bf8       $unwind$??HDName@@QEBA?AV0@AEBUStringLiteral@@@Z 000000018002abf8     libvcruntime:undname.obj
 0002:00009bf8       $unwind$??HDName@@QEBA?AV0@AEBV0@@Z 000000018002abf8     libvcruntime:undname.obj
 0002:00009bf8       $unwind$??HDName@@QEBA?AV0@D@Z 000000018002abf8     libvcruntime:undname.obj
 0002:00009bf8       $unwind$??HDName@@QEBA?AV0@W4DNameStatus@@@Z 000000018002abf8     libvcruntime:undname.obj
 0002:00009bf8       $unwind$??YDName@@QEAAAEAV0@AEBV0@@Z 000000018002abf8     libvcruntime:undname.obj
 0002:00009bf8       $unwind$??YDName@@QEAAAEAV0@W4DNameStatus@@@Z 000000018002abf8     libvcruntime:undname.obj
 0002:00009bf8       $unwind$?getLastChar@pairNode@@UEBADXZ 000000018002abf8     libvcruntime:undname.obj
 0002:00009bf8       $unwind$?getReturnType@UnDecorator@@CA?AVDName@@PEAV2@@Z 000000018002abf8     libvcruntime:undname.obj
 0002:00009bf8       $unwind$?getStringObject@UnDecorator@@CA?AVDName@@XZ 000000018002abf8     libvcruntime:undname.obj
 0002:00009bf8       $unwind$?getSymbolName@UnDecorator@@CA?AVDName@@XZ 000000018002abf8     libvcruntime:undname.obj
 0002:00009bf8       $unwind$__vcrt_FlsAlloc    000000018002abf8     libvcruntime:winapi_downlevel.obj
 0002:00009bf8       $unwind$__vcrt_FlsFree     000000018002abf8     libvcruntime:winapi_downlevel.obj
 0002:00009bf8       $unwind$__vcrt_FlsGetValue 000000018002abf8     libvcruntime:winapi_downlevel.obj
 0002:00009c00       $chain$0$??_EPxFoundation@physx@@MEAAPEAXI@Z 000000018002ac00     Cooking.obj
 0002:00009c14       $chain$1$??_EPxFoundation@physx@@MEAAPEAXI@Z 000000018002ac14     Cooking.obj
 0002:00009c24       $unwind$??1AABBTreeBuildParams@Gu@physx@@QEAA@XZ 000000018002ac24     Cooking.obj
 0002:00009c24       $unwind$?reset@AABBTreeBuildParams@Gu@physx@@QEAAXXZ 000000018002ac24     Cooking.obj
 0002:00009c24       $unwind$memcpy_s           000000018002ac24     libucrt:cfout.obj
 0002:00009c24       $unwind$__acrt_getptd      000000018002ac24     libucrt:per_thread_data.obj
 0002:00009c24       $unwind$__acrt_getptd_noexit 000000018002ac24     libucrt:per_thread_data.obj
 0002:00009c24       $unwind$__acrt_getptd_noexit_explicit 000000018002ac24     libucrt:per_thread_data.obj
 0002:00009c24       $unwind$__acrt_execute_initializers 000000018002ac24     libucrt:shared_initialization.obj
 0002:00009c24       $unwind$__acrt_InitializeCriticalSectionEx 000000018002ac24     libucrt:winapi_thunks.obj
 0002:00009c24       $unwind$_close_nolock_internal 000000018002ac24     libucrt:close.obj
 0002:00009c24       $unwind$?value@?$dual_state_global@P6AXPEB_W00I_K@Z@__crt_state_management@@QEAAAEAP6AXPEB_W00I_K@ZAEAV__crt_cached_ptd_host@@@Z 000000018002ac24     libucrt:invalid_parameter.obj
 0002:00009c24       $unwind$??0_LocaleUpdate@@QEAA@QEAU__crt_locale_pointers@@@Z 000000018002ac24     libucrt:argv_wildcards.obj
 0002:00009c24       $unwind$?update_locale_slow@__crt_cached_ptd_host@@AEAAXXZ 000000018002ac24     libucrt:output.obj
 0002:00009c24       $unwind$strncpy_s          000000018002ac24     libucrt:strncpy_s.obj
 0002:00009c24       $unwind$_exception_enabled 000000018002ac24     libucrt:libm_error.obj
 0002:00009c24       $unwind$_DllMainCRTStartup 000000018002ac24     LIBCMT:dll_dllmain.obj
 0002:00009c24       $unwind$__vcrt_getptd_noexit 000000018002ac24     libvcruntime:per_thread_data.obj
 0002:00009c24       $unwind$?FrameUnwindToEmptyState@__FrameHandler3@@SAXPEA_KPEAU_xDISPATCHER_CONTEXT@@PEBU_s_FuncInfo@@@Z 000000018002ac24     libvcruntime:risctrnsctrl.obj
 0002:00009c24       $unwind$??$?0$01@pcharNode@@QEAA@PEBDHU?$StringLifeSelector@$01@@@Z 000000018002ac24     libvcruntime:undname.obj
 0002:00009c24       $unwind$??$?0$0A@@pcharNode@@QEAA@PEBDHU?$StringLifeSelector@$0A@@@@Z 000000018002ac24     libvcruntime:undname.obj
 0002:00009c24       $unwind$??$doPchar@$01@DName@@AEAAXPEBDH@Z 000000018002ac24     libvcruntime:undname.obj
 0002:00009c24       $unwind$??$doPchar@$0A@@DName@@AEAAXPEBDH@Z 000000018002ac24     libvcruntime:undname.obj
 0002:00009c24       $unwind$??0DName@@QEAA@AEAPEBDD@Z 000000018002ac24     libvcruntime:undname.obj
 0002:00009c24       $unwind$??0DName@@QEAA@PEAV0@@Z 000000018002ac24     libvcruntime:undname.obj
 0002:00009c24       $unwind$?getMemoryWithBuffer@_HeapManager@@QEAAPEAX_K@Z 000000018002ac24     libvcruntime:undname.obj
 0002:00009c24       $unwind$__vcrt_InitializeCriticalSectionEx 000000018002ac24     libvcruntime:winapi_downlevel.obj
 0002:00009c34       $unwind$?allocate@?$PxArray@USlab@NodeAllocator@Gu@physx@@V?$PxReflectionAllocator@USlab@NodeAllocator@Gu@physx@@@4@@physx@@IEAAPEAUSlab@NodeAllocator@Gu@2@I@Z 000000018002ac34     Cooking.obj
 0002:00009c34       $unwind$_invalid_parameter_noinfo 000000018002ac34     libucrt:invalid_parameter.obj
 0002:00009c34       $unwind$?state_case_size@?$output_processor@DV?$string_output_adapter@D@__crt_stdio_output@@V?$format_validation_base@DV?$string_output_adapter@D@__crt_stdio_output@@@2@@__crt_stdio_output@@AEAA_NXZ 000000018002ac34     libucrt:output.obj
 0002:00009c34       $unwind$?state_case_size@?$output_processor@DV?$string_output_adapter@D@__crt_stdio_output@@V?$standard_base@DV?$string_output_adapter@D@__crt_stdio_output@@@2@@__crt_stdio_output@@AEAA_NXZ 000000018002ac34     libucrt:output.obj
 0002:00009c34       $unwind$_log10_special     000000018002ac34     libucrt:log_special.obj
 0002:00009c3c       $chain$0$?allocate@?$PxArray@USlab@NodeAllocator@Gu@physx@@V?$PxReflectionAllocator@USlab@NodeAllocator@Gu@physx@@@4@@physx@@IEAAPEAUSlab@NodeAllocator@Gu@2@I@Z 000000018002ac3c     Cooking.obj
 0002:00009c50       $chain$3$?allocate@?$PxArray@USlab@NodeAllocator@Gu@physx@@V?$PxReflectionAllocator@USlab@NodeAllocator@Gu@physx@@@4@@physx@@IEAAPEAUSlab@NodeAllocator@Gu@2@I@Z 000000018002ac50     Cooking.obj
 0002:00009c68       $chain$4$?allocate@?$PxArray@USlab@NodeAllocator@Gu@physx@@V?$PxReflectionAllocator@USlab@NodeAllocator@Gu@physx@@@4@@physx@@IEAAPEAUSlab@NodeAllocator@Gu@2@I@Z 000000018002ac68     Cooking.obj
 0002:00009c78       $unwind$?recreate@?$PxArray@USlab@NodeAllocator@Gu@physx@@V?$PxReflectionAllocator@USlab@NodeAllocator@Gu@physx@@@4@@physx@@IEAAXI@Z 000000018002ac78     Cooking.obj
 0002:00009c78       $unwind$?get_raw_ptd_noexit@__crt_cached_ptd_host@@QEAAPEAU__acrt_ptd@@XZ 000000018002ac78     libucrt:invalid_parameter.obj
 0002:00009c88       $chain$0$?recreate@?$PxArray@USlab@NodeAllocator@Gu@physx@@V?$PxReflectionAllocator@USlab@NodeAllocator@Gu@physx@@@4@@physx@@IEAAXI@Z 000000018002ac88     Cooking.obj
 0002:00009c9c       $chain$1$?recreate@?$PxArray@USlab@NodeAllocator@Gu@physx@@V?$PxReflectionAllocator@USlab@NodeAllocator@Gu@physx@@@4@@physx@@IEAAXI@Z 000000018002ac9c     Cooking.obj
 0002:00009cac       $unwind$??$copy@V?$PxReflectionAllocator@USlab@NodeAllocator@Gu@physx@@@physx@@@?$PxArray@USlab@NodeAllocator@Gu@physx@@V?$PxReflectionAllocator@USlab@NodeAllocator@Gu@physx@@@4@@physx@@IEAAXAEBV01@@Z 000000018002acac     Cooking.obj
 0002:00009cac       $unwind$??0NodeAllocator@Gu@physx@@QEAA@AEBV012@@Z 000000018002acac     Cooking.obj
 0002:00009cac       $unwind$??$common_initialize_environment_nolock@D@@YAHXZ 000000018002acac     libucrt:environment_initialization.obj
 0002:00009cac       $unwind$_callnewh          000000018002acac     libucrt:new_handler.obj
 0002:00009cac       $unwind$_realloc_base      000000018002acac     libucrt:realloc_base.obj
 0002:00009cac       $unwind$?replace_current_thread_locale_nolock@@YAXQEAU__acrt_ptd@@QEAU__crt_locale_data@@@Z 000000018002acac     libucrt:per_thread_data.obj
 0002:00009cac       $unwind$__acrt_execute_uninitializers 000000018002acac     libucrt:shared_initialization.obj
 0002:00009cac       $unwind$__acrt_LocaleNameToLCID 000000018002acac     libucrt:winapi_thunks.obj
 0002:00009cac       $unwind$?free_crt_array_internal@@YAXQEAPEBX_K@Z 000000018002acac     libucrt:inittime.obj
 0002:00009cac       $unwind$_updatetlocinfoEx_nolock 000000018002acac     libucrt:locale_refcounting.obj
 0002:00009cac       $unwind$__acrt_uninitialize_lowio 000000018002acac     libucrt:ioinit.obj
 0002:00009cac       $unwind$?setSBCS@@YAXPEAU__crt_multibyte_data@@@Z 000000018002acac     libucrt:mbctype.obj
 0002:00009cac       $unwind$_initterm_e        000000018002acac     libucrt:initterm.obj
 0002:00009cac       $unwind$?DloadGetSRWLockFunctionPointers@@YAEXZ 000000018002acac     Delayimp:delayhlp.obj
 0002:00009cac       $unwind$_RTC_Initialize    000000018002acac     LIBCMT:initsect.obj
 0002:00009cac       $unwind$_RTC_Terminate     000000018002acac     LIBCMT:initsect.obj
 0002:00009cac       $unwind$__C_specific_handler_noexcept 000000018002acac     libvcruntime:chandler_noexcept.obj
 0002:00009cac       $unwind$__FrameUnwindFilter 000000018002acac     libvcruntime:ehhelpers.obj
 0002:00009cac       $unwind$?SetUnwindTryBlock@__FrameHandler3@@SAXPEA_KPEAU_xDISPATCHER_CONTEXT@@PEBU_s_FuncInfo@@H@Z 000000018002acac     libvcruntime:ehstate.obj
 0002:00009cac       $unwind$??_Gbad_exception@std@@UEAAPEAXI@Z 000000018002acac     libvcruntime:frame.obj
 0002:00009cac       $unwind$??_Gexception@std@@UEAAPEAXI@Z 000000018002acac     libvcruntime:frame.obj
 0002:00009cac       $unwind$?ExFilterRethrow@@YAHPEAU_EXCEPTION_POINTERS@@PEAUEHExceptionRecord@@PEAH@Z 000000018002acac     libvcruntime:frame.obj
 0002:00009cac       $unwind$?ExFilterRethrowFH4@@YAHPEAU_EXCEPTION_POINTERS@@PEAUEHExceptionRecord@@HPEAH@Z 000000018002acac     libvcruntime:frame.obj
 0002:00009cac       $unwind$_FindAndUnlinkFrame 000000018002acac     libvcruntime:risctrnsctrl.obj
 0002:00009cac       $unwind$??$append@VDNameNode@@@DName@@AEAAXPEBVDNameNode@@@Z 000000018002acac     libvcruntime:undname.obj
 0002:00009cac       $unwind$??$append@VDNameStatusNode@@@DName@@AEAAXPEBVDNameStatusNode@@@Z 000000018002acac     libvcruntime:undname.obj
 0002:00009cac       $unwind$??$append@VcharNode@@@DName@@AEAAXPEBVcharNode@@@Z 000000018002acac     libvcruntime:undname.obj
 0002:00009cac       $unwind$??$append@VpcharNode@@@DName@@AEAAXPEBVpcharNode@@@Z 000000018002acac     libvcruntime:undname.obj
 0002:00009cac       $unwind$??YDName@@QEAAAEAV0@AEBUStringLiteral@@@Z 000000018002acac     libvcruntime:undname.obj
 0002:00009cac       $unwind$??YDName@@QEAAAEAV0@D@Z 000000018002acac     libvcruntime:undname.obj
 0002:00009cac       $unwind$??YReplicator@@QEAAAEAV0@AEBVDName@@@Z 000000018002acac     libvcruntime:undname.obj
 0002:00009cac       $unwind$?getString@pairNode@@UEBAPEADPEAD0@Z 000000018002acac     libvcruntime:undname.obj
 0002:00009cac       $unwind$?length@pairNode@@UEBAHXZ 000000018002acac     libvcruntime:undname.obj
 0002:00009cac       $unwind$__vcrt_FlsSetValue 000000018002acac     libvcruntime:winapi_downlevel.obj
 0002:00009cb8       $unwind$??4NodeAllocator@Gu@physx@@QEAAAEAV012@AEBV012@@Z 000000018002acb8     Cooking.obj
 0002:00009cb8       $unwind$_free_osfhnd       000000018002acb8     libucrt:osfinfo.obj
 0002:00009cb8       $unwind$__std_exception_copy 000000018002acb8     libvcruntime:std_exception.obj
 0002:00009cb8       $unwind$??$doPchar@$00@DName@@AEAAXPEBDH@Z 000000018002acb8     libvcruntime:undname.obj
 0002:00009ccc       $unwind$PxCreateBVHInternal 000000018002accc     Cooking.obj
 0002:00009ccc       $unwind$PxCreateTriangleMeshInternal 000000018002accc     Cooking.obj
 0002:00009ccc       $unwind$?type_case_c_tchar@?$output_processor@DV?$string_output_adapter@D@__crt_stdio_output@@V?$format_validation_base@DV?$string_output_adapter@D@__crt_stdio_output@@@2@@__crt_stdio_output@@AEAA_ND@Z 000000018002accc     libucrt:output.obj
 0002:00009ccc       $unwind$?type_case_c_tchar@?$output_processor@DV?$string_output_adapter@D@__crt_stdio_output@@V?$standard_base@DV?$string_output_adapter@D@__crt_stdio_output@@@2@@__crt_stdio_output@@AEAA_ND@Z 000000018002accc     libucrt:output.obj
 0002:00009ccc       $unwind$?type_case_n@?$output_processor@DV?$string_output_adapter@D@__crt_stdio_output@@V?$format_validation_base@DV?$string_output_adapter@D@__crt_stdio_output@@@2@@__crt_stdio_output@@AEAA_NXZ 000000018002accc     libucrt:output.obj
 0002:00009ccc       $unwind$?type_case_n@?$output_processor@DV?$string_output_adapter@D@__crt_stdio_output@@V?$standard_base@DV?$string_output_adapter@D@__crt_stdio_output@@@2@@__crt_stdio_output@@AEAA_NXZ 000000018002accc     libucrt:output.obj
 0002:00009cd8       $unwind$?cookingDelayHook@@YAP6A_JXZIPEAUDelayLoadInfo@@@Z 000000018002acd8     WindowsCookingDelayLoadHook.obj
 0002:00009cd8       $unwind$__dcrt_terminate_console_output 000000018002acd8     libucrt:initcon.obj
 0002:00009cd8       $unwind$??$uninitialize_environment_internal@D@@YAXAEAPEAPEAD@Z 000000018002acd8     libucrt:environment_initialization.obj
 0002:00009cd8       $unwind$??$uninitialize_environment_internal@_W@@YAXAEAPEAPEA_W@Z 000000018002acd8     libucrt:environment_initialization.obj
 0002:00009cd8       $unwind$__acrt_initialize_heap 000000018002acd8     libucrt:heap_handle.obj
 0002:00009cd8       $unwind$_msize_base        000000018002acd8     libucrt:msize.obj
 0002:00009cd8       $unwind$?initialize_multibyte@@YAHXZ 000000018002acd8     libucrt:multibyte_initializer.obj
 0002:00009cd8       $unwind$__acrt_thread_attach 000000018002acd8     libucrt:initialization.obj
 0002:00009cd8       $unwind$__acrt_thread_detach 000000018002acd8     libucrt:initialization.obj
 0002:00009cd8       $unwind$__acrt_uninitialize 000000018002acd8     libucrt:initialization.obj
 0002:00009cd8       $unwind$__acrt_uninitialize_critical 000000018002acd8     libucrt:initialization.obj
 0002:00009cd8       $unwind$initialize_c       000000018002acd8     libucrt:initialization.obj
 0002:00009cd8       $unwind$uninitialize_allocated_io_buffers 000000018002acd8     libucrt:initialization.obj
 0002:00009cd8       $unwind$uninitialize_environment 000000018002acd8     libucrt:initialization.obj
 0002:00009cd8       $unwind$__acrt_initialize_ptd 000000018002acd8     libucrt:per_thread_data.obj
 0002:00009cd8       $unwind$__acrt_uninitialize_ptd 000000018002acd8     libucrt:per_thread_data.obj
 0002:00009cd8       $unwind$__acrt_AreFileApisANSI 000000018002acd8     libucrt:winapi_thunks.obj
 0002:00009cd8       $unwind$__pctype_func      000000018002acd8     libucrt:ctype.obj
 0002:00009cd8       $unwind$__acrt_release_locale_ref 000000018002acd8     libucrt:locale_refcounting.obj
 0002:00009cd8       $unwind$_isatty            000000018002acd8     libucrt:isatty.obj
 0002:00009cd8       $unwind$_get_osfhandle     000000018002acd8     libucrt:osfinfo.obj
 0002:00009cd8       $unwind$__acrt_initialize_multibyte 000000018002acd8     libucrt:mbctype.obj
 0002:00009cd8       $unwind$__acrt_update_thread_multibyte_data 000000018002acd8     libucrt:mbctype.obj
 0002:00009cd8       $unwind$__doserrno         000000018002acd8     libucrt:errno.obj
 0002:00009cd8       $unwind$_errno             000000018002acd8     libucrt:errno.obj
 0002:00009cd8       $unwind$_invoke_watson     000000018002acd8     libucrt:invalid_parameter.obj
 0002:00009cd8       $unwind$abort              000000018002acd8     libucrt:abort.obj
 0002:00009cd8       $unwind$__acrt_initialize_command_line 000000018002acd8     libucrt:argv_data.obj
 0002:00009cd8       $unwind$?should_call_terminate_process@@YA_NXZ 000000018002acd8     libucrt:exit.obj
 0002:00009cd8       $unwind$_fileno            000000018002acd8     libucrt:fileno.obj
 0002:00009cd8       $unwind$_statfp            000000018002acd8     libucrt:fpctrl.obj
 0002:00009cd8       $unwind$fegetround         000000018002acd8     libucrt:fegetround.obj
 0002:00009cd8       $unwind$_set_errno_from_matherr 000000018002acd8     libucrt:fpexcept.obj
 0002:00009cd8       $unwind$?DloadReleaseSectionWriteAccess@@YAXXZ 000000018002acd8     Delayimp:delayhlp.obj
 0002:00009cd8       $unwind$__scrt_initialize_default_local_stdio_options 000000018002acd8     LIBCMT:default_local_stdio_options.obj
 0002:00009cd8       $unwind$?dllmain_crt_dispatch@@YAHQEAUHINSTANCE__@@KQEAX@Z 000000018002acd8     LIBCMT:dll_dllmain.obj
 0002:00009cd8       $unwind$__report_rangecheckfailure 000000018002acd8     LIBCMT:gs_report.obj
 0002:00009cd8       $unwind$__GSHandlerCheck   000000018002acd8     LIBCMT:gshandler.obj
 0002:00009cd8       $unwind$__scrt_acquire_startup_lock 000000018002acd8     LIBCMT:utility.obj
 0002:00009cd8       $unwind$__scrt_dllmain_after_initialize_c 000000018002acd8     LIBCMT:utility.obj
 0002:00009cd8       $unwind$__scrt_dllmain_before_initialize_c 000000018002acd8     LIBCMT:utility.obj
 0002:00009cd8       $unwind$__scrt_dllmain_crt_thread_attach 000000018002acd8     LIBCMT:utility.obj
 0002:00009cd8       $unwind$__scrt_dllmain_crt_thread_detach 000000018002acd8     LIBCMT:utility.obj
 0002:00009cd8       $unwind$__scrt_dllmain_uninitialize_c 000000018002acd8     LIBCMT:utility.obj
 0002:00009cd8       $unwind$__scrt_dllmain_uninitialize_critical 000000018002acd8     LIBCMT:utility.obj
 0002:00009cd8       $unwind$__std_terminate    000000018002acd8     libvcruntime:ehhelpers.obj
 0002:00009cd8       $unwind$?GetCurrentState@__FrameHandler3@@SAHPEA_KPEAU_xDISPATCHER_CONTEXT@@PEBU_s_FuncInfo@@@Z 000000018002acd8     libvcruntime:ehstate.obj
 0002:00009cd8       $unwind$__vcrt_initialize  000000018002acd8     libvcruntime:initialization.obj
 0002:00009cd8       $unwind$__vcrt_thread_attach 000000018002acd8     libvcruntime:initialization.obj
 0002:00009cd8       $unwind$__vcrt_thread_detach 000000018002acd8     libvcruntime:initialization.obj
 0002:00009cd8       $unwind$__vcrt_uninitialize 000000018002acd8     libvcruntime:initialization.obj
 0002:00009cd8       $unwind$__vcrt_uninitialize_critical 000000018002acd8     libvcruntime:initialization.obj
 0002:00009cd8       $unwind$__vcrt_freefls     000000018002acd8     libvcruntime:per_thread_data.obj
 0002:00009cd8       $unwind$__vcrt_getptd      000000018002acd8     libvcruntime:per_thread_data.obj
 0002:00009cd8       $unwind$__vcrt_initialize_ptd 000000018002acd8     libvcruntime:per_thread_data.obj
 0002:00009cd8       $unwind$__vcrt_uninitialize_ptd 000000018002acd8     libvcruntime:per_thread_data.obj
 0002:00009cd8       $unwind$_purecall          000000018002acd8     libvcruntime:purevirt.obj
 0002:00009cd8       $unwind$?FrameUnwindToEmptyState@__FrameHandler4@@SAXPEA_KPEAU_xDISPATCHER_CONTEXT@@PEAUFuncInfo4@FH4@@@Z 000000018002acd8     libvcruntime:risctrnsctrl.obj
 0002:00009cd8       $unwind$_GetImageBase      000000018002acd8     libvcruntime:risctrnsctrl.obj
 0002:00009cd8       $unwind$_GetThrowImageBase 000000018002acd8     libvcruntime:risctrnsctrl.obj
 0002:00009cd8       $unwind$?getLastChar@pDNameNode@@UEBADXZ 000000018002acd8     libvcruntime:undname.obj
 0002:00009cd8       $unwind$?getString@pDNameNode@@UEBAPEADPEAD0@Z 000000018002acd8     libvcruntime:undname.obj
 0002:00009cd8       $unwind$?getTypeEncoding@UnDecorator@@CAHXZ 000000018002acd8     libvcruntime:undname.obj
 0002:00009cd8       $unwind$?length@pDNameNode@@UEBAHXZ 000000018002acd8     libvcruntime:undname.obj
 0002:00009ce0       $chain$1$?cookingDelayHook@@YAP6A_JXZIPEAUDelayLoadInfo@@@Z 000000018002ace0     WindowsCookingDelayLoadHook.obj
 0002:00009cf8       $chain$3$?cookingDelayHook@@YAP6A_JXZIPEAUDelayLoadInfo@@@Z 000000018002acf8     WindowsCookingDelayLoadHook.obj
 0002:00009cf8       $chain$5$?cookingDelayHook@@YAP6A_JXZIPEAUDelayLoadInfo@@@Z 000000018002acf8     WindowsCookingDelayLoadHook.obj
 0002:00009d10       $chain$6$?cookingDelayHook@@YAP6A_JXZIPEAUDelayLoadInfo@@@Z 000000018002ad10     WindowsCookingDelayLoadHook.obj
 0002:00009d20       xdata                      000000018002ad20     PhysXCommon_64:PhysXCommon_64.dll
 0002:00009d28       xdata                      000000018002ad28     PhysXFoundation_64:PhysXFoundation_64.dll
 0002:00009d30       $unwind$?DloadObtainSection@@YAPEAXPEAK0@Z 000000018002ad30     Delayimp:delayhlp.obj
 0002:00009d30       $unwind$strstr             000000018002ad30     libvcruntime:strstr.obj
 0002:00009d40       $unwind$?DloadMakePermanentImageCommit@@YAXPEAX_K@Z 000000018002ad40     Delayimp:delayhlp.obj
 0002:00009d4c       $unwind$?DloadProtectSection@@YAXKPEAK@Z 000000018002ad4c     Delayimp:delayhlp.obj
 0002:00009d5c       $unwind$__delayLoadHelper2 000000018002ad5c     Delayimp:delayhlp.obj
 0002:00009d78       $unwind$?dllmain_crt_process_attach@@YAHQEAUHINSTANCE__@@QEAX@Z 000000018002ad78     LIBCMT:dll_dllmain.obj
 0002:00009db4       $unwind$_query_new_handler$fin$0 000000018002adb4     libucrt:new_handler.obj
 0002:00009db4       $unwind$?fin$0@?0???$?RV<lambda_0ae27a3a962d80f24befdcbee591983d>@@AEAV<lambda_8d0ee55de4b1038c4002e0adecdf1839>@@V<lambda_dc504788e8f1664fe9b84e20bfb512f2>@@@?$__crt_seh_guarded_call@X@@QEAAX$$QEAV<lambda_0ae27a3a962d80f24befdcbee591983d>@@AEAV<lambda_8d0ee55de4b1038c4002e0adecdf1839>@@$$QEAV<lambda_dc504788e8f1664fe9b84e20bfb512f2>@@@Z@4HA 000000018002adb4     libucrt:per_thread_data.obj
 0002:00009db4       $unwind$?fin$0@?0???$?RV<lambda_2d41944a1d46af3157314b8a01080d33>@@AEAV<lambda_8f455de75cd7d7f24b4096f044d8b9e6>@@V<lambda_aa500f224e6afead328df44964fe2772>@@@?$__crt_seh_guarded_call@X@@QEAAX$$QEAV<lambda_2d41944a1d46af3157314b8a01080d33>@@AEAV<lambda_8f455de75cd7d7f24b4096f044d8b9e6>@@$$QEAV<lambda_aa500f224e6afead328df44964fe2772>@@@Z@4HA 000000018002adb4     libucrt:per_thread_data.obj
 0002:00009db4       $unwind$?fin$0@?0???$?RV<lambda_aa87e3671a710a21b5dc78c0bdf72e11>@@AEAV<lambda_92619d2358a28f41a33ba319515a20b9>@@V<lambda_6992ecaafeb10aed2b74cb1fae11a551>@@@?$__crt_seh_guarded_call@X@@QEAAX$$QEAV<lambda_aa87e3671a710a21b5dc78c0bdf72e11>@@AEAV<lambda_92619d2358a28f41a33ba319515a20b9>@@$$QEAV<lambda_6992ecaafeb10aed2b74cb1fae11a551>@@@Z@4HA 000000018002adb4     libucrt:per_thread_data.obj
 0002:00009db4       $unwind$?fin$0@?0???$?RV<lambda_f2e299630e499de9f9a165e60fcd3db5>@@AEAV<lambda_2ae9d31cdba2644fcbeaf08da7c24588>@@V<lambda_40d01ff24d0e7b3814fdbdcee8eab3c7>@@@?$__crt_seh_guarded_call@X@@QEAAX$$QEAV<lambda_f2e299630e499de9f9a165e60fcd3db5>@@AEAV<lambda_2ae9d31cdba2644fcbeaf08da7c24588>@@$$QEAV<lambda_40d01ff24d0e7b3814fdbdcee8eab3c7>@@@Z@4HA 000000018002adb4     libucrt:per_thread_data.obj
 0002:00009db4       $unwind$__acrt_update_thread_locale_data$fin$0 000000018002adb4     libucrt:locale_refcounting.obj
 0002:00009db4       $unwind$?fin$0@?0???$?RV<lambda_410d79af7f07d98d83a3f525b3859a53>@@AEAV<lambda_3e16ef9562a7dcce91392c22ab16ea36>@@V<lambda_38119f0e861e05405d8a144b9b982f0a>@@@?$__crt_seh_guarded_call@X@@QEAAX$$QEAV<lambda_410d79af7f07d98d83a3f525b3859a53>@@AEAV<lambda_3e16ef9562a7dcce91392c22ab16ea36>@@$$QEAV<lambda_38119f0e861e05405d8a144b9b982f0a>@@@Z@4HA 000000018002adb4     libucrt:wsetlocale.obj
 0002:00009db4       $unwind$?fin$0@?0???$?RV<lambda_ad8af0d99a0adf03d037d7dffe354bb5>@@AEAV<lambda_c9ba49e555ba839a7b07aa3fbecb7617>@@V<lambda_2f1ebd5d68526518146ae959c9e734c8>@@@?$__crt_seh_guarded_call@H@@QEAAH$$QEAV<lambda_ad8af0d99a0adf03d037d7dffe354bb5>@@AEAV<lambda_c9ba49e555ba839a7b07aa3fbecb7617>@@$$QEAV<lambda_2f1ebd5d68526518146ae959c9e734c8>@@@Z@4HA 000000018002adb4     libucrt:close.obj
 0002:00009db4       $unwind$?fin$0@?0???$?RV<lambda_a37b2b86f63e897a80ea819b0eb08c01>@@AEAV<lambda_38ce7e780aa69e748d6df282ebc68efe>@@V<lambda_99fb1378e971ab6e7edea83e3a7a83a2>@@@?$__crt_seh_guarded_call@H@@QEAAH$$QEAV<lambda_a37b2b86f63e897a80ea819b0eb08c01>@@AEAV<lambda_38ce7e780aa69e748d6df282ebc68efe>@@$$QEAV<lambda_99fb1378e971ab6e7edea83e3a7a83a2>@@@Z@4HA 000000018002adb4     libucrt:commit.obj
 0002:00009db4       $unwind$__acrt_initialize_lowio$fin$0 000000018002adb4     libucrt:ioinit.obj
 0002:00009db4       $unwind$__acrt_lowio_ensure_fh_exists$fin$0 000000018002adb4     libucrt:osfinfo.obj
 0002:00009db4       $unwind$?fin$0@?0???$?RV<lambda_efdfa57d1f175319df784efa44bb7b81>@@AEAV<lambda_5f0a4c1567f8adc6734073e5d1e1b35c>@@V<lambda_2e8a7d3640ea6ccb4c2413664c2db6fd>@@@?$__crt_seh_guarded_call@X@@QEAAX$$QEAV<lambda_efdfa57d1f175319df784efa44bb7b81>@@AEAV<lambda_5f0a4c1567f8adc6734073e5d1e1b35c>@@$$QEAV<lambda_2e8a7d3640ea6ccb4c2413664c2db6fd>@@@Z@4HA 000000018002adb4     libucrt:mbctype.obj
 0002:00009db4       $unwind$?fin$0@?0??update_thread_multibyte_data_internal@@YAPEAU__crt_multibyte_data@@QEAU__acrt_ptd@@QEAPEAU1@@Z@4HA 000000018002adb4     libucrt:mbctype.obj
 0002:00009db4       $unwind$?fin$0@?0???$?RV<lambda_450d765d439847d4c735a33c368b5fc0>@@AEAV<lambda_44731a7d0e6d81c3e6aa82d741081786>@@V<lambda_601a2a7da3b7a96e9554ac7215c4b07c>@@@?$__crt_seh_guarded_call@P6AXH@Z@@QEAAP6AXH@Z$$QEAV<lambda_450d765d439847d4c735a33c368b5fc0>@@AEAV<lambda_44731a7d0e6d81c3e6aa82d741081786>@@$$QEAV<lambda_601a2a7da3b7a96e9554ac7215c4b07c>@@@Z@4HA 000000018002adb4     libucrt:signal.obj
 0002:00009db4       $unwind$raise$fin$0        000000018002adb4     libucrt:signal.obj
 0002:00009db4       $unwind$?filt$0@?0???R<lambda_6e4b09c48022b2350581041d5f6b0c4c>@@QEBA@XZ@4HA 000000018002adb4     libucrt:exit.obj
 0002:00009db4       $unwind$?fin$0@?0???$?RV<lambda_d80eeec6fff315bfe5c115232f3240e3>@@AEAV<lambda_6e4b09c48022b2350581041d5f6b0c4c>@@V<lambda_2358e3775559c9db80273638284d5e45>@@@?$__crt_seh_guarded_call@X@@QEAAX$$QEAV<lambda_d80eeec6fff315bfe5c115232f3240e3>@@AEAV<lambda_6e4b09c48022b2350581041d5f6b0c4c>@@$$QEAV<lambda_2358e3775559c9db80273638284d5e45>@@@Z@4HA 000000018002adb4     libucrt:exit.obj
 0002:00009db4       $unwind$?fin$0@?0???$?RV<lambda_7777bce6b2f8c936911f934f8298dc43>@@AEAV<lambda_f03950bc5685219e0bcd2087efbe011e>@@V<lambda_3883c3dff614d5e0c5f61bb1ac94921c>@@@?$__crt_seh_guarded_call@H@@QEAAH$$QEAV<lambda_7777bce6b2f8c936911f934f8298dc43>@@AEAV<lambda_f03950bc5685219e0bcd2087efbe011e>@@$$QEAV<lambda_3883c3dff614d5e0c5f61bb1ac94921c>@@@Z@4HA 000000018002adb4     libucrt:onexit.obj
 0002:00009db4       $unwind$_fcloseall$fin$0   000000018002adb4     libucrt:closeall.obj
 0002:00009db4       $unwind$?fin$0@?0???$?RV<lambda_842d9ff0dc9ef11c61343bbaebe7f885>@@AEAV<lambda_c5860995281e5c4ce005b3de8f5874ee>@@V<lambda_d90129c13df834fdcbf8d2b88dafcf2d>@@@?$__crt_seh_guarded_call@X@@QEAAX$$QEAV<lambda_842d9ff0dc9ef11c61343bbaebe7f885>@@AEAV<lambda_c5860995281e5c4ce005b3de8f5874ee>@@$$QEAV<lambda_d90129c13df834fdcbf8d2b88dafcf2d>@@@Z@4HA 000000018002adb4     libucrt:fflush.obj
 0002:00009db4       $unwind$?fin$0@?0???$?RV<lambda_886d6c58226a84441f68b9f2b8217b83>@@AEAV<lambda_ab61a845afdef5b7c387490eaf3616ee>@@V<lambda_f7f22ab5edc0698d5f6905b0d3f44752>@@@?$__crt_seh_guarded_call@X@@QEAAX$$QEAV<lambda_886d6c58226a84441f68b9f2b8217b83>@@AEAV<lambda_ab61a845afdef5b7c387490eaf3616ee>@@$$QEAV<lambda_f7f22ab5edc0698d5f6905b0d3f44752>@@@Z@4HA 000000018002adb4     libucrt:fflush.obj
 0002:00009db4       $unwind$_ctrlfp$filt$0     000000018002adb4     libucrt:fpctrl.obj
 0002:00009db4       $unwind$common_control87$filt$0 000000018002adb4     libucrt:ieee.obj
 0002:00009db4       $unwind$?fin$0@?0??dllmain_crt_process_attach@@YAHQEAUHINSTANCE__@@QEAX@Z@4HA 000000018002adb4     LIBCMT:dll_dllmain.obj
 0002:00009db4       $unwind$?fin$0@?0??dllmain_crt_process_detach@@YAH_N@Z@4HA 000000018002adb4     LIBCMT:dll_dllmain.obj
 0002:00009db4       $unwind$?fin$1@?0??dllmain_crt_process_detach@@YAH_N@Z@4HA 000000018002adb4     LIBCMT:dll_dllmain.obj
 0002:00009db4       $unwind$_IsNonwritableInCurrentImage$filt$0 000000018002adb4     LIBCMT:pesect.obj
 0002:00009db4       $unwind$?filt$0@?0??CxxCallCatchBlock@__FrameHandler3@@SAPEAXPEAU_EXCEPTION_RECORD@@@Z@4HA 000000018002adb4     libvcruntime:frame.obj
 0002:00009db4       $unwind$?filt$0@?0??CxxCallCatchBlock@__FrameHandler4@@SAPEAXPEAU_EXCEPTION_RECORD@@@Z@4HA 000000018002adb4     libvcruntime:frame.obj
 0002:00009db4       $unwind$?filt$0@?0??FrameUnwindToState@__FrameHandler3@@SAXPEA_KPEAU_xDISPATCHER_CONTEXT@@PEBU_s_FuncInfo@@H@Z@4HA 000000018002adb4     libvcruntime:frame.obj
 0002:00009db4       $unwind$?fin$1@?0??FrameUnwindToState@__FrameHandler3@@SAXPEA_KPEAU_xDISPATCHER_CONTEXT@@PEBU_s_FuncInfo@@H@Z@4HA 000000018002adb4     libvcruntime:frame.obj
 0002:00009db4       $unwind$__unDNameEx$fin$0  000000018002adb4     libvcruntime:undname.obj
 0002:00009dbc       $unwind$?dllmain_crt_process_detach@@YAH_N@Z 000000018002adbc     LIBCMT:dll_dllmain.obj
 0002:00009e10       $unwind$?dllmain_dispatch@@YAHQEAUHINSTANCE__@@KQEAX@Z 000000018002ae10     LIBCMT:dll_dllmain.obj
 0002:00009e38       $unwind$_write_internal$fin$0 000000018002ae38     libucrt:write.obj
 0002:00009e38       $unwind$?fin$0@?0??_fclose_internal@@YAHQEAU_iobuf@@AEAV__crt_cached_ptd_host@@@Z@4HA 000000018002ae38     libucrt:fclose.obj
 0002:00009e38       $unwind$?filt$0@?0??dllmain_dispatch@@YAHQEAUHINSTANCE__@@KQEAX@Z@4HA 000000018002ae38     LIBCMT:dll_dllmain.obj
 0002:00009e38       $unwind$?filt$0@?0??FrameUnwindToState@__FrameHandler4@@SAXPEA_KPEAU_xDISPATCHER_CONTEXT@@PEAUFuncInfo4@FH4@@H@Z@4HA 000000018002ae38     libvcruntime:frame.obj
 0002:00009e38       $unwind$?fin$1@?0??FrameUnwindToState@__FrameHandler4@@SAXPEA_KPEAU_xDISPATCHER_CONTEXT@@PEAUFuncInfo4@FH4@@H@Z@4HA 000000018002ae38     libvcruntime:frame.obj
 0002:00009e40       $unwind$__security_init_cookie 000000018002ae40     LIBCMT:gs_support.obj
 0002:00009e4c       $unwind$__scrt_is_nonwritable_in_current_image 000000018002ae4c     LIBCMT:utility.obj
 0002:00009e6c       $unwind$__scrt_is_nonwritable_in_current_image$filt$0 000000018002ae6c     LIBCMT:utility.obj
 0002:00009e74       $unwind$?should_round_up@@YA_NQEBD0HW4__acrt_has_trailing_digits@@W4__acrt_rounding_mode@@@Z 000000018002ae74     libucrt:_fptostr.obj
 0002:00009e74       $unwind$_ischartype_l      000000018002ae74     libucrt:atox.obj
 0002:00009e74       $unwind$_recalloc_base     000000018002ae74     libucrt:recalloc.obj
 0002:00009e74       $unwind$__acrt_free_locale 000000018002ae74     libucrt:locale_refcounting.obj
 0002:00009e74       $unwind$__acrt_lowio_create_handle_array 000000018002ae74     libucrt:osfinfo.obj
 0002:00009e74       $unwind$_seh_filter_exe    000000018002ae74     libucrt:exception_filter.obj
 0002:00009e74       $unwind$__acrt_stdio_flush_nolock 000000018002ae74     libucrt:fflush.obj
 0002:00009e74       $unwind$??$ensure_buffer_is_big_enough@D@formatting_buffer@__crt_stdio_output@@QEAA_N_KAEAV__crt_cached_ptd_host@@@Z 000000018002ae74     libucrt:output.obj
 0002:00009e74       $unwind$__scrt_dllmain_exception_filter 000000018002ae74     LIBCMT:utility.obj
 0002:00009e74       $unwind$?GetHandlerSearchState@__FrameHandler3@@SAHPEA_KPEAU_xDISPATCHER_CONTEXT@@PEBU_s_FuncInfo@@@Z 000000018002ae74     libvcruntime:frame.obj
 0002:00009e74       $unwind$?Is_bad_exception_allowed@@YAEPEBU_s_ESTypeList@@@Z 000000018002ae74     libvcruntime:frame.obj
 0002:00009e74       $unwind$?CatchTryBlock@__FrameHandler3@@SAPEBU_s_TryBlockMapEntry@@PEBU_s_FuncInfo@@H@Z 000000018002ae74     libvcruntime:risctrnsctrl.obj
 0002:00009e88       $unwind$__scrt_fastfail    000000018002ae88     LIBCMT:utility_desktop.obj
 0002:00009e98       $xdatasym                  000000018002ae98     LIBCMT:guard_dispatch.obj
 0002:00009ea0       $xdatasym                  000000018002aea0     LIBCMT:guard_xfg_dispatch.obj
 0002:00009ea4       $unwind$__isa_available_init 000000018002aea4     LIBCMT:cpu_disp.obj
 0002:00009eb4       $unwind$__C_specific_handler 000000018002aeb4     libvcruntime:riscchandler.obj
 0002:00009eb4       $unwind$?GetRangeOfTrysToCheck@__FrameHandler3@@SA?AU?$pair@Viterator@TryBlockMap@__FrameHandler3@@V123@@std@@AEAVTryBlockMap@1@HPEAU_xDISPATCHER_CONTEXT@@PEBU_s_FuncInfo@@H@Z 000000018002aeb4     libvcruntime:risctrnsctrl.obj
 0002:00009eb4       $unwind$__std_type_info_name 000000018002aeb4     libvcruntime:std_type_info.obj
 0002:00009ed0       $unwind$__DestructExceptionObject 000000018002aed0     libvcruntime:ehhelpers.obj
 0002:00009ef0       $unwind$__DestructExceptionObject$filt$0 000000018002aef0     libvcruntime:ehhelpers.obj
 0002:00009ef0       $unwind$?fin$1@?0??CxxCallCatchBlock@__FrameHandler3@@SAPEAXPEAU_EXCEPTION_RECORD@@@Z@4HA 000000018002aef0     libvcruntime:frame.obj
 0002:00009ef0       $unwind$?fin$1@?0??CxxCallCatchBlock@__FrameHandler4@@SAPEAXPEAU_EXCEPTION_RECORD@@@Z@4HA 000000018002aef0     libvcruntime:frame.obj
 0002:00009f00       $xdatasym                  000000018002af00     libvcruntime:memset.obj
 0002:00009f10       $unwind$_raise_exc         000000018002af10     libucrt:fpexcept.obj
 0002:00009f10       $unwind$__unDName          000000018002af10     libvcruntime:undname.obj
 0002:00009f18       $unwind$__unDNameEx        000000018002af18     libvcruntime:undname.obj
 0002:00009f48       $unwind$snprintf           000000018002af48     libvcruntime:undname.obj
 0002:00009f48       $unwind$sprintf_s          000000018002af48     libvcruntime:undname.obj
 0002:00009f58       $unwind$??0DName@@QEAA@_J@Z 000000018002af58     libvcruntime:undname.obj
 0002:00009f58       $unwind$??0DName@@QEAA@_K@Z 000000018002af58     libvcruntime:undname.obj
 0002:00009f68       $unwind$?doPchar@DName@@AEAAXD@Z 000000018002af68     libvcruntime:undname.obj
 0002:00009f74       $unwind$?getDecoratedName@UnDecorator@@CA?AVDName@@XZ 000000018002af74     libvcruntime:undname.obj
 0002:00009f94       $cppxdata$?getDecoratedName@UnDecorator@@CA?AVDName@@XZ 000000018002af94     libvcruntime:undname.obj
 0002:00009f9d       $stateUnwindMap$?getDecoratedName@UnDecorator@@CA?AVDName@@XZ 000000018002af9d     libvcruntime:undname.obj
 0002:00009fa4       $ip2state$?getDecoratedName@UnDecorator@@CA?AVDName@@XZ 000000018002afa4     libvcruntime:undname.obj
 0002:00009fac       $unwind$?getZName@UnDecorator@@CA?AVDName@@_N0@Z 000000018002afac     libvcruntime:undname.obj
 0002:00009fcc       $unwind$?getOperatorName@UnDecorator@@CA?AVDName@@_NPEA_N@Z 000000018002afcc     libvcruntime:undname.obj
 0002:00009fe8       $unwind$?getScope@UnDecorator@@CA?AVDName@@XZ 000000018002afe8     libvcruntime:undname.obj
 0002:0000a004       $unwind$?getScopedName@UnDecorator@@CA?AVDName@@XZ 000000018002b004     libvcruntime:undname.obj
 0002:0000a014       $unwind$_mbsdec_l          000000018002b014     libucrt:mbsdec.obj
 0002:0000a014       $unwind$?getSignedDimension@UnDecorator@@CA?AVDName@@XZ 000000018002b014     libvcruntime:undname.obj
 0002:0000a020       $unwind$?getDimension@UnDecorator@@CA?AVDName@@_N@Z 000000018002b020     libvcruntime:undname.obj
 0002:0000a038       $unwind$?getFloatingPoint@UnDecorator@@CA?AVDName@@H@Z 000000018002b038     libvcruntime:undname.obj
 0002:0000a050       $unwind$?getValueObject@UnDecorator@@CA?AVDName@@XZ 000000018002b050     libvcruntime:undname.obj
 0002:0000a05c       $unwind$__dcrt_lowio_ensure_console_output_initialized 000000018002b05c     libucrt:initcon.obj
 0002:0000a05c       $unwind$?__mbrtowc_utf8@__crt_mbstring@@YA_KPEA_WPEBD_KPEAU_Mbstatet@@AEAV__crt_cached_ptd_host@@@Z 000000018002b05c     libucrt:mbrtowc.obj
 0002:0000a05c       $unwind$?getSystemCP@@YAHH@Z 000000018002b05c     libucrt:mbctype.obj
 0002:0000a05c       $unwind$?getAddressOf@UnDecorator@@CA?AVDName@@XZ 000000018002b05c     libvcruntime:undname.obj
 0002:0000a05c       $unwind$?getArrayAccess@UnDecorator@@CA?AVDName@@XZ 000000018002b05c     libvcruntime:undname.obj
 0002:0000a05c       $unwind$?getArrayObject@UnDecorator@@CA?AVDName@@XZ 000000018002b05c     libvcruntime:undname.obj
 0002:0000a05c       $unwind$?getMemberAccess@UnDecorator@@CA?AVDName@@XZ 000000018002b05c     libvcruntime:undname.obj
 0002:0000a05c       $unwind$?getStringEncoding@UnDecorator@@CA?AVDName@@W4PrefixKind@@H@Z 000000018002b05c     libvcruntime:undname.obj
 0002:0000a05c       $unwind$?getUnionObject@UnDecorator@@CA?AVDName@@XZ 000000018002b05c     libvcruntime:undname.obj
 0002:0000a064       $unwind$?getArgumentTypes@UnDecorator@@CA?AVDName@@XZ 000000018002b064     libvcruntime:undname.obj
 0002:0000a064       $unwind$?getPointerToMember@UnDecorator@@CA?AVDName@@XZ 000000018002b064     libvcruntime:undname.obj
 0002:0000a070       $unwind$?getTemplateName@UnDecorator@@CA?AVDName@@_N@Z 000000018002b070     libvcruntime:undname.obj
 0002:0000a08c       $unwind$?getTemplateArgumentList@UnDecorator@@CA?AVDName@@XZ 000000018002b08c     libvcruntime:undname.obj
 0002:0000a0ac       $unwind$?getTemplateNonTypeArgument@UnDecorator@@CA?AVDName@@XZ 000000018002b0ac     libvcruntime:undname.obj
 0002:0000a0cc       $unwind$?getTemplateTypeArgument@UnDecorator@@CA?AVDName@@XZ 000000018002b0cc     libvcruntime:undname.obj
 0002:0000a0e4       $unwind$?composeDeclaration@UnDecorator@@CA?AVDName@@AEBV2@@Z 000000018002b0e4     libvcruntime:undname.obj
 0002:0000a100       $unwind$?getBasedType@UnDecorator@@CA?AVDName@@XZ 000000018002b100     libvcruntime:undname.obj
 0002:0000a100       $unwind$?getEnumType@UnDecorator@@CA?AVDName@@XZ 000000018002b100     libvcruntime:undname.obj
 0002:0000a10c       $unwind$?getCallingConvention@UnDecorator@@CA?AVDName@@XZ 000000018002b10c     libvcruntime:undname.obj
 0002:0000a11c       $unwind$?getDataType@UnDecorator@@CA?AVDName@@PEAV2@@Z 000000018002b11c     libvcruntime:undname.obj
 0002:0000a128       $unwind$?getExtendedDataIndirectType@UnDecorator@@CA?AVDName@@AEAW4IndirectionKind@@AEA_NH@Z 000000018002b128     libvcruntime:undname.obj
 0002:0000a128       $unwind$?getPrimaryDataType@UnDecorator@@CA?AVDName@@AEBV2@@Z 000000018002b128     libvcruntime:undname.obj
 0002:0000a128       $unwind$?getPtrRefDataType@UnDecorator@@CA?AVDName@@AEBV2@H@Z 000000018002b128     libvcruntime:undname.obj
 0002:0000a138       $unwind$?getDataIndirectType@UnDecorator@@CA?AVDName@@AEBV2@W4IndirectionKind@@0H@Z 000000018002b138     libvcruntime:undname.obj
 0002:0000a158       $unwind$?getBasicDataType@UnDecorator@@CA?AVDName@@AEBV2@@Z 000000018002b158     libvcruntime:undname.obj
 0002:0000a170       $unwind$atol               000000018002b170     libucrt:atox.obj
 0002:0000a170       $unwind$?getECSUDataType@UnDecorator@@CA?AVDName@@XZ 000000018002b170     libvcruntime:undname.obj
 0002:0000a180       $unwind$?getPtrRefType@UnDecorator@@CA?AVDName@@AEBV2@0W4IndirectionKind@@@Z 000000018002b180     libvcruntime:undname.obj
 0002:0000a198       $unwind$?getArrayType@UnDecorator@@CA?AVDName@@AEBV2@@Z 000000018002b198     libvcruntime:undname.obj
 0002:0000a1b4       $unwind$?getFunctionIndirectType@UnDecorator@@CA?AVDName@@AEBV2@@Z 000000018002b1b4     libvcruntime:undname.obj
 0002:0000a1d4       $unwind$__acrt_fp_format   000000018002b1d4     libucrt:cvt.obj
 0002:0000a1d4       $unwind$?getArgumentList@UnDecorator@@CA?AVDName@@XZ 000000018002b1d4     libvcruntime:undname.obj
 0002:0000a1e4       $unwind$?getNoexcept@UnDecorator@@CA?AVDName@@XZ 000000018002b1e4     libvcruntime:undname.obj
 0002:0000a1e4       $unwind$?getVCallThunkType@UnDecorator@@CA?AVDName@@XZ 000000018002b1e4     libvcruntime:undname.obj
 0002:0000a1e4       $unwind$?getVdispMapType@UnDecorator@@CA?AVDName@@AEBV2@@Z 000000018002b1e4     libvcruntime:undname.obj
 0002:0000a1ec       $unwind$?getRestrictionSpec@UnDecorator@@CA?AVDName@@XZ 000000018002b1ec     libvcruntime:undname.obj
 0002:0000a204       $unwind$?getLexicalFrame@UnDecorator@@CA?AVDName@@XZ 000000018002b204     libvcruntime:undname.obj
 0002:0000a204       $unwind$?parseDecoratedName@UnDecorator@@CA?AVDName@@XZ 000000018002b204     libvcruntime:undname.obj
 0002:0000a210       $unwind$?getExternalDataType@UnDecorator@@CA?AVDName@@AEBV2@@Z 000000018002b210     libvcruntime:undname.obj
 0002:0000a220       $unwind$?getVfTableType@UnDecorator@@CA?AVDName@@AEBV2@@Z 000000018002b220     libvcruntime:undname.obj
 0002:0000a234       $unwind$?UScore@UnDecorator@@SA?AUStringLiteral@@W4Tokens@@@Z 000000018002b234     libvcruntime:undname.obj
 0002:0000a23c       $unwind$?getStateFromIterators@UWMap4@FH4@@SAHAEBViterator@12@H0H0@Z 000000018002b23c     libvcruntime:frame.obj
 0002:0000a23c       $unwind$?getUndecoratedName@UnDecorator@@QEAAPEADPEADH@Z 000000018002b23c     libvcruntime:undname.obj
 0002:0000a250       $xdatasym                  000000018002b250     libvcruntime:notify.obj
 0002:0000a260       $xdatasym                  000000018002b260     libvcruntime:memcpy.obj
 0002:0000a270       $unwind$?StateFromIp@__FrameHandler4@@SAHPEAUFuncInfo4@FH4@@PEAU_xDISPATCHER_CONTEXT@@_K@Z 000000018002b270     libvcruntime:ehstate.obj
 0002:0000a270       $unwind$?DecompFuncInfo@FH4@@YA_JPEAEAEAUFuncInfo4@1@_KH_N@Z 000000018002b270     libvcruntime:risctrnsctrl.obj
 0002:0000a288       $unwind$?GetEstablisherFrame@__FrameHandler3@@SAPEA_KPEA_KPEAU_xDISPATCHER_CONTEXT@@PEBU_s_FuncInfo@@0@Z 000000018002b288     libvcruntime:risctrnsctrl.obj
 0002:0000a2a0       $unwind$?UnwindNestedFrames@__FrameHandler3@@SAXPEA_KPEAUEHExceptionRecord@@PEAU_CONTEXT@@0PEAXPEBU_s_FuncInfo@@HHPEBU_s_HandlerType@@PEAU_xDISPATCHER_CONTEXT@@E@Z 000000018002b2a0     libvcruntime:risctrnsctrl.obj
 0002:0000a2a0       $unwind$?UnwindNestedFrames@__FrameHandler4@@SAXPEA_KPEAUEHExceptionRecord@@PEAU_CONTEXT@@0PEAXPEAUFuncInfo4@FH4@@HHPEAUHandlerType4@5@PEAU_xDISPATCHER_CONTEXT@@E@Z 000000018002b2a0     libvcruntime:risctrnsctrl.obj
 0002:0000a2b4       $unwind$?GetRangeOfTrysToCheck@__FrameHandler4@@SA?AU?$pair@Viterator@TryBlockMap4@FH4@@V123@@std@@AEAVTryBlockMap4@FH4@@HPEAU_xDISPATCHER_CONTEXT@@PEAUFuncInfo4@5@H@Z 000000018002b2b4     libvcruntime:risctrnsctrl.obj
 0002:0000a2d0       $unwind$__CxxFrameHandler3 000000018002b2d0     libvcruntime:risctrnsctrl.obj
 0002:0000a2e4       $unwind$__CxxFrameHandler4 000000018002b2e4     libvcruntime:risctrnsctrl.obj
 0002:0000a2f8       $unwind$??$_CallSETranslator@V__FrameHandler4@@@@YAHPEAUEHExceptionRecord@@PEA_KPEAU_CONTEXT@@PEAU_xDISPATCHER_CONTEXT@@PEAUFuncInfo4@FH4@@K1H@Z 000000018002b2f8     libvcruntime:risctrnsctrl.obj
 0002:0000a318       $unwind$?filt$0@?0???$_CallSETranslator@V__FrameHandler3@@@@YAHPEAUEHExceptionRecord@@PEA_KPEAU_CONTEXT@@PEAU_xDISPATCHER_CONTEXT@@PEBU_s_FuncInfo@@K1H@Z@4HA 000000018002b318     libvcruntime:risctrnsctrl.obj
 0002:0000a318       $unwind$?filt$0@?0???$_CallSETranslator@V__FrameHandler4@@@@YAHPEAUEHExceptionRecord@@PEA_KPEAU_CONTEXT@@PEAU_xDISPATCHER_CONTEXT@@PEAUFuncInfo4@FH4@@K1H@Z@4HA 000000018002b318     libvcruntime:risctrnsctrl.obj
 0002:0000a324       $unwind$??$_CallSETranslator@V__FrameHandler3@@@@YAHPEAUEHExceptionRecord@@PEA_KPEAU_CONTEXT@@PEAU_xDISPATCHER_CONTEXT@@PEBU_s_FuncInfo@@K1H@Z 000000018002b324     libvcruntime:risctrnsctrl.obj
 0002:0000a344       $unwind$?try_get_function@@YAPEAXW4function_id@?A0x391cf84c@@QEBDQEBW4module_id@2@2@Z 000000018002b344     libucrt:winapi_thunks.obj
 0002:0000a344       $unwind$??$parse_command_line@D@@YAXPEADPEAPEAD0PEA_K2@Z 000000018002b344     libucrt:argv_parsing.obj
 0002:0000a344       $unwind$?try_get_function@@YAPEAXW4function_id@?A0x14174aea@@QEBDQEBW4module_id@2@2@Z 000000018002b344     libvcruntime:winapi_downlevel.obj
 0002:0000a360       $unwind$?getStartStop@UWMap4@FH4@@QEAAXHHAEAViterator@12@0@Z 000000018002b360     libvcruntime:frame.obj
 0002:0000a378       $unwind$?FrameUnwindToState@__FrameHandler3@@SAXPEA_KPEAU_xDISPATCHER_CONTEXT@@PEBU_s_FuncInfo@@H@Z 000000018002b378     libvcruntime:frame.obj
 0002:0000a3c4       $unwind$?CxxCallCatchBlock@__FrameHandler3@@SAPEAXPEAU_EXCEPTION_RECORD@@@Z 000000018002b3c4     libvcruntime:frame.obj
 0002:0000a400       $unwind$?FrameUnwindToState@__FrameHandler4@@SAXPEA_KPEAU_xDISPATCHER_CONTEXT@@PEAUFuncInfo4@FH4@@H@Z 000000018002b400     libvcruntime:frame.obj
 0002:0000a448       $unwind$?CxxCallCatchBlock@__FrameHandler4@@SAPEAXPEAU_EXCEPTION_RECORD@@@Z 000000018002b448     libvcruntime:frame.obj
 0002:0000a4a4       $unwind$?IsInExceptionSpec@@YAEPEAUEHExceptionRecord@@PEBU_s_ESTypeList@@@Z 000000018002b4a4     libvcruntime:frame.obj
 0002:0000a4c0       $unwind$??$__InternalCxxFrameHandlerWrapper@V__FrameHandler4@@@@YA?AW4_EXCEPTION_DISPOSITION@@PEAUEHExceptionRecord@@PEA_KPEAU_CONTEXT@@PEAU_xDISPATCHER_CONTEXT@@PEAUFuncInfo4@FH4@@H1E@Z 000000018002b4c0     libvcruntime:frame.obj
 0002:0000a4e0       $unwind$?fin$0@?0???$__InternalCxxFrameHandlerWrapper@V__FrameHandler4@@@@YA?AW4_EXCEPTION_DISPOSITION@@PEAUEHExceptionRecord@@PEA_KPEAU_CONTEXT@@PEAU_xDISPATCHER_CONTEXT@@PEAUFuncInfo4@FH4@@H1E@Z@4HA 000000018002b4e0     libvcruntime:frame.obj
 0002:0000a4e8       $unwind$?initialize_stdio_handles_nolock@@YAXXZ 000000018002b4e8     libucrt:ioinit.obj
 0002:0000a4e8       $unwind$__acrt_initialize_stdio 000000018002b4e8     libucrt:_file.obj
 0002:0000a4e8       $unwind$__GSHandlerCheck_EH 000000018002b4e8     LIBCMT:gshandlereh.obj
 0002:0000a4e8       $unwind$__GSHandlerCheck_SEH 000000018002b4e8     LIBCMT:gshandlerseh.obj
 0002:0000a4e8       $unwind$??$TypeMatchHelper@V__FrameHandler3@@@@YAHPEBU_s_HandlerType@@PEBU_s_CatchableType@@PEBU_s_ThrowInfo@@@Z 000000018002b4e8     libvcruntime:frame.obj
 0002:0000a4e8       $unwind$??$TypeMatchHelper@V__FrameHandler4@@@@YAHPEAUHandlerType4@FH4@@PEBU_s_CatchableType@@PEBU_s_ThrowInfo@@@Z 000000018002b4e8     libvcruntime:frame.obj
 0002:0000a500       $unwind$??$BuildCatchObjectHelperInternal@V__FrameHandler3@@@@YAHPEAUEHExceptionRecord@@PEAXPEBU_s_HandlerType@@PEBU_s_CatchableType@@@Z 000000018002b500     libvcruntime:frame.obj
 0002:0000a540       $unwind$??$BuildCatchObjectHelperInternal@V__FrameHandler4@@@@YAHPEAUEHExceptionRecord@@PEAXPEAUHandlerType4@FH4@@PEBU_s_CatchableType@@@Z 000000018002b540     libvcruntime:frame.obj
 0002:0000a580       $unwind$??$BuildCatchObjectInternal@V__FrameHandler3@@@@YAXPEAUEHExceptionRecord@@PEAXPEBU_s_HandlerType@@PEBU_s_CatchableType@@@Z 000000018002b580     libvcruntime:frame.obj
 0002:0000a5ac       $unwind$??$BuildCatchObjectInternal@V__FrameHandler4@@@@YAXPEAUEHExceptionRecord@@PEAXPEAUHandlerType4@FH4@@PEBU_s_CatchableType@@@Z 000000018002b5ac     libvcruntime:frame.obj
 0002:0000a5d8       $unwind$?fp_format_e@@YAHQEBNQEAD_K12H_NIW4__acrt_rounding_mode@@AEAV__crt_cached_ptd_host@@@Z 000000018002b5d8     libucrt:cvt.obj
 0002:0000a5d8       $unwind$??$__InternalCxxFrameHandler@V__FrameHandler3@@@@YA?AW4_EXCEPTION_DISPOSITION@@PEAUEHExceptionRecord@@PEA_KPEAU_CONTEXT@@PEAU_xDISPATCHER_CONTEXT@@PEBU_s_FuncInfo@@H1E@Z 000000018002b5d8     libvcruntime:frame.obj
 0002:0000a5f0       $unwind$??$__InternalCxxFrameHandler@V__FrameHandler4@@@@YA?AW4_EXCEPTION_DISPOSITION@@PEAUEHExceptionRecord@@PEA_KPEAU_CONTEXT@@PEAU_xDISPATCHER_CONTEXT@@PEAUFuncInfo4@FH4@@H1E@Z 000000018002b5f0     libvcruntime:frame.obj
 0002:0000a608       $unwind$??$FindHandler@V__FrameHandler3@@@@YAXPEAUEHExceptionRecord@@PEA_KPEAU_CONTEXT@@PEAU_xDISPATCHER_CONTEXT@@PEBU_s_FuncInfo@@EH1@Z 000000018002b608     libvcruntime:frame.obj
 0002:0000a628       $unwind$??$FindHandler@V__FrameHandler4@@@@YAXPEAUEHExceptionRecord@@PEA_KPEAU_CONTEXT@@PEAU_xDISPATCHER_CONTEXT@@PEAUFuncInfo4@FH4@@EH1@Z 000000018002b628     libvcruntime:frame.obj
 0002:0000a648       $unwind$??$CatchIt@V__FrameHandler3@@@@YAXPEAUEHExceptionRecord@@PEA_KPEAU_CONTEXT@@PEAU_xDISPATCHER_CONTEXT@@PEBU_s_FuncInfo@@PEBU_s_HandlerType@@PEBU_s_CatchableType@@PEBU_s_TryBlockMapEntry@@H1EE@Z 000000018002b648     libvcruntime:frame.obj
 0002:0000a648       $unwind$??$CatchIt@V__FrameHandler4@@@@YAXPEAUEHExceptionRecord@@PEA_KPEAU_CONTEXT@@PEAU_xDISPATCHER_CONTEXT@@PEAUFuncInfo4@FH4@@PEAUHandlerType4@4@PEBU_s_CatchableType@@PEAUTryBlockMapEntry4@4@H1EE@Z 000000018002b648     libvcruntime:frame.obj
 0002:0000a660       $unwind$??$FindHandlerForForeignException@V__FrameHandler3@@@@YAXPEAUEHExceptionRecord@@PEA_KPEAU_CONTEXT@@PEAU_xDISPATCHER_CONTEXT@@PEBU_s_FuncInfo@@HH1@Z 000000018002b660     libvcruntime:frame.obj
 0002:0000a67c       $unwind$??$FindHandlerForForeignException@V__FrameHandler4@@@@YAXPEAUEHExceptionRecord@@PEA_KPEAU_CONTEXT@@PEAU_xDISPATCHER_CONTEXT@@PEAUFuncInfo4@FH4@@HH1@Z 000000018002b67c     libvcruntime:frame.obj
 0002:0000a6a0       $xdatasym                  000000018002b6a0     libvcruntime:handlers.obj
 0002:0000a6c0       $unwind$_CxxThrowException 000000018002b6c0     libvcruntime:throw.obj
 0002:0000a6d0       $unwind$_local_unwind      000000018002b6d0     libvcruntime:jmpuwind.obj
 0002:0000a6d8       $unwind$??$free_environment@D@@YAXQEAPEAD@Z 000000018002b6d8     libucrt:environment_initialization.obj
 0002:0000a6d8       $unwind$??$free_environment@_W@@YAXQEAPEA_W@Z 000000018002b6d8     libucrt:environment_initialization.obj
 0002:0000a6d8       $unwind$_initterm          000000018002b6d8     libucrt:initterm.obj
 0002:0000a6e4       $unwind$?try_cor_exit_process@@YAXI@Z 000000018002b6e4     libucrt:exit.obj
 0002:0000a6f8       $ip2state$?try_cor_exit_process@@YAXI@Z 000000018002b6f8     libucrt:exit.obj
 0002:0000a700       $unwind$?common_exit@@YAXHW4_crt_exit_cleanup_mode@@W4_crt_exit_return_mode@@@Z 000000018002b700     libucrt:exit.obj
 0002:0000a714       $stateUnwindMap$__dcrt_uninitialize_environments_nolock 000000018002b714     libucrt:environment_initialization.obj
 0002:0000a714       $stateUnwindMap$?common_exit@@YAXHW4_crt_exit_cleanup_mode@@W4_crt_exit_return_mode@@@Z 000000018002b714     libucrt:exit.obj
 0002:0000a714       $stateUnwindMap$_execute_onexit_table 000000018002b714     libucrt:onexit.obj
 0002:0000a720       $ip2state$?common_exit@@YAXHW4_crt_exit_cleanup_mode@@W4_crt_exit_return_mode@@@Z 000000018002b720     libucrt:exit.obj
 0002:0000a728       $unwind$??R<lambda_6e4b09c48022b2350581041d5f6b0c4c>@@QEBA@XZ 000000018002b728     libucrt:exit.obj
 0002:0000a748       $unwind$??$?RV<lambda_d80eeec6fff315bfe5c115232f3240e3>@@AEAV<lambda_6e4b09c48022b2350581041d5f6b0c4c>@@V<lambda_2358e3775559c9db80273638284d5e45>@@@?$__crt_seh_guarded_call@X@@QEAAX$$QEAV<lambda_d80eeec6fff315bfe5c115232f3240e3>@@AEAV<lambda_6e4b09c48022b2350581041d5f6b0c4c>@@$$QEAV<lambda_2358e3775559c9db80273638284d5e45>@@@Z 000000018002b748     libucrt:exit.obj
 0002:0000a76c       $unwind$_configure_narrow_argv 000000018002b76c     libucrt:argv_parsing.obj
 0002:0000a780       $unwind$__dcrt_uninitialize_environments_nolock 000000018002b780     libucrt:environment_initialization.obj
 0002:0000a790       $unwind$??$create_environment@D@@YAQEAPEADQEAD@Z 000000018002b790     libucrt:environment_initialization.obj
 0002:0000a790       $unwind$_mbtowc_internal   000000018002b790     libucrt:mbtowc.obj
 0002:0000a790       $unwind$??$__acrt_convert_wcs_mbs_cp@D_WV<lambda_7c9dea7b4ca7285d2cdb541a38da6275>@@U__crt_win32_buffer_internal_dynamic_resizing@@@@YAHQEBDAEAV?$__crt_win32_buffer@_WU__crt_win32_buffer_internal_dynamic_resizing@@@@AEBV<lambda_7c9dea7b4ca7285d2cdb541a38da6275>@@I@Z 000000018002b790     libucrt:argv_wildcards.obj
 0002:0000a790       $unwind$??$type_case_integer@$07@?$output_processor@DV?$string_output_adapter@D@__crt_stdio_output@@V?$format_validation_base@DV?$string_output_adapter@D@__crt_stdio_output@@@2@@__crt_stdio_output@@AEAA_N_N@Z 000000018002b790     libucrt:output.obj
 0002:0000a790       $unwind$??$type_case_integer@$07@?$output_processor@DV?$string_output_adapter@D@__crt_stdio_output@@V?$standard_base@DV?$string_output_adapter@D@__crt_stdio_output@@@2@@__crt_stdio_output@@AEAA_N_N@Z 000000018002b790     libucrt:output.obj
 0002:0000a790       $unwind$??$type_case_integer@$09@?$output_processor@DV?$string_output_adapter@D@__crt_stdio_output@@V?$format_validation_base@DV?$string_output_adapter@D@__crt_stdio_output@@@2@@__crt_stdio_output@@AEAA_N_N@Z 000000018002b790     libucrt:output.obj
 0002:0000a790       $unwind$??$type_case_integer@$09@?$output_processor@DV?$string_output_adapter@D@__crt_stdio_output@@V?$standard_base@DV?$string_output_adapter@D@__crt_stdio_output@@@2@@__crt_stdio_output@@AEAA_N_N@Z 000000018002b790     libucrt:output.obj
 0002:0000a790       $unwind$??$type_case_integer@$0BA@@?$output_processor@DV?$string_output_adapter@D@__crt_stdio_output@@V?$format_validation_base@DV?$string_output_adapter@D@__crt_stdio_output@@@2@@__crt_stdio_output@@AEAA_N_N@Z 000000018002b790     libucrt:output.obj
 0002:0000a790       $unwind$??$type_case_integer@$0BA@@?$output_processor@DV?$string_output_adapter@D@__crt_stdio_output@@V?$standard_base@DV?$string_output_adapter@D@__crt_stdio_output@@@2@@__crt_stdio_output@@AEAA_N_N@Z 000000018002b790     libucrt:output.obj
 0002:0000a790       $unwind$?process@?$output_processor@DV?$string_output_adapter@D@__crt_stdio_output@@V?$format_validation_base@DV?$string_output_adapter@D@__crt_stdio_output@@@2@@__crt_stdio_output@@QEAAHXZ 000000018002b790     libucrt:output.obj
 0002:0000a790       $unwind$?process@?$output_processor@DV?$string_output_adapter@D@__crt_stdio_output@@V?$standard_base@DV?$string_output_adapter@D@__crt_stdio_output@@@2@@__crt_stdio_output@@QEAAHXZ 000000018002b790     libucrt:output.obj
 0002:0000a7a8       $unwind$_execute_onexit_table 000000018002b7a8     libucrt:onexit.obj
 0002:0000a7b8       $ip2state$_execute_onexit_table 000000018002b7b8     libucrt:onexit.obj
 0002:0000a7c0       $unwind$?fp_format_f_internal@@YAHQEAD_KHQEAU_strflt@@_NAEAV__crt_cached_ptd_host@@@Z 000000018002b7c0     libucrt:cvt.obj
 0002:0000a7c0       $unwind$__acrt_DownlevelLocaleNameToLCID 000000018002b7c0     libucrt:lcidtoname_downlevel.obj
 0002:0000a7c0       $unwind$??R<lambda_f03950bc5685219e0bcd2087efbe011e>@@QEBA@XZ 000000018002b7c0     libucrt:onexit.obj
 0002:0000a7d8       $unwind$??$?RV<lambda_7777bce6b2f8c936911f934f8298dc43>@@AEAV<lambda_f03950bc5685219e0bcd2087efbe011e>@@V<lambda_3883c3dff614d5e0c5f61bb1ac94921c>@@@?$__crt_seh_guarded_call@H@@QEAAH$$QEAV<lambda_7777bce6b2f8c936911f934f8298dc43>@@AEAV<lambda_f03950bc5685219e0bcd2087efbe011e>@@$$QEAV<lambda_3883c3dff614d5e0c5f61bb1ac94921c>@@@Z 000000018002b7d8     libucrt:onexit.obj
 0002:0000a7fc       $unwind$terminate          000000018002b7fc     libucrt:terminate.obj
 0002:0000a81c       $unwind$__stdio_common_vsprintf 000000018002b81c     libucrt:output.obj
 0002:0000a83c       $unwind$__stdio_common_vsprintf_s 000000018002b83c     libucrt:output.obj
 0002:0000a850       $unwind$?get_raw_ptd@__crt_cached_ptd_host@@QEAAPEAU__acrt_ptd@@XZ 000000018002b850     libucrt:output.obj
 0002:0000a858       $chain$0$?get_raw_ptd@__crt_cached_ptd_host@@QEAAPEAU__acrt_ptd@@XZ 000000018002b858     libucrt:output.obj
 0002:0000a86c       $chain$1$?get_raw_ptd@__crt_cached_ptd_host@@QEAAPEAU__acrt_ptd@@XZ 000000018002b86c     libucrt:output.obj
 0002:0000a87c       $unwind$?write_string@?$string_output_adapter@D@__crt_stdio_output@@QEBAXQEBDHQEAHAEAV__crt_cached_ptd_host@@@Z 000000018002b87c     libucrt:output.obj
 0002:0000a894       $unwind$?parse_int_from_format_string@?$output_processor@DV?$string_output_adapter@D@__crt_stdio_output@@V?$format_validation_base@DV?$string_output_adapter@D@__crt_stdio_output@@@2@@__crt_stdio_output@@AEAA_NQEAH@Z 000000018002b894     libucrt:output.obj
 0002:0000a894       $unwind$?parse_int_from_format_string@?$output_processor@DV?$string_output_adapter@D@__crt_stdio_output@@V?$standard_base@DV?$string_output_adapter@D@__crt_stdio_output@@@2@@__crt_stdio_output@@AEAA_NQEAH@Z 000000018002b894     libucrt:output.obj
 0002:0000a8a8       $unwind$?state_case_type@?$output_processor@DV?$string_output_adapter@D@__crt_stdio_output@@V?$format_validation_base@DV?$string_output_adapter@D@__crt_stdio_output@@@2@@__crt_stdio_output@@AEAA_NXZ 000000018002b8a8     libucrt:output.obj
 0002:0000a8a8       $unwind$?state_case_type@?$output_processor@DV?$string_output_adapter@D@__crt_stdio_output@@V?$standard_base@DV?$string_output_adapter@D@__crt_stdio_output@@@2@@__crt_stdio_output@@AEAA_NXZ 000000018002b8a8     libucrt:output.obj
 0002:0000a8cc       $unwind$?type_case_a@?$output_processor@DV?$string_output_adapter@D@__crt_stdio_output@@V?$format_validation_base@DV?$string_output_adapter@D@__crt_stdio_output@@@2@@__crt_stdio_output@@AEAA_NXZ 000000018002b8cc     libucrt:output.obj
 0002:0000a8cc       $unwind$?type_case_a@?$output_processor@DV?$string_output_adapter@D@__crt_stdio_output@@V?$standard_base@DV?$string_output_adapter@D@__crt_stdio_output@@@2@@__crt_stdio_output@@AEAA_NXZ 000000018002b8cc     libucrt:output.obj
 0002:0000a8e0       $unwind$??$common_vsprintf@Vformat_validation_base@__crt_stdio_output@@D@@YAH_KQEAD0QEBDAEAV__crt_cached_ptd_host@@1@Z 000000018002b8e0     libucrt:output.obj
 0002:0000a900       $unwind$??$parse_integer@KV?$c_string_character_source@D@__crt_strtox@@$00@__crt_strtox@@YAKAEAV__crt_cached_ptd_host@@V?$c_string_character_source@D@0@H_N@Z 000000018002b900     libucrt:atox.obj
 0002:0000a900       $unwind$??$copy_and_add_argument_to_buffer@D@@YAHQEBD0_KAEAV?$argument_list@D@?A0x5f5c8891@@@Z 000000018002b900     libucrt:argv_wildcards.obj
 0002:0000a900       $unwind$??$parse_integer@KV?$c_string_character_source@D@__crt_strtox@@$0A@@__crt_strtox@@YAKAEAV__crt_cached_ptd_host@@V?$c_string_character_source@D@0@H_N@Z 000000018002b900     libucrt:output.obj
 0002:0000a91c       $unwind$??$type_case_integer_parse_into_buffer@I$09@?$output_processor@DV?$string_output_adapter@D@__crt_stdio_output@@V?$format_validation_base@DV?$string_output_adapter@D@__crt_stdio_output@@@2@@__crt_stdio_output@@AEAAXI_N@Z 000000018002b91c     libucrt:output.obj
 0002:0000a91c       $unwind$??$type_case_integer_parse_into_buffer@I$09@?$output_processor@DV?$string_output_adapter@D@__crt_stdio_output@@V?$standard_base@DV?$string_output_adapter@D@__crt_stdio_output@@@2@@__crt_stdio_output@@AEAAXI_N@Z 000000018002b91c     libucrt:output.obj
 0002:0000a91c       $unwind$??$type_case_integer_parse_into_buffer@_K$09@?$output_processor@DV?$string_output_adapter@D@__crt_stdio_output@@V?$format_validation_base@DV?$string_output_adapter@D@__crt_stdio_output@@@2@@__crt_stdio_output@@AEAAX_K_N@Z 000000018002b91c     libucrt:output.obj
 0002:0000a91c       $unwind$??$type_case_integer_parse_into_buffer@_K$09@?$output_processor@DV?$string_output_adapter@D@__crt_stdio_output@@V?$standard_base@DV?$string_output_adapter@D@__crt_stdio_output@@@2@@__crt_stdio_output@@AEAAX_K_N@Z 000000018002b91c     libucrt:output.obj
 0002:0000a91c       $unwind$strrchr            000000018002b91c     libvcruntime:strrchr.obj
 0002:0000a928       $xdatasym                  000000018002b928     libucrt:strncmp.obj
 0002:0000a92c       $unwind$_free_base         000000018002b92c     libucrt:free_base.obj
 0002:0000a92c       $unwind$?destroy_fls@@YAXPEAX@Z 000000018002b92c     libucrt:per_thread_data.obj
 0002:0000a92c       $unwind$__acrt_locale_free_numeric 000000018002b92c     libucrt:initnum.obj
 0002:0000a92c       $unwind$__acrt_locale_free_lc_time_if_unreferenced 000000018002b92c     libucrt:locale_refcounting.obj
 0002:0000a934       $unwind$?construct_ptd_array@@YAXQEAU__acrt_ptd@@@Z 000000018002b934     libucrt:per_thread_data.obj
 0002:0000a93c       $unwind$?destroy_ptd_array@@YAXQEAU__acrt_ptd@@@Z 000000018002b93c     libucrt:per_thread_data.obj
 0002:0000a944       $unwind$??$?RV<lambda_0ae27a3a962d80f24befdcbee591983d>@@AEAV<lambda_8d0ee55de4b1038c4002e0adecdf1839>@@V<lambda_dc504788e8f1664fe9b84e20bfb512f2>@@@?$__crt_seh_guarded_call@X@@QEAAX$$QEAV<lambda_0ae27a3a962d80f24befdcbee591983d>@@AEAV<lambda_8d0ee55de4b1038c4002e0adecdf1839>@@$$QEAV<lambda_dc504788e8f1664fe9b84e20bfb512f2>@@@Z 000000018002b944     libucrt:per_thread_data.obj
 0002:0000a968       $unwind$??$?RV<lambda_aa87e3671a710a21b5dc78c0bdf72e11>@@AEAV<lambda_92619d2358a28f41a33ba319515a20b9>@@V<lambda_6992ecaafeb10aed2b74cb1fae11a551>@@@?$__crt_seh_guarded_call@X@@QEAAX$$QEAV<lambda_aa87e3671a710a21b5dc78c0bdf72e11>@@AEAV<lambda_92619d2358a28f41a33ba319515a20b9>@@$$QEAV<lambda_6992ecaafeb10aed2b74cb1fae11a551>@@@Z 000000018002b968     libucrt:per_thread_data.obj
 0002:0000a98c       $unwind$??$?RV<lambda_f2e299630e499de9f9a165e60fcd3db5>@@AEAV<lambda_2ae9d31cdba2644fcbeaf08da7c24588>@@V<lambda_40d01ff24d0e7b3814fdbdcee8eab3c7>@@@?$__crt_seh_guarded_call@X@@QEAAX$$QEAV<lambda_f2e299630e499de9f9a165e60fcd3db5>@@AEAV<lambda_2ae9d31cdba2644fcbeaf08da7c24588>@@$$QEAV<lambda_40d01ff24d0e7b3814fdbdcee8eab3c7>@@@Z 000000018002b98c     libucrt:per_thread_data.obj
 0002:0000a9b0       $unwind$??$?RV<lambda_2d41944a1d46af3157314b8a01080d33>@@AEAV<lambda_8f455de75cd7d7f24b4096f044d8b9e6>@@V<lambda_aa500f224e6afead328df44964fe2772>@@@?$__crt_seh_guarded_call@X@@QEAAX$$QEAV<lambda_2d41944a1d46af3157314b8a01080d33>@@AEAV<lambda_8f455de75cd7d7f24b4096f044d8b9e6>@@$$QEAV<lambda_aa500f224e6afead328df44964fe2772>@@@Z 000000018002b9b0     libucrt:per_thread_data.obj
 0002:0000a9d4       $unwind$__acrt_call_reportfault 000000018002b9d4     libucrt:invalid_parameter.obj
 0002:0000a9f4       $unwind$__acrt_fp_strflt_to_string 000000018002b9f4     libucrt:_fptostr.obj
 0002:0000a9f4       $unwind$??$common_lseek_nolock@_J@@YA_JH_JHAEAV__crt_cached_ptd_host@@@Z 000000018002b9f4     libucrt:lseek.obj
 0002:0000a9f4       $unwind$_invalid_parameter_internal 000000018002b9f4     libucrt:invalid_parameter.obj
 0002:0000aa08       $unwind$_invalid_parameter 000000018002ba08     libucrt:invalid_parameter.obj
 0002:0000aa14       $unwind$??$common_expand_argv_wildcards@D@@YAHQEAPEADQEAPEAPEAD@Z 000000018002ba14     libucrt:argv_wildcards.obj
 0002:0000aa2c       $unwind$__dcrt_get_narrow_environment_from_os 000000018002ba2c     libucrt:get_environment_from_os.obj
 0002:0000aa2c       $unwind$??$__acrt_convert_wcs_mbs_cp@_WDV<lambda_d8593a27d1aa8c02be35c86a17d324c4>@@U__crt_win32_buffer_internal_dynamic_resizing@@@@YAHQEB_WAEAV?$__crt_win32_buffer@DU__crt_win32_buffer_internal_dynamic_resizing@@@@AEBV<lambda_d8593a27d1aa8c02be35c86a17d324c4>@@I@Z 000000018002ba2c     libucrt:argv_wildcards.obj
 0002:0000aa44       $unwind$??$expand_argument_wildcards@D@@YAHQEAD0AEAV?$argument_list@D@?A0x5f5c8891@@@Z 000000018002ba44     libucrt:argv_wildcards.obj
 0002:0000aa64       $unwind$__acrt_GetModuleFileNameA 000000018002ba64     libucrt:getmodulefilenamea.obj
 0002:0000aa80       $unwind$__dcrt_write_console 000000018002ba80     libucrt:initcon.obj
 0002:0000aa80       $unwind$??$__acrt_convert_wcs_mbs_cp@_WDV<lambda_f788ae46380686e8b737efdd8c720d07>@@U__crt_win32_buffer_no_resizing@@@@YAHQEB_WAEAV?$__crt_win32_buffer@DU__crt_win32_buffer_no_resizing@@@@AEBV<lambda_f788ae46380686e8b737efdd8c720d07>@@I@Z 000000018002ba80     libucrt:getmodulefilenamea.obj
 0002:0000aa94       $unwind$_setmbcp_nolock    000000018002ba94     libucrt:mbctype.obj
 0002:0000aab4       $unwind$?update_thread_multibyte_data_internal@@YAPEAU__crt_multibyte_data@@QEAU__acrt_ptd@@QEAPEAU1@@Z 000000018002bab4     libucrt:mbctype.obj
 0002:0000aadc       $unwind$?setmbcp_internal@@YAHH_NQEAU__acrt_ptd@@QEAPEAU__crt_multibyte_data@@@Z 000000018002badc     libucrt:mbctype.obj
 0002:0000aaf4       $unwind$?setSBUpLow@@YAXPEAU__crt_multibyte_data@@@Z 000000018002baf4     libucrt:mbctype.obj
 0002:0000ab10       $unwind$??$?RV<lambda_efdfa57d1f175319df784efa44bb7b81>@@AEAV<lambda_5f0a4c1567f8adc6734073e5d1e1b35c>@@V<lambda_2e8a7d3640ea6ccb4c2413664c2db6fd>@@@?$__crt_seh_guarded_call@X@@QEAAX$$QEAV<lambda_efdfa57d1f175319df784efa44bb7b81>@@AEAV<lambda_5f0a4c1567f8adc6734073e5d1e1b35c>@@$$QEAV<lambda_2e8a7d3640ea6ccb4c2413664c2db6fd>@@@Z 000000018002bb10     libucrt:mbctype.obj
 0002:0000ab34       $unwind$?x_ismbbtype_l@@YAHPEAU__crt_locale_pointers@@IHH@Z 000000018002bb34     libucrt:ismbbyte.obj
 0002:0000ab44       $unwind$__acrt_WideCharToMultiByte 000000018002bb44     libucrt:widechartomultibyte.obj
 0002:0000ab50       $unwind$__acrt_initialize_winapi_thunks 000000018002bb50     libucrt:winapi_thunks.obj
 0002:0000ab58       $unwind$?fp_format_f@@YAHQEBNQEAD_K12HW4__acrt_rounding_mode@@AEAV__crt_cached_ptd_host@@@Z 000000018002bb58     libucrt:cvt.obj
 0002:0000ab58       $unwind$__acrt_LCMapStringEx 000000018002bb58     libucrt:winapi_thunks.obj
 0002:0000ab6c       $unwind$__acrt_initialize_lowio 000000018002bb6c     libucrt:ioinit.obj
 0002:0000ab8c       $unwind$?initialize_inherited_file_handles_nolock@@YAXXZ 000000018002bb8c     libucrt:ioinit.obj
 0002:0000aba8       $unwind$_query_new_handler 000000018002bba8     libucrt:new_handler.obj
 0002:0000abc8       $unwind$__acrt_uninitialize_locale 000000018002bbc8     libucrt:wsetlocale.obj
 0002:0000abc8       $unwind$__acrt_get_sigabrt_handler 000000018002bbc8     libucrt:signal.obj
 0002:0000abd0       $unwind$raise              000000018002bbd0     libucrt:signal.obj
 0002:0000ac10       $unwind$??$?RV<lambda_450d765d439847d4c735a33c368b5fc0>@@AEAV<lambda_44731a7d0e6d81c3e6aa82d741081786>@@V<lambda_601a2a7da3b7a96e9554ac7215c4b07c>@@@?$__crt_seh_guarded_call@P6AXH@Z@@QEAAP6AXH@Z$$QEAV<lambda_450d765d439847d4c735a33c368b5fc0>@@AEAV<lambda_44731a7d0e6d81c3e6aa82d741081786>@@$$QEAV<lambda_601a2a7da3b7a96e9554ac7215c4b07c>@@@Z 000000018002bc10     libucrt:signal.obj
 0002:0000ac34       $unwind$fclose             000000018002bc34     libucrt:fclose.obj
 0002:0000ac34       $unwind$_fflush_nolock     000000018002bc34     libucrt:fflush.obj
 0002:0000ac44       $unwind$?common_flush_all@@YAH_N@Z 000000018002bc44     libucrt:fflush.obj
 0002:0000ac4c       $unwind$??$?RV<lambda_842d9ff0dc9ef11c61343bbaebe7f885>@@AEAV<lambda_c5860995281e5c4ce005b3de8f5874ee>@@V<lambda_d90129c13df834fdcbf8d2b88dafcf2d>@@@?$__crt_seh_guarded_call@X@@QEAAX$$QEAV<lambda_842d9ff0dc9ef11c61343bbaebe7f885>@@AEAV<lambda_c5860995281e5c4ce005b3de8f5874ee>@@$$QEAV<lambda_d90129c13df834fdcbf8d2b88dafcf2d>@@@Z 000000018002bc4c     libucrt:fflush.obj
 0002:0000ac70       $unwind$??$?RV<lambda_886d6c58226a84441f68b9f2b8217b83>@@AEAV<lambda_ab61a845afdef5b7c387490eaf3616ee>@@V<lambda_f7f22ab5edc0698d5f6905b0d3f44752>@@@?$__crt_seh_guarded_call@X@@QEAAX$$QEAV<lambda_886d6c58226a84441f68b9f2b8217b83>@@AEAV<lambda_ab61a845afdef5b7c387490eaf3616ee>@@$$QEAV<lambda_f7f22ab5edc0698d5f6905b0d3f44752>@@@Z 000000018002bc70     libucrt:fflush.obj
 0002:0000ac98       $unwind$?fp_format_e_internal@@YAHQEAD_KH_NIQEAU_strflt@@2AEAV__crt_cached_ptd_host@@@Z 000000018002bc98     libucrt:cvt.obj
 0002:0000acb4       $unwind$?should_round_up@@YA_NQEBN_KFW4__acrt_rounding_mode@@@Z 000000018002bcb4     libucrt:cvt.obj
 0002:0000acd0       $unwind$?fp_format_a@@YAHQEBNPEAD_KQEAD2H_NIW4__acrt_rounding_mode@@AEAV__crt_cached_ptd_host@@@Z 000000018002bcd0     libucrt:cvt.obj
 0002:0000acec       $unwind$?fp_format_g@@YAHQEBNQEAD_K12H_NIW4__acrt_rounding_mode@@AEAV__crt_cached_ptd_host@@@Z 000000018002bcec     libucrt:cvt.obj
 0002:0000ad04       $unwind$_wctomb_internal   000000018002bd04     libucrt:wctomb.obj
 0002:0000ad18       $unwind$??$?RV<lambda_410d79af7f07d98d83a3f525b3859a53>@@AEAV<lambda_3e16ef9562a7dcce91392c22ab16ea36>@@V<lambda_38119f0e861e05405d8a144b9b982f0a>@@@?$__crt_seh_guarded_call@X@@QEAAX$$QEAV<lambda_410d79af7f07d98d83a3f525b3859a53>@@AEAV<lambda_3e16ef9562a7dcce91392c22ab16ea36>@@$$QEAV<lambda_38119f0e861e05405d8a144b9b982f0a>@@@Z 000000018002bd18     libucrt:wsetlocale.obj
 0002:0000ad40       $unwind$_isctype_l         000000018002bd40     libucrt:isctype.obj
 0002:0000ad5c       $unwind$__acrt_update_thread_locale_data 000000018002bd5c     libucrt:locale_refcounting.obj
 0002:0000ad80       $unwind$qsort              000000018002bd80     libucrt:qsort.obj
 0002:0000ad98       $chain$4$qsort             000000018002bd98     libucrt:qsort.obj
 0002:0000adbc       $chain$5$qsort             000000018002bdbc     libucrt:qsort.obj
 0002:0000adcc       $unwind$strpbrk            000000018002bdcc     libucrt:strpbrk.obj
 0002:0000addc       $unwind$fallbackMethod     000000018002bddc     libucrt:strpbrk.obj
 0002:0000adec       $unwind$__acrt_GetStringTypeA 000000018002bdec     libucrt:getstringtypea.obj
 0002:0000ae14       $unwind$__acrt_LCMapStringA 000000018002be14     libucrt:lcmapstringa.obj
 0002:0000ae24       $unwind$?__acrt_LCMapStringA_stat@@YAHPEAU__crt_locale_pointers@@PEB_WKPEBDHPEADHHH@Z 000000018002be24     libucrt:lcmapstringa.obj
 0002:0000ae4c       $unwind$__acrt_lowio_destroy_handle_array 000000018002be4c     libucrt:osfinfo.obj
 0002:0000ae5c       $unwind$__acrt_lowio_ensure_fh_exists 000000018002be5c     libucrt:osfinfo.obj
 0002:0000ae88       $unwind$_commit            000000018002be88     libucrt:commit.obj
 0002:0000ae90       $unwind$??$?RV<lambda_a37b2b86f63e897a80ea819b0eb08c01>@@AEAV<lambda_38ce7e780aa69e748d6df282ebc68efe>@@V<lambda_99fb1378e971ab6e7edea83e3a7a83a2>@@@?$__crt_seh_guarded_call@H@@QEAAH$$QEAV<lambda_a37b2b86f63e897a80ea819b0eb08c01>@@AEAV<lambda_38ce7e780aa69e748d6df282ebc68efe>@@$$QEAV<lambda_99fb1378e971ab6e7edea83e3a7a83a2>@@@Z 000000018002be90     libucrt:commit.obj
 0002:0000aeb4       $unwind$_write_nolock      000000018002beb4     libucrt:write.obj
 0002:0000aecc       $unwind$_write_internal    000000018002becc     libucrt:write.obj
 0002:0000aef8       $unwind$?write_double_translated_ansi_nolock@@YA?AUwrite_result@?A0x17268360@@HQEBDIAEAV__crt_cached_ptd_host@@@Z 000000018002bef8     libucrt:write.obj
 0002:0000af20       $ip2state$?write_double_translated_ansi_nolock@@YA?AUwrite_result@?A0x17268360@@HQEBDIAEAV__crt_cached_ptd_host@@@Z 000000018002bf20     libucrt:write.obj
 0002:0000af28       $unwind$?write_text_ansi_nolock@@YA?AUwrite_result@?A0x17268360@@HQEBDI@Z 000000018002bf28     libucrt:write.obj
 0002:0000af28       $unwind$?write_text_utf16le_nolock@@YA?AUwrite_result@?A0x17268360@@HQEBDI@Z 000000018002bf28     libucrt:write.obj
 0002:0000af48       $unwind$?write_text_utf8_nolock@@YA?AUwrite_result@?A0x17268360@@HQEBDI@Z 000000018002bf48     libucrt:write.obj
 0002:0000af6c       $unwind$_fcloseall         000000018002bf6c     libucrt:closeall.obj
 0002:0000af90       $unwind$__acrt_fltout      000000018002bf90     libucrt:cfout.obj
 0002:0000afb0       $unwind$?divide@__crt_strtox@@YA_KAEAUbig_integer@1@AEBU21@@Z 000000018002bfb0     libucrt:cfout.obj
 0002:0000afc8       $chain$0$?divide@__crt_strtox@@YA_KAEAUbig_integer@1@AEBU21@@Z 000000018002bfc8     libucrt:cfout.obj
 0002:0000afdc       $chain$1$?divide@__crt_strtox@@YA_KAEAUbig_integer@1@AEBU21@@Z 000000018002bfdc     libucrt:cfout.obj
 0002:0000afec       $unwind$?__mbsrtowcs_utf8@__crt_mbstring@@YA_KPEA_WPEAPEBD_KPEAU_Mbstatet@@AEAV__crt_cached_ptd_host@@@Z 000000018002bfec     libucrt:mbrtowc.obj
 0002:0000b004       $unwind$__acrt_locale_free_monetary 000000018002c004     libucrt:initmon.obj
 0002:0000b00c       $unwind$__acrt_locale_free_time 000000018002c00c     libucrt:inittime.obj
 0002:0000b01c       $unwind$_putwch_nolock     000000018002c01c     libucrt:putwch.obj
 0002:0000b024       $unwind$?_fclose_nolock_internal@@YAHQEAU_iobuf@@AEAV__crt_cached_ptd_host@@@Z 000000018002c024     libucrt:fclose.obj
 0002:0000b034       $unwind$?_fclose_internal@@YAHQEAU_iobuf@@AEAV__crt_cached_ptd_host@@@Z 000000018002c034     libucrt:fclose.obj
 0002:0000b058       $unwind$fesetenv           000000018002c058     libucrt:fesetenv.obj
 0002:0000b068       $xdatasym                  000000018002c068     libucrt:log10.obj
 0002:0000b074       $unwind$__acrt_fenv_get_control 000000018002c074     libucrt:_fenvutils.obj
 0002:0000b07c       $unwind$__acrt_fenv_set_control 000000018002c07c     libucrt:_fenvutils.obj
 0002:0000b08c       $unwind$?__mbrtoc32_utf8@__crt_mbstring@@YA_KPEA_UPEBD_KPEAU_Mbstatet@@AEAV__crt_cached_ptd_host@@@Z 000000018002c08c     libucrt:mbrtoc32.obj
 0002:0000b0a8       $unwind$_close_internal    000000018002c0a8     libucrt:close.obj
 0002:0000b0b0       $unwind$??$?RV<lambda_ad8af0d99a0adf03d037d7dffe354bb5>@@AEAV<lambda_c9ba49e555ba839a7b07aa3fbecb7617>@@V<lambda_2f1ebd5d68526518146ae959c9e734c8>@@@?$__crt_seh_guarded_call@H@@QEAAH$$QEAV<lambda_ad8af0d99a0adf03d037d7dffe354bb5>@@AEAV<lambda_c9ba49e555ba839a7b07aa3fbecb7617>@@$$QEAV<lambda_2f1ebd5d68526518146ae959c9e734c8>@@@Z 000000018002c0b0     libucrt:close.obj
 0002:0000b0d4       $unwind$common_control87   000000018002c0d4     libucrt:ieee.obj
 0002:0000b100       $unwind$_call_matherr      000000018002c100     libucrt:libm_error.obj
 0002:0000b108       $unwind$_handle_error      000000018002c108     libucrt:libm_error.obj
 0002:0000b128       $unwind$__acrt_initialize_fma3 000000018002c128     libucrt:fma3_available.obj
 0002:0000b130       $unwind$_log_special_common 000000018002c130     libucrt:log_special.obj
 0002:0000b140       $xdatasym                  000000018002c140     libucrt:fpsr.obj
 0002:0000b148       $unwind$_raise_exc_ex      000000018002c148     libucrt:fpexcept.obj
 0002:0000b15c       $unwind$_ctrlfp            000000018002c15c     libucrt:fpctrl.obj
 0002:0000b184       $unwind$_IsNonwritableInCurrentImage 000000018002c184     LIBCMT:pesect.obj
 0002:0000b1a8       $unwind$__GSHandlerCheckCommon 000000018002c1a8     LIBCMT:gshandler.obj
 0002:0000b1b0       $xdatasym                  000000018002c1b0     LIBCMT:amdsecgs.obj
 0002:0000b1b4       $unwind$__report_securityfailure 000000018002c1b4     LIBCMT:gs_report.obj
 0002:0000b1bc       $unwind$__report_gsfailure 000000018002c1bc     LIBCMT:gs_report.obj
 0002:0000b1c4       $unwind$capture_current_context 000000018002c1c4     LIBCMT:gs_report.obj
 0002:0000b1d0       $unwind$capture_previous_context 000000018002c1d0     LIBCMT:gs_report.obj
 0002:0000b1e0       $xdatasym                  000000018002c1e0     LIBCMT:chkstk.obj
 0002:0000b1e8       $xdatasym                  000000018002c1e8     libvcruntime:memcmp.obj
 0002:0000b710       .edata                     000000018002c710     PhysXCooking_64.exp
 0002:0000b738       rgpv                       000000018002c738     PhysXCooking_64.exp
 0002:0000b820       rgszName                   000000018002c820     PhysXCooking_64.exp
 0002:0000b908       rgwOrd                     000000018002c908     PhysXCooking_64.exp
 0002:0000b97c       szName                     000000018002c97c     PhysXCooking_64.exp
 0002:0000b990       $N00001                    000000018002c990     PhysXCooking_64.exp
 0002:0000b9b4       $N00002                    000000018002c9b4     PhysXCooking_64.exp
 0002:0000b9e3       $N00003                    000000018002c9e3     PhysXCooking_64.exp
 0002:0000ba0a       $N00004                    000000018002ca0a     PhysXCooking_64.exp
 0002:0000ba61       $N00005                    000000018002ca61     PhysXCooking_64.exp
 0002:0000ba8c       $N00006                    000000018002ca8c     PhysXCooking_64.exp
 0002:0000bab2       $N00007                    000000018002cab2     PhysXCooking_64.exp
 0002:0000bad1       $N00008                    000000018002cad1     PhysXCooking_64.exp
 0002:0000baf5       $N00009                    000000018002caf5     PhysXCooking_64.exp
 0002:0000bb1c       $N00010                    000000018002cb1c     PhysXCooking_64.exp
 0002:0000bb45       $N00011                    000000018002cb45     PhysXCooking_64.exp
 0002:0000bb64       $N00012                    000000018002cb64     PhysXCooking_64.exp
 0002:0000bb97       $N00013                    000000018002cb97     PhysXCooking_64.exp
 0002:0000bbcd       $N00014                    000000018002cbcd     PhysXCooking_64.exp
 0002:0000bc05       $N00015                    000000018002cc05     PhysXCooking_64.exp
 0002:0000bc37       $N00016                    000000018002cc37     PhysXCooking_64.exp
 0002:0000bc63       $N00017                    000000018002cc63     PhysXCooking_64.exp
 0002:0000bc7f       $N00018                    000000018002cc7f     PhysXCooking_64.exp
 0002:0000bca9       $N00019                    000000018002cca9     PhysXCooking_64.exp
 0002:0000bce5       $N00020                    000000018002cce5     PhysXCooking_64.exp
 0002:0000bd20       $N00021                    000000018002cd20     PhysXCooking_64.exp
 0002:0000bd5b       $N00022                    000000018002cd5b     PhysXCooking_64.exp
 0002:0000bd90       $N00023                    000000018002cd90     PhysXCooking_64.exp
 0002:0000bdcc       $N00024                    000000018002cdcc     PhysXCooking_64.exp
 0002:0000bdff       $N00025                    000000018002cdff     PhysXCooking_64.exp
 0002:0000be32       $N00026                    000000018002ce32     PhysXCooking_64.exp
 0002:0000be6c       $N00027                    000000018002ce6c     PhysXCooking_64.exp
 0002:0000bea6       $N00028                    000000018002cea6     PhysXCooking_64.exp
 0002:0000bed3       $N00029                    000000018002ced3     PhysXCooking_64.exp
 0002:0000bf06       $N00030                    000000018002cf06     PhysXCooking_64.exp
 0002:0000bf34       $N00031                    000000018002cf34     PhysXCooking_64.exp
 0002:0000bf61       $N00032                    000000018002cf61     PhysXCooking_64.exp
 0002:0000bf9d       $N00033                    000000018002cf9d     PhysXCooking_64.exp
 0002:0000bfda       $N00034                    000000018002cfda     PhysXCooking_64.exp
 0002:0000c00a       $N00035                    000000018002d00a     PhysXCooking_64.exp
 0002:0000c021       $N00036                    000000018002d021     PhysXCooking_64.exp
 0002:0000c03c       $N00037                    000000018002d03c     PhysXCooking_64.exp
 0002:0000c053       $N00038                    000000018002d053     PhysXCooking_64.exp
 0002:0000c069       $N00039                    000000018002d069     PhysXCooking_64.exp
 0002:0000c080       $N00040                    000000018002d080     PhysXCooking_64.exp
 0002:0000c098       $N00041                    000000018002d098     PhysXCooking_64.exp
 0002:0000c0a2       $N00042                    000000018002d0a2     PhysXCooking_64.exp
 0002:0000c0b3       $N00043                    000000018002d0b3     PhysXCooking_64.exp
 0002:0000c0c5       $N00044                    000000018002d0c5     PhysXCooking_64.exp
 0002:0000c0d8       $N00045                    000000018002d0d8     PhysXCooking_64.exp
 0002:0000c0ee       $N00046                    000000018002d0ee     PhysXCooking_64.exp
 0002:0000c101       $N00047                    000000018002d101     PhysXCooking_64.exp
 0002:0000c10d       $N00048                    000000018002d10d     PhysXCooking_64.exp
 0002:0000c121       $N00049                    000000018002d121     PhysXCooking_64.exp
 0002:0000c134       $N00050                    000000018002d134     PhysXCooking_64.exp
 0002:0000c148       $N00051                    000000018002d148     PhysXCooking_64.exp
 0002:0000c15d       $N00052                    000000018002d15d     PhysXCooking_64.exp
 0002:0000c175       $N00053                    000000018002d175     PhysXCooking_64.exp
 0002:0000c18a       $N00054                    000000018002d18a     PhysXCooking_64.exp
 0002:0000c1a7       $N00055                    000000018002d1a7     PhysXCooking_64.exp
 0002:0000c1c8       $N00056                    000000018002d1c8     PhysXCooking_64.exp
 0002:0000c1e7       $N00057                    000000018002d1e7     PhysXCooking_64.exp
 0002:0000c1fc       $N00058                    000000018002d1fc     PhysXCooking_64.exp
 0002:0000c4d0       .idata$6                   000000018002d4d0     kernel32:KERNEL32.dll
 0003:00000040       ?prefix@?1??getDimension@UnDecorator@@CA?AVDName@@_N@Z@4UStringLiteral@@A 000000018002e040     libvcruntime:undname.obj
 0003:00000050       ?__vcrt_flsindex@@3KA      000000018002e050     libvcruntime:per_thread_data.obj
 0003:00000070       ?__acrt_flsindex@@3KA      000000018002e070     libucrt:per_thread_data.obj
 0003:00000074       ?errno_no_memory@@3HA      000000018002e074     libucrt:errno.obj
 0003:00000078       ?doserrno_no_memory@@3KA   000000018002e078     libucrt:errno.obj
 0003:000002b0       _mbctypes                  000000018002e2b0     libucrt:mbctype.obj
 0003:000003c0       _mbcasemaps                000000018002e3c0     libucrt:mbctype.obj
 0003:000004c0       ?__rgctypeflag@@3PADA      000000018002e4c0     libucrt:mbctype.obj
 0003:000004d0       ?__rgcode_page_info@@3PAUcode_page_info@@A 000000018002e4d0     libucrt:mbctype.obj
 0003:000009e0       ?__dcrt_lowio_console_output_handle@@3PEAXEA 000000018002e9e0     libucrt:initcon.obj
 0003:000009e8       ?dazSupported@?1??common_control87@@9@9 000000018002e9e8     libucrt:ieee.obj
 0003:000009f0       ?dazSupported@?1??_ctrlfp@@9@9 000000018002e9f0     libucrt:fpctrl.obj
 0003:00000cb0       ?maxV3Error@vecMathTests@aos@physx@@3T__m128@@B 000000018002ecb0     Cooking.obj
 0003:00000cc0       ?minFError@vecMathTests@aos@physx@@3T__m128@@B 000000018002ecc0     Cooking.obj
 0003:00000cd0       ?maxV4Error@vecMathTests@aos@physx@@3T__m128@@B 000000018002ecd0     Cooking.obj
 0003:00000ce0       ?minV4Error@vecMathTests@aos@physx@@3T__m128@@B 000000018002ece0     Cooking.obj
 0003:00000cf0       ?minV3Error@vecMathTests@aos@physx@@3T__m128@@B 000000018002ecf0     Cooking.obj
 0003:00000d00       ?maxFError@vecMathTests@aos@physx@@3T__m128@@B 000000018002ed00     Cooking.obj
 0003:00000d10       ?gCookingDelayLoadHook@@3PEBVPxDelayLoadHook@physx@@EB 000000018002ed10     WindowsCookingDelayLoadHook.obj
 0003:00000d70       ?__proc_attached@@3HA      000000018002ed70     LIBCMT:dll_dllmain.obj
 0003:00000d98       ?is_initialized_as_dll@@3_NA 000000018002ed98     LIBCMT:utility.obj
 0003:00000d99       ?module_local_atexit_table_initialized@@3_NA 000000018002ed99     LIBCMT:utility.obj
 0003:00000da0       ?module_local_atexit_table@@3U_onexit_table_t@@A 000000018002eda0     LIBCMT:utility.obj
 0003:00000db8       ?module_local_at_quick_exit_table@@3U_onexit_table_t@@A 000000018002edb8     LIBCMT:utility.obj
 0003:00000e28       ?heap@@3V_HeapManager@@A   000000018002ee28     libvcruntime:undname.obj
 0003:00000e50       ?__vcrt_startup_thread_ptd@@3U__vcrt_ptd@@A 000000018002ee50     libvcruntime:per_thread_data.obj
 0003:00000ed0       __vcrt_lock_table          000000018002eed0     libvcruntime:locks.obj
 0003:00000ef8       __vcrt_locks_initialized   000000018002eef8     libvcruntime:locks.obj
 0003:00000f00       ?module_handles@@3PAPEAUHINSTANCE__@@A 000000018002ef00     libvcruntime:winapi_downlevel.obj
 0003:00000f18       ?function_pointers@@3PAPEAXA 000000018002ef18     libvcruntime:winapi_downlevel.obj
 0003:00000f40       ?c_termination_complete@@3JA 000000018002ef40     libucrt:exit.obj
 0003:00000f48       ?thread_local_exit_callback_func@@3P6AXPEAXK0@ZEA 000000018002ef48     libucrt:exit.obj
 0003:00000f50       ?c_exit_complete@?1???R<lambda_6e4b09c48022b2350581041d5f6b0c4c>@@QEBA@XZ@4_NA 000000018002ef50     libucrt:exit.obj
 0003:00000f60       ?program_name@?1???$common_configure_argv@D@@YAHW4_crt_argv_mode@@@Z@4PADA 000000018002ef60     libucrt:argv_parsing.obj
 0003:000010c0       ?__acrt_lock_table@@3PAU_RTL_CRITICAL_SECTION@@A 000000018002f0c0     libucrt:locks.obj
 0003:000012f0       ?__acrt_locks_initialized@@3IA 000000018002f2f0     libucrt:locks.obj
 0003:000012f8       ?__acrt_invalid_parameter_handler@@3V?$dual_state_global@P6AXPEB_W00I_K@Z@__crt_state_management@@A 000000018002f2f8     libucrt:invalid_parameter.obj
 0003:00001318       ?fSystemSet@@3HA           000000018002f318     libucrt:mbctype.obj
 0003:0000131c       ?initialized@?1??__acrt_initialize_multibyte@@9@4_NA 000000018002f31c     libucrt:mbctype.obj
 0003:00001350       ?module_handles@@3PAPEAUHINSTANCE__@@A 000000018002f350     libucrt:winapi_thunks.obj
 0003:00001400       ?encoded_function_pointers@@3PAPEAXA 000000018002f400     libucrt:winapi_thunks.obj
 0003:00001908       ?__acrt_new_handler@@3V?$dual_state_global@P6AH_K@Z@__crt_state_management@@A 000000018002f908     libucrt:new_handler.obj
 0003:00001910       ?ctrlc_action@@3V?$dual_state_global@P6AXH@Z@__crt_state_management@@A 000000018002f910     libucrt:signal.obj
 0003:00001918       ?ctrlbreak_action@@3V?$dual_state_global@P6AXH@Z@__crt_state_management@@A 000000018002f918     libucrt:signal.obj
 0003:00001920       ?abort_action@@3V?$dual_state_global@P6AXH@Z@__crt_state_management@@A 000000018002f920     libucrt:signal.obj
 0003:00001928       ?term_action@@3V?$dual_state_global@P6AXH@Z@__crt_state_management@@A 000000018002f928     libucrt:signal.obj
 0003:00001930       ?user_matherr@@3V?$dual_state_global@P6AHPEAU_exception@@@Z@__crt_state_management@@A 000000018002f930     libucrt:matherr.obj
 0003:00001960       ?internal_state@?1??_mbtowc_internal@@9@4U_Mbstatet@@A 000000018002f960     libucrt:mbtowc.obj
 0003:00001968       ?enable_percent_n@@3_KA    000000018002f968     libucrt:printf_count_output.obj
 0003:00001974       ?__acrt_global_new_mode@@3V?$dual_state_global@J@__crt_state_management@@A 000000018002f974     libucrt:new_mode.obj
 0003:00001980       ?__acrt_app_type@@3W4_crt_app_type@@A 000000018002f980     libucrt:report_runtime_error.obj
 0003:00001988       ?internal_pst@?1??__mbrtoc32_utf8@__crt_mbstring@@YA_KPEA_UPEBD_KPEAU_Mbstatet@@AEAV__crt_cached_ptd_host@@@Z@4U3@A 000000018002f988     libucrt:mbrtoc32.obj
 0003:000019a0       GS_ExceptionRecord         000000018002f9a0     LIBCMT:gs_report.obj
 0003:00001a40       GS_ContextRecord           000000018002fa40     LIBCMT:gs_report.obj
 0005:00000000       SetSmall                   0000000180032000     libvcruntime:memset.obj
 0005:00000040       SetSmallYmm                0000000180032040     libvcruntime:memset.obj
 0005:00000064       SetSmallYmmNT              0000000180032064     libvcruntime:memset.obj
 0005:00000088       SetSmallXmm                0000000180032088     libvcruntime:memset.obj
 0005:000000b0       MoveSmall                  00000001800320b0     libvcruntime:memcpy.obj
 0005:000000f0       MoveSmallYmm               00000001800320f0     libvcruntime:memcpy.obj
 0005:00000114       MoveSmallYmmNT             0000000180032114     libvcruntime:memcpy.obj
 0005:00000138       MoveSmallXmm               0000000180032138     libvcruntime:memcpy.obj
 0006:000000a0       $R000000                   00000001800330a0     PhysXCooking.res
 0006:000003d0       $R000330                   00000001800333d0     PhysXCooking.res
